
MonopolyTestPorgramm.elf:     file format elf32-avr

Sections:
Idx Name          Size      VMA       LMA       File off  Algn
  0 .data         000002c8  00800200  00004968  000049fc  2**0
                  CONTENTS, ALLOC, LOAD, DATA
  1 .text         00004968  00000000  00000000  00000094  2**1
                  CONTENTS, ALLOC, LOAD, READONLY, CODE
  2 .bss          00000291  008004c8  008004c8  00004cc4  2**0
                  ALLOC
  3 .comment      0000005c  00000000  00000000  00004cc4  2**0
                  CONTENTS, READONLY
  4 .note.gnu.avr.deviceinfo 00000040  00000000  00000000  00004d20  2**2
                  CONTENTS, READONLY
  5 .debug_aranges 00000188  00000000  00000000  00004d60  2**0
                  CONTENTS, READONLY, DEBUGGING
  6 .debug_info   000030f8  00000000  00000000  00004ee8  2**0
                  CONTENTS, READONLY, DEBUGGING
  7 .debug_abbrev 000014a9  00000000  00000000  00007fe0  2**0
                  CONTENTS, READONLY, DEBUGGING
  8 .debug_line   000020d9  00000000  00000000  00009489  2**0
                  CONTENTS, READONLY, DEBUGGING
  9 .debug_frame  00000414  00000000  00000000  0000b564  2**2
                  CONTENTS, READONLY, DEBUGGING
 10 .debug_str    00000aee  00000000  00000000  0000b978  2**0
                  CONTENTS, READONLY, DEBUGGING
 11 .debug_loc    000025a1  00000000  00000000  0000c466  2**0
                  CONTENTS, READONLY, DEBUGGING
 12 .debug_ranges 00000138  00000000  00000000  0000ea07  2**0
                  CONTENTS, READONLY, DEBUGGING

Disassembly of section .text:

00000000 <__vectors>:
       0:	79 c0       	rjmp	.+242    	; 0xf4 <__ctors_end>
       2:	00 00       	nop
       4:	98 c0       	rjmp	.+304    	; 0x136 <__bad_interrupt>
       6:	00 00       	nop
       8:	96 c0       	rjmp	.+300    	; 0x136 <__bad_interrupt>
       a:	00 00       	nop
       c:	94 c0       	rjmp	.+296    	; 0x136 <__bad_interrupt>
       e:	00 00       	nop
      10:	92 c0       	rjmp	.+292    	; 0x136 <__bad_interrupt>
      12:	00 00       	nop
      14:	90 c0       	rjmp	.+288    	; 0x136 <__bad_interrupt>
      16:	00 00       	nop
      18:	8e c0       	rjmp	.+284    	; 0x136 <__bad_interrupt>
      1a:	00 00       	nop
      1c:	8c c0       	rjmp	.+280    	; 0x136 <__bad_interrupt>
      1e:	00 00       	nop
      20:	8a c0       	rjmp	.+276    	; 0x136 <__bad_interrupt>
      22:	00 00       	nop
      24:	88 c0       	rjmp	.+272    	; 0x136 <__bad_interrupt>
      26:	00 00       	nop
      28:	86 c0       	rjmp	.+268    	; 0x136 <__bad_interrupt>
      2a:	00 00       	nop
      2c:	84 c0       	rjmp	.+264    	; 0x136 <__bad_interrupt>
      2e:	00 00       	nop
      30:	82 c0       	rjmp	.+260    	; 0x136 <__bad_interrupt>
      32:	00 00       	nop
      34:	80 c0       	rjmp	.+256    	; 0x136 <__bad_interrupt>
      36:	00 00       	nop
      38:	7e c0       	rjmp	.+252    	; 0x136 <__bad_interrupt>
      3a:	00 00       	nop
      3c:	7c c0       	rjmp	.+248    	; 0x136 <__bad_interrupt>
      3e:	00 00       	nop
      40:	7a c0       	rjmp	.+244    	; 0x136 <__bad_interrupt>
      42:	00 00       	nop
      44:	78 c0       	rjmp	.+240    	; 0x136 <__bad_interrupt>
      46:	00 00       	nop
      48:	76 c0       	rjmp	.+236    	; 0x136 <__bad_interrupt>
      4a:	00 00       	nop
      4c:	74 c0       	rjmp	.+232    	; 0x136 <__bad_interrupt>
      4e:	00 00       	nop
      50:	72 c0       	rjmp	.+228    	; 0x136 <__bad_interrupt>
      52:	00 00       	nop
      54:	70 c0       	rjmp	.+224    	; 0x136 <__bad_interrupt>
      56:	00 00       	nop
      58:	6e c0       	rjmp	.+220    	; 0x136 <__bad_interrupt>
      5a:	00 00       	nop
      5c:	6c c0       	rjmp	.+216    	; 0x136 <__bad_interrupt>
      5e:	00 00       	nop
      60:	6a c0       	rjmp	.+212    	; 0x136 <__bad_interrupt>
      62:	00 00       	nop
      64:	68 c0       	rjmp	.+208    	; 0x136 <__bad_interrupt>
      66:	00 00       	nop
      68:	66 c0       	rjmp	.+204    	; 0x136 <__bad_interrupt>
      6a:	00 00       	nop
      6c:	64 c0       	rjmp	.+200    	; 0x136 <__bad_interrupt>
      6e:	00 00       	nop
      70:	62 c0       	rjmp	.+196    	; 0x136 <__bad_interrupt>
      72:	00 00       	nop
      74:	60 c0       	rjmp	.+192    	; 0x136 <__bad_interrupt>
      76:	00 00       	nop
      78:	5e c0       	rjmp	.+188    	; 0x136 <__bad_interrupt>
      7a:	00 00       	nop
      7c:	5c c0       	rjmp	.+184    	; 0x136 <__bad_interrupt>
      7e:	00 00       	nop
      80:	5a c0       	rjmp	.+180    	; 0x136 <__bad_interrupt>
      82:	00 00       	nop
      84:	58 c0       	rjmp	.+176    	; 0x136 <__bad_interrupt>
      86:	00 00       	nop
      88:	56 c0       	rjmp	.+172    	; 0x136 <__bad_interrupt>
      8a:	00 00       	nop
      8c:	54 c0       	rjmp	.+168    	; 0x136 <__bad_interrupt>
      8e:	00 00       	nop
      90:	52 c0       	rjmp	.+164    	; 0x136 <__bad_interrupt>
      92:	00 00       	nop
      94:	50 c0       	rjmp	.+160    	; 0x136 <__bad_interrupt>
      96:	00 00       	nop
      98:	4e c0       	rjmp	.+156    	; 0x136 <__bad_interrupt>
      9a:	00 00       	nop
      9c:	4c c0       	rjmp	.+152    	; 0x136 <__bad_interrupt>
      9e:	00 00       	nop
      a0:	4a c0       	rjmp	.+148    	; 0x136 <__bad_interrupt>
      a2:	00 00       	nop
      a4:	48 c0       	rjmp	.+144    	; 0x136 <__bad_interrupt>
      a6:	00 00       	nop
      a8:	46 c0       	rjmp	.+140    	; 0x136 <__bad_interrupt>
      aa:	00 00       	nop
      ac:	44 c0       	rjmp	.+136    	; 0x136 <__bad_interrupt>
      ae:	00 00       	nop
      b0:	42 c0       	rjmp	.+132    	; 0x136 <__bad_interrupt>
      b2:	00 00       	nop
      b4:	40 c0       	rjmp	.+128    	; 0x136 <__bad_interrupt>
      b6:	00 00       	nop
      b8:	3e c0       	rjmp	.+124    	; 0x136 <__bad_interrupt>
      ba:	00 00       	nop
      bc:	3c c0       	rjmp	.+120    	; 0x136 <__bad_interrupt>
      be:	00 00       	nop
      c0:	3a c0       	rjmp	.+116    	; 0x136 <__bad_interrupt>
      c2:	00 00       	nop
      c4:	38 c0       	rjmp	.+112    	; 0x136 <__bad_interrupt>
      c6:	00 00       	nop
      c8:	36 c0       	rjmp	.+108    	; 0x136 <__bad_interrupt>
      ca:	00 00       	nop
      cc:	34 c0       	rjmp	.+104    	; 0x136 <__bad_interrupt>
      ce:	00 00       	nop
      d0:	32 c0       	rjmp	.+100    	; 0x136 <__bad_interrupt>
      d2:	00 00       	nop
      d4:	30 c0       	rjmp	.+96     	; 0x136 <__bad_interrupt>
      d6:	00 00       	nop
      d8:	2e c0       	rjmp	.+92     	; 0x136 <__bad_interrupt>
      da:	00 00       	nop
      dc:	2c c0       	rjmp	.+88     	; 0x136 <__bad_interrupt>
      de:	00 00       	nop
      e0:	2a c0       	rjmp	.+84     	; 0x136 <__bad_interrupt>
      e2:	00 00       	nop
      e4:	b4 0d       	add	r27, r4
      e6:	ef 0f       	add	r30, r31
      e8:	ef 0f       	add	r30, r31
      ea:	ef 0f       	add	r30, r31
      ec:	ef 0f       	add	r30, r31
      ee:	40 0f       	add	r20, r16
      f0:	43 0f       	add	r20, r19
      f2:	94 0e       	add	r9, r20

000000f4 <__ctors_end>:
      f4:	11 24       	eor	r1, r1
      f6:	1f be       	out	0x3f, r1	; 63
      f8:	cf ef       	ldi	r28, 0xFF	; 255
      fa:	d1 e2       	ldi	r29, 0x21	; 33
      fc:	de bf       	out	0x3e, r29	; 62
      fe:	cd bf       	out	0x3d, r28	; 61
     100:	00 e0       	ldi	r16, 0x00	; 0
     102:	0c bf       	out	0x3c, r16	; 60

00000104 <__do_copy_data>:
     104:	14 e0       	ldi	r17, 0x04	; 4
     106:	a0 e0       	ldi	r26, 0x00	; 0
     108:	b2 e0       	ldi	r27, 0x02	; 2
     10a:	e8 e6       	ldi	r30, 0x68	; 104
     10c:	f9 e4       	ldi	r31, 0x49	; 73
     10e:	00 e0       	ldi	r16, 0x00	; 0
     110:	0b bf       	out	0x3b, r16	; 59
     112:	02 c0       	rjmp	.+4      	; 0x118 <__do_copy_data+0x14>
     114:	07 90       	elpm	r0, Z+
     116:	0d 92       	st	X+, r0
     118:	a8 3c       	cpi	r26, 0xC8	; 200
     11a:	b1 07       	cpc	r27, r17
     11c:	d9 f7       	brne	.-10     	; 0x114 <__do_copy_data+0x10>

0000011e <__do_clear_bss>:
     11e:	27 e0       	ldi	r18, 0x07	; 7
     120:	a8 ec       	ldi	r26, 0xC8	; 200
     122:	b4 e0       	ldi	r27, 0x04	; 4
     124:	01 c0       	rjmp	.+2      	; 0x128 <.do_clear_bss_start>

00000126 <.do_clear_bss_loop>:
     126:	1d 92       	st	X+, r1

00000128 <.do_clear_bss_start>:
     128:	a9 35       	cpi	r26, 0x59	; 89
     12a:	b2 07       	cpc	r27, r18
     12c:	e1 f7       	brne	.-8      	; 0x126 <.do_clear_bss_loop>
     12e:	0e 94 2e 0a 	call	0x145c	; 0x145c <main>
     132:	0c 94 b2 24 	jmp	0x4964	; 0x4964 <_exit>

00000136 <__bad_interrupt>:
     136:	64 cf       	rjmp	.-312    	; 0x0 <__vectors>

00000138 <CmdDisplay>:
    DisplayOn = (DisplayOn << 2) & 0x04;
    CmdDisplay(CMD_DISPLAY_ON_OFF | BlinkOn | CursorOn | DisplayOn);
}

void shift(void)
{
     138:	98 b1       	in	r25, 0x08	; 8
     13a:	9f 7e       	andi	r25, 0xEF	; 239
     13c:	98 b9       	out	0x08, r25	; 8
     13e:	98 b1       	in	r25, 0x08	; 8
     140:	9b 7f       	andi	r25, 0xFB	; 251
     142:	98 b9       	out	0x08, r25	; 8
     144:	8b b9       	out	0x0b, r24	; 11
     146:	98 b1       	in	r25, 0x08	; 8
     148:	92 60       	ori	r25, 0x02	; 2
     14a:	98 b9       	out	0x08, r25	; 8
     14c:	81 50       	subi	r24, 0x01	; 1
     14e:	83 30       	cpi	r24, 0x03	; 3
     150:	38 f4       	brcc	.+14     	; 0x160 <CmdDisplay+0x28>
     152:	8f e2       	ldi	r24, 0x2F	; 47
     154:	91 e1       	ldi	r25, 0x11	; 17
     156:	01 97       	sbiw	r24, 0x01	; 1
     158:	f1 f7       	brne	.-4      	; 0x156 <CmdDisplay+0x1e>
     15a:	00 c0       	rjmp	.+0      	; 0x15c <CmdDisplay+0x24>
     15c:	00 00       	nop
     15e:	03 c0       	rjmp	.+6      	; 0x166 <CmdDisplay+0x2e>
     160:	90 ea       	ldi	r25, 0xA0	; 160
     162:	9a 95       	dec	r25
     164:	f1 f7       	brne	.-4      	; 0x162 <CmdDisplay+0x2a>
     166:	88 b1       	in	r24, 0x08	; 8
     168:	8d 7f       	andi	r24, 0xFD	; 253
     16a:	88 b9       	out	0x08, r24	; 8
     16c:	08 95       	ret

0000016e <initDisplay>:
     16e:	1f 93       	push	r17
     170:	cf 93       	push	r28
     172:	df 93       	push	r29
     174:	cd b7       	in	r28, 0x3d	; 61
     176:	de b7       	in	r29, 0x3e	; 62
     178:	29 97       	sbiw	r28, 0x09	; 9
     17a:	0f b6       	in	r0, 0x3f	; 63
     17c:	f8 94       	cli
     17e:	de bf       	out	0x3e, r29	; 62
     180:	0f be       	out	0x3f, r0	; 63
     182:	cd bf       	out	0x3d, r28	; 61
     184:	8f ef       	ldi	r24, 0xFF	; 255
     186:	8a b9       	out	0x0a, r24	; 10
     188:	87 b9       	out	0x07, r24	; 7
     18a:	88 b1       	in	r24, 0x08	; 8
     18c:	80 62       	ori	r24, 0x20	; 32
     18e:	88 b9       	out	0x08, r24	; 8
     190:	2f ef       	ldi	r18, 0xFF	; 255
     192:	80 e7       	ldi	r24, 0x70	; 112
     194:	92 e0       	ldi	r25, 0x02	; 2
     196:	21 50       	subi	r18, 0x01	; 1
     198:	80 40       	sbci	r24, 0x00	; 0
     19a:	90 40       	sbci	r25, 0x00	; 0
     19c:	e1 f7       	brne	.-8      	; 0x196 <initDisplay+0x28>
     19e:	00 c0       	rjmp	.+0      	; 0x1a0 <initDisplay+0x32>
     1a0:	00 00       	nop
     1a2:	88 b1       	in	r24, 0x08	; 8
     1a4:	8e 7f       	andi	r24, 0xFE	; 254
     1a6:	88 b9       	out	0x08, r24	; 8
     1a8:	89 e0       	ldi	r24, 0x09	; 9
     1aa:	ee e0       	ldi	r30, 0x0E	; 14
     1ac:	f2 e0       	ldi	r31, 0x02	; 2
     1ae:	de 01       	movw	r26, r28
     1b0:	11 96       	adiw	r26, 0x01	; 1
     1b2:	01 90       	ld	r0, Z+
     1b4:	0d 92       	st	X+, r0
     1b6:	8a 95       	dec	r24
     1b8:	e1 f7       	brne	.-8      	; 0x1b2 <initDisplay+0x44>
     1ba:	10 e0       	ldi	r17, 0x00	; 0
     1bc:	0a c0       	rjmp	.+20     	; 0x1d2 <initDisplay+0x64>
     1be:	e1 e0       	ldi	r30, 0x01	; 1
     1c0:	f0 e0       	ldi	r31, 0x00	; 0
     1c2:	ec 0f       	add	r30, r28
     1c4:	fd 1f       	adc	r31, r29
     1c6:	e1 0f       	add	r30, r17
     1c8:	f1 1d       	adc	r31, r1
     1ca:	80 81       	ld	r24, Z
     1cc:	90 e0       	ldi	r25, 0x00	; 0
     1ce:	b4 df       	rcall	.-152    	; 0x138 <CmdDisplay>
     1d0:	1f 5f       	subi	r17, 0xFF	; 255
     1d2:	19 30       	cpi	r17, 0x09	; 9
     1d4:	a0 f3       	brcs	.-24     	; 0x1be <initDisplay+0x50>
     1d6:	29 96       	adiw	r28, 0x09	; 9
     1d8:	0f b6       	in	r0, 0x3f	; 63
     1da:	f8 94       	cli
     1dc:	de bf       	out	0x3e, r29	; 62
     1de:	0f be       	out	0x3f, r0	; 63
     1e0:	cd bf       	out	0x3d, r28	; 61
     1e2:	df 91       	pop	r29
     1e4:	cf 91       	pop	r28
     1e6:	1f 91       	pop	r17
     1e8:	08 95       	ret

000001ea <DataDisplay>:
     1ea:	98 b1       	in	r25, 0x08	; 8
     1ec:	90 61       	ori	r25, 0x10	; 16
     1ee:	98 b9       	out	0x08, r25	; 8
     1f0:	98 b1       	in	r25, 0x08	; 8
     1f2:	9b 7f       	andi	r25, 0xFB	; 251
     1f4:	98 b9       	out	0x08, r25	; 8
     1f6:	8b b9       	out	0x0b, r24	; 11
     1f8:	88 b1       	in	r24, 0x08	; 8
     1fa:	82 60       	ori	r24, 0x02	; 2
     1fc:	88 b9       	out	0x08, r24	; 8
     1fe:	80 ea       	ldi	r24, 0xA0	; 160
     200:	8a 95       	dec	r24
     202:	f1 f7       	brne	.-4      	; 0x200 <DataDisplay+0x16>
     204:	88 b1       	in	r24, 0x08	; 8
     206:	8d 7f       	andi	r24, 0xFD	; 253
     208:	88 b9       	out	0x08, r24	; 8
     20a:	08 95       	ret

0000020c <clear>:
     20c:	81 e0       	ldi	r24, 0x01	; 1
     20e:	94 cf       	rjmp	.-216    	; 0x138 <CmdDisplay>
     210:	08 95       	ret

00000212 <home>:
     212:	82 e0       	ldi	r24, 0x02	; 2
     214:	91 cf       	rjmp	.-222    	; 0x138 <CmdDisplay>
     216:	08 95       	ret

00000218 <displayOnOff>:
     218:	41 70       	andi	r20, 0x01	; 1
     21a:	70 e0       	ldi	r23, 0x00	; 0
     21c:	66 0f       	add	r22, r22
     21e:	77 1f       	adc	r23, r23
     220:	62 70       	andi	r22, 0x02	; 2
     222:	28 2f       	mov	r18, r24
     224:	30 e0       	ldi	r19, 0x00	; 0
     226:	22 0f       	add	r18, r18
     228:	33 1f       	adc	r19, r19
     22a:	22 0f       	add	r18, r18
     22c:	33 1f       	adc	r19, r19
     22e:	24 70       	andi	r18, 0x04	; 4
     230:	84 2f       	mov	r24, r20
     232:	86 2b       	or	r24, r22
     234:	82 2b       	or	r24, r18
     236:	88 60       	ori	r24, 0x08	; 8
     238:	7f cf       	rjmp	.-258    	; 0x138 <CmdDisplay>
     23a:	08 95       	ret

0000023c <writeText>:
}



void writeText(uint8_t Zeile, uint8_t Spalte, uint8_t * Text)
{
     23c:	0f 93       	push	r16
     23e:	1f 93       	push	r17
     240:	cf 93       	push	r28
     242:	8a 01       	movw	r16, r20
    CmdDisplay(CMD_SET_DDRAM_ADRESS + (0x10 * Zeile) + Spalte);
     244:	28 2f       	mov	r18, r24
     246:	30 e0       	ldi	r19, 0x00	; 0
     248:	28 5f       	subi	r18, 0xF8	; 248
     24a:	3f 4f       	sbci	r19, 0xFF	; 255
     24c:	86 2f       	mov	r24, r22
     24e:	90 e1       	ldi	r25, 0x10	; 16
     250:	29 9f       	mul	r18, r25
     252:	80 0d       	add	r24, r0
     254:	11 24       	eor	r1, r1
     256:	70 df       	rcall	.-288    	; 0x138 <CmdDisplay>
    uint8_t i = 0;
     258:	c0 e0       	ldi	r28, 0x00	; 0
    while(Text[i])
    {
        DataDisplay(Text[i]);
     25a:	02 c0       	rjmp	.+4      	; 0x260 <writeText+0x24>
     25c:	c6 df       	rcall	.-116    	; 0x1ea <DataDisplay>
        i++;
     25e:	cf 5f       	subi	r28, 0xFF	; 255

void writeText(uint8_t Zeile, uint8_t Spalte, uint8_t * Text)
{
    CmdDisplay(CMD_SET_DDRAM_ADRESS + (0x10 * Zeile) + Spalte);
    uint8_t i = 0;
    while(Text[i])
     260:	f8 01       	movw	r30, r16
     262:	ec 0f       	add	r30, r28
     264:	f1 1d       	adc	r31, r1
     266:	80 81       	ld	r24, Z
     268:	81 11       	cpse	r24, r1
     26a:	f8 cf       	rjmp	.-16     	; 0x25c <writeText+0x20>
    {
        DataDisplay(Text[i]);
        i++;
    }
     26c:	cf 91       	pop	r28
     26e:	1f 91       	pop	r17
     270:	0f 91       	pop	r16
     272:	08 95       	ret

00000274 <PortInitialisierung>:
#define TASTER16    (1<<15)

uint8_t wuerfelArray[2] = {0};
void abInsGefaengnis(uint8_t Spieler);
void PortInitialisierung(void)
{
     274:	cf 93       	push	r28
     276:	df 93       	push	r29
     278:	cd b7       	in	r28, 0x3d	; 61
     27a:	de b7       	in	r29, 0x3e	; 62
    DDRA = 0xFF;		// Port A auf Ausgang initialisieren (alle Pins)
     27c:	81 e2       	ldi	r24, 0x21	; 33
     27e:	90 e0       	ldi	r25, 0x00	; 0
     280:	2f ef       	ldi	r18, 0xFF	; 255
     282:	fc 01       	movw	r30, r24
     284:	20 83       	st	Z, r18
    DDRB = 0xFF;		// Port B auf Ausgang initialisieren (alle Pins)
     286:	84 e2       	ldi	r24, 0x24	; 36
     288:	90 e0       	ldi	r25, 0x00	; 0
     28a:	2f ef       	ldi	r18, 0xFF	; 255
     28c:	fc 01       	movw	r30, r24
     28e:	20 83       	st	Z, r18
    PORTB = 0b00100000; //Setzt Clear der Spieler Schieberegister auf 1
     290:	85 e2       	ldi	r24, 0x25	; 37
     292:	90 e0       	ldi	r25, 0x00	; 0
     294:	20 e2       	ldi	r18, 0x20	; 32
     296:	fc 01       	movw	r30, r24
     298:	20 83       	st	Z, r18
    DDRC = 0xFF;		// Port C auf Ausgang initialisieren (alle Pins)
     29a:	87 e2       	ldi	r24, 0x27	; 39
     29c:	90 e0       	ldi	r25, 0x00	; 0
     29e:	2f ef       	ldi	r18, 0xFF	; 255
     2a0:	fc 01       	movw	r30, r24
     2a2:	20 83       	st	Z, r18
    PORTC = 0x3F;
     2a4:	88 e2       	ldi	r24, 0x28	; 40
     2a6:	90 e0       	ldi	r25, 0x00	; 0
     2a8:	2f e3       	ldi	r18, 0x3F	; 63
     2aa:	fc 01       	movw	r30, r24
     2ac:	20 83       	st	Z, r18
    DDRD = 0xFF;		// Port D auf Ausgang initialisieren (alle Pins)
     2ae:	8a e2       	ldi	r24, 0x2A	; 42
     2b0:	90 e0       	ldi	r25, 0x00	; 0
     2b2:	2f ef       	ldi	r18, 0xFF	; 255
     2b4:	fc 01       	movw	r30, r24
     2b6:	20 83       	st	Z, r18
    PORTD = 0x00;
     2b8:	8b e2       	ldi	r24, 0x2B	; 43
     2ba:	90 e0       	ldi	r25, 0x00	; 0
     2bc:	fc 01       	movw	r30, r24
     2be:	10 82       	st	Z, r1
    DDRE = 0xFF;		// Port E auf Ausgang initialisieren (alle Pins)
     2c0:	8d e2       	ldi	r24, 0x2D	; 45
     2c2:	90 e0       	ldi	r25, 0x00	; 0
     2c4:	2f ef       	ldi	r18, 0xFF	; 255
     2c6:	fc 01       	movw	r30, r24
     2c8:	20 83       	st	Z, r18
    PORTE = 0b00010000; //Setzt Clear der Häuser schieberegister auf 1
     2ca:	8e e2       	ldi	r24, 0x2E	; 46
     2cc:	90 e0       	ldi	r25, 0x00	; 0
     2ce:	20 e1       	ldi	r18, 0x10	; 16
     2d0:	fc 01       	movw	r30, r24
     2d2:	20 83       	st	Z, r18
    DDRF = 0xFE;		// Port F auf Ausgang initialisieren (alle Pins)
     2d4:	80 e3       	ldi	r24, 0x30	; 48
     2d6:	90 e0       	ldi	r25, 0x00	; 0
     2d8:	2e ef       	ldi	r18, 0xFE	; 254
     2da:	fc 01       	movw	r30, r24
     2dc:	20 83       	st	Z, r18
    DDRH = 0xFF;		// Port H auf Ausgang initialisieren (alle Pins)
     2de:	81 e0       	ldi	r24, 0x01	; 1
     2e0:	91 e0       	ldi	r25, 0x01	; 1
     2e2:	2f ef       	ldi	r18, 0xFF	; 255
     2e4:	fc 01       	movw	r30, r24
     2e6:	20 83       	st	Z, r18
    PORTH = 0x10;       //Setzt Clear der Siebensegmente schieberegister auf 1
     2e8:	82 e0       	ldi	r24, 0x02	; 2
     2ea:	91 e0       	ldi	r25, 0x01	; 1
     2ec:	20 e1       	ldi	r18, 0x10	; 16
     2ee:	fc 01       	movw	r30, r24
     2f0:	20 83       	st	Z, r18
    DDRJ = 0xFF;		// Port J auf Ausgang initialisieren (alle Pins)
     2f2:	84 e0       	ldi	r24, 0x04	; 4
     2f4:	91 e0       	ldi	r25, 0x01	; 1
     2f6:	2f ef       	ldi	r18, 0xFF	; 255
     2f8:	fc 01       	movw	r30, r24
     2fa:	20 83       	st	Z, r18
    PORTJ = 0x10;       //Setzt Clear der Würfel schieberegister auf 1
     2fc:	85 e0       	ldi	r24, 0x05	; 5
     2fe:	91 e0       	ldi	r25, 0x01	; 1
     300:	20 e1       	ldi	r18, 0x10	; 16
     302:	fc 01       	movw	r30, r24
     304:	20 83       	st	Z, r18
    DDRK = 0x00;		// Port K auf Eingang initialisieren (alle Pins)
     306:	87 e0       	ldi	r24, 0x07	; 7
     308:	91 e0       	ldi	r25, 0x01	; 1
     30a:	fc 01       	movw	r30, r24
     30c:	10 82       	st	Z, r1
    DDRL = 0x00;		// Port L auf Eingang initialisieren (alle Pins)
     30e:	8a e0       	ldi	r24, 0x0A	; 10
     310:	91 e0       	ldi	r25, 0x01	; 1
     312:	fc 01       	movw	r30, r24
     314:	10 82       	st	Z, r1
}
     316:	00 00       	nop
     318:	df 91       	pop	r29
     31a:	cf 91       	pop	r28
     31c:	08 95       	ret

0000031e <initSpieler>:
    uint16_t geld;         //Kontostand des Spielers
    uint8_t position;           //Position des spielers
} Spieler;

void initSpieler(Spieler spielerInfo[])
{
     31e:	cf 93       	push	r28
     320:	df 93       	push	r29
     322:	1f 92       	push	r1
     324:	1f 92       	push	r1
     326:	cd b7       	in	r28, 0x3d	; 61
     328:	de b7       	in	r29, 0x3e	; 62
     32a:	9a 83       	std	Y+2, r25	; 0x02
     32c:	89 83       	std	Y+1, r24	; 0x01
    //Eigenschaften Spieler 1
    strcpy(spielerInfo[1].name, "Spieler 1");
     32e:	89 81       	ldd	r24, Y+1	; 0x01
     330:	9a 81       	ldd	r25, Y+2	; 0x02
     332:	c5 96       	adiw	r24, 0x35	; 53
     334:	9c 01       	movw	r18, r24
     336:	8a e0       	ldi	r24, 0x0A	; 10
     338:	e7 e1       	ldi	r30, 0x17	; 23
     33a:	f2 e0       	ldi	r31, 0x02	; 2
     33c:	d9 01       	movw	r26, r18
     33e:	01 90       	ld	r0, Z+
     340:	0d 92       	st	X+, r0
     342:	8a 95       	dec	r24
     344:	e1 f7       	brne	.-8      	; 0x33e <initSpieler+0x20>
    spielerInfo[1].geld = 1500;
     346:	89 81       	ldd	r24, Y+1	; 0x01
     348:	9a 81       	ldd	r25, Y+2	; 0x02
     34a:	c5 96       	adiw	r24, 0x35	; 53
     34c:	2c ed       	ldi	r18, 0xDC	; 220
     34e:	35 e0       	ldi	r19, 0x05	; 5
     350:	fc 01       	movw	r30, r24
     352:	33 ab       	std	Z+51, r19	; 0x33
     354:	22 ab       	std	Z+50, r18	; 0x32
    spielerInfo[1].position = 0;
     356:	89 81       	ldd	r24, Y+1	; 0x01
     358:	9a 81       	ldd	r25, Y+2	; 0x02
     35a:	c5 96       	adiw	r24, 0x35	; 53
     35c:	fc 01       	movw	r30, r24
     35e:	14 aa       	std	Z+52, r1	; 0x34
    
    //Eigenschaften Spieler 2
    strcpy(spielerInfo[2].name, "Spieler 2");
     360:	89 81       	ldd	r24, Y+1	; 0x01
     362:	9a 81       	ldd	r25, Y+2	; 0x02
     364:	86 59       	subi	r24, 0x96	; 150
     366:	9f 4f       	sbci	r25, 0xFF	; 255
     368:	9c 01       	movw	r18, r24
     36a:	8a e0       	ldi	r24, 0x0A	; 10
     36c:	e1 e2       	ldi	r30, 0x21	; 33
     36e:	f2 e0       	ldi	r31, 0x02	; 2
     370:	d9 01       	movw	r26, r18
     372:	01 90       	ld	r0, Z+
     374:	0d 92       	st	X+, r0
     376:	8a 95       	dec	r24
     378:	e1 f7       	brne	.-8      	; 0x372 <initSpieler+0x54>
    spielerInfo[2].geld = 1500;
     37a:	89 81       	ldd	r24, Y+1	; 0x01
     37c:	9a 81       	ldd	r25, Y+2	; 0x02
     37e:	86 59       	subi	r24, 0x96	; 150
     380:	9f 4f       	sbci	r25, 0xFF	; 255
     382:	2c ed       	ldi	r18, 0xDC	; 220
     384:	35 e0       	ldi	r19, 0x05	; 5
     386:	fc 01       	movw	r30, r24
     388:	33 ab       	std	Z+51, r19	; 0x33
     38a:	22 ab       	std	Z+50, r18	; 0x32
    spielerInfo[2].position = 0;
     38c:	89 81       	ldd	r24, Y+1	; 0x01
     38e:	9a 81       	ldd	r25, Y+2	; 0x02
     390:	86 59       	subi	r24, 0x96	; 150
     392:	9f 4f       	sbci	r25, 0xFF	; 255
     394:	fc 01       	movw	r30, r24
     396:	14 aa       	std	Z+52, r1	; 0x34
    
    //Eigenschaften Spieler 3
    strcpy(spielerInfo[3].name, "Spieler 3");
     398:	89 81       	ldd	r24, Y+1	; 0x01
     39a:	9a 81       	ldd	r25, Y+2	; 0x02
     39c:	81 56       	subi	r24, 0x61	; 97
     39e:	9f 4f       	sbci	r25, 0xFF	; 255
     3a0:	9c 01       	movw	r18, r24
     3a2:	8a e0       	ldi	r24, 0x0A	; 10
     3a4:	eb e2       	ldi	r30, 0x2B	; 43
     3a6:	f2 e0       	ldi	r31, 0x02	; 2
     3a8:	d9 01       	movw	r26, r18
     3aa:	01 90       	ld	r0, Z+
     3ac:	0d 92       	st	X+, r0
     3ae:	8a 95       	dec	r24
     3b0:	e1 f7       	brne	.-8      	; 0x3aa <initSpieler+0x8c>
    spielerInfo[3].geld = 1500;
     3b2:	89 81       	ldd	r24, Y+1	; 0x01
     3b4:	9a 81       	ldd	r25, Y+2	; 0x02
     3b6:	81 56       	subi	r24, 0x61	; 97
     3b8:	9f 4f       	sbci	r25, 0xFF	; 255
     3ba:	2c ed       	ldi	r18, 0xDC	; 220
     3bc:	35 e0       	ldi	r19, 0x05	; 5
     3be:	fc 01       	movw	r30, r24
     3c0:	33 ab       	std	Z+51, r19	; 0x33
     3c2:	22 ab       	std	Z+50, r18	; 0x32
    spielerInfo[3].position = 0;
     3c4:	89 81       	ldd	r24, Y+1	; 0x01
     3c6:	9a 81       	ldd	r25, Y+2	; 0x02
     3c8:	81 56       	subi	r24, 0x61	; 97
     3ca:	9f 4f       	sbci	r25, 0xFF	; 255
     3cc:	fc 01       	movw	r30, r24
     3ce:	14 aa       	std	Z+52, r1	; 0x34
    
    //Eigenschaften Spieler 4
    strcpy(spielerInfo[4].name, "Spieler 4");
     3d0:	89 81       	ldd	r24, Y+1	; 0x01
     3d2:	9a 81       	ldd	r25, Y+2	; 0x02
     3d4:	8c 52       	subi	r24, 0x2C	; 44
     3d6:	9f 4f       	sbci	r25, 0xFF	; 255
     3d8:	9c 01       	movw	r18, r24
     3da:	8a e0       	ldi	r24, 0x0A	; 10
     3dc:	e5 e3       	ldi	r30, 0x35	; 53
     3de:	f2 e0       	ldi	r31, 0x02	; 2
     3e0:	d9 01       	movw	r26, r18
     3e2:	01 90       	ld	r0, Z+
     3e4:	0d 92       	st	X+, r0
     3e6:	8a 95       	dec	r24
     3e8:	e1 f7       	brne	.-8      	; 0x3e2 <initSpieler+0xc4>
    spielerInfo[4].geld = 1500;
     3ea:	89 81       	ldd	r24, Y+1	; 0x01
     3ec:	9a 81       	ldd	r25, Y+2	; 0x02
     3ee:	8c 52       	subi	r24, 0x2C	; 44
     3f0:	9f 4f       	sbci	r25, 0xFF	; 255
     3f2:	2c ed       	ldi	r18, 0xDC	; 220
     3f4:	35 e0       	ldi	r19, 0x05	; 5
     3f6:	fc 01       	movw	r30, r24
     3f8:	33 ab       	std	Z+51, r19	; 0x33
     3fa:	22 ab       	std	Z+50, r18	; 0x32
    spielerInfo[4].position = 0;
     3fc:	89 81       	ldd	r24, Y+1	; 0x01
     3fe:	9a 81       	ldd	r25, Y+2	; 0x02
     400:	8c 52       	subi	r24, 0x2C	; 44
     402:	9f 4f       	sbci	r25, 0xFF	; 255
     404:	fc 01       	movw	r30, r24
     406:	14 aa       	std	Z+52, r1	; 0x34
}
     408:	00 00       	nop
     40a:	0f 90       	pop	r0
     40c:	0f 90       	pop	r0
     40e:	df 91       	pop	r29
     410:	cf 91       	pop	r28
     412:	08 95       	ret

00000414 <initialisiereSpielfeld>:
    uint8_t anzahlHaeuser;
    uint8_t rgbNummer;
} Feld;

void initialisiereSpielfeld(Feld spielfeld[])
{
     414:	cf 93       	push	r28
     416:	df 93       	push	r29
     418:	1f 92       	push	r1
     41a:	1f 92       	push	r1
     41c:	cd b7       	in	r28, 0x3d	; 61
     41e:	de b7       	in	r29, 0x3e	; 62
     420:	9a 83       	std	Y+2, r25	; 0x02
     422:	89 83       	std	Y+1, r24	; 0x01
    //Eigenschaften des Feldes: Los
    strcpy(spielfeld[0].name, "Los");
     424:	89 81       	ldd	r24, Y+1	; 0x01
     426:	9a 81       	ldd	r25, Y+2	; 0x02
     428:	2c e4       	ldi	r18, 0x4C	; 76
     42a:	3f e6       	ldi	r19, 0x6F	; 111
     42c:	fc 01       	movw	r30, r24
     42e:	31 83       	std	Z+1, r19	; 0x01
     430:	20 83       	st	Z, r18
     432:	23 e7       	ldi	r18, 0x73	; 115
     434:	30 e0       	ldi	r19, 0x00	; 0
     436:	fc 01       	movw	r30, r24
     438:	33 83       	std	Z+3, r19	; 0x03
     43a:	22 83       	std	Z+2, r18	; 0x02
    spielfeld[0].typ = FREIPARKEN;
     43c:	89 81       	ldd	r24, Y+1	; 0x01
     43e:	9a 81       	ldd	r25, Y+2	; 0x02
     440:	23 e0       	ldi	r18, 0x03	; 3
     442:	fc 01       	movw	r30, r24
     444:	22 ab       	std	Z+50, r18	; 0x32



    //Eigenschaften des Feldes: Eingangshalle
    strcpy(spielfeld[1].name, "Eingangshalle");
     446:	89 81       	ldd	r24, Y+1	; 0x01
     448:	9a 81       	ldd	r25, Y+2	; 0x02
     44a:	cb 96       	adiw	r24, 0x3b	; 59
     44c:	9c 01       	movw	r18, r24
     44e:	8e e0       	ldi	r24, 0x0E	; 14
     450:	ef e3       	ldi	r30, 0x3F	; 63
     452:	f2 e0       	ldi	r31, 0x02	; 2
     454:	d9 01       	movw	r26, r18
     456:	01 90       	ld	r0, Z+
     458:	0d 92       	st	X+, r0
     45a:	8a 95       	dec	r24
     45c:	e1 f7       	brne	.-8      	; 0x456 <initialisiereSpielfeld+0x42>
    spielfeld[1].typ = STRASSE;
     45e:	89 81       	ldd	r24, Y+1	; 0x01
     460:	9a 81       	ldd	r25, Y+2	; 0x02
     462:	cb 96       	adiw	r24, 0x3b	; 59
     464:	fc 01       	movw	r30, r24
     466:	12 aa       	std	Z+50, r1	; 0x32
    spielfeld[1].preis = 60;
     468:	89 81       	ldd	r24, Y+1	; 0x01
     46a:	9a 81       	ldd	r25, Y+2	; 0x02
     46c:	cb 96       	adiw	r24, 0x3b	; 59
     46e:	2c e3       	ldi	r18, 0x3C	; 60
     470:	fc 01       	movw	r30, r24
     472:	23 ab       	std	Z+51, r18	; 0x33
    spielfeld[1].miete = 2;
     474:	89 81       	ldd	r24, Y+1	; 0x01
     476:	9a 81       	ldd	r25, Y+2	; 0x02
     478:	cb 96       	adiw	r24, 0x3b	; 59
     47a:	22 e0       	ldi	r18, 0x02	; 2
     47c:	30 e0       	ldi	r19, 0x00	; 0
     47e:	fc 01       	movw	r30, r24
     480:	35 ab       	std	Z+53, r19	; 0x35
     482:	24 ab       	std	Z+52, r18	; 0x34
    spielfeld[1].besitzer = 0;
     484:	89 81       	ldd	r24, Y+1	; 0x01
     486:	9a 81       	ldd	r25, Y+2	; 0x02
     488:	cb 96       	adiw	r24, 0x3b	; 59
     48a:	fc 01       	movw	r30, r24
     48c:	16 aa       	std	Z+54, r1	; 0x36
    spielfeld[1].farbGruppe = BRAUN;
     48e:	89 81       	ldd	r24, Y+1	; 0x01
     490:	9a 81       	ldd	r25, Y+2	; 0x02
     492:	cb 96       	adiw	r24, 0x3b	; 59
     494:	fc 01       	movw	r30, r24
     496:	17 aa       	std	Z+55, r1	; 0x37
    spielfeld[1].hausnummer = 0;
     498:	89 81       	ldd	r24, Y+1	; 0x01
     49a:	9a 81       	ldd	r25, Y+2	; 0x02
     49c:	cb 96       	adiw	r24, 0x3b	; 59
     49e:	fc 01       	movw	r30, r24
     4a0:	10 ae       	std	Z+56, r1	; 0x38
    spielfeld[1].anzahlHaeuser = 0;
     4a2:	89 81       	ldd	r24, Y+1	; 0x01
     4a4:	9a 81       	ldd	r25, Y+2	; 0x02
     4a6:	cb 96       	adiw	r24, 0x3b	; 59
     4a8:	fc 01       	movw	r30, r24
     4aa:	11 ae       	std	Z+57, r1	; 0x39
    spielfeld[1].rgbNummer = 0;
     4ac:	89 81       	ldd	r24, Y+1	; 0x01
     4ae:	9a 81       	ldd	r25, Y+2	; 0x02
     4b0:	cb 96       	adiw	r24, 0x3b	; 59
     4b2:	fc 01       	movw	r30, r24
     4b4:	12 ae       	std	Z+58, r1	; 0x3a
    
    //Eigenschaften des Feldes: Kanzlei
    strcpy(spielfeld[2].name, "Kanzlei1");
     4b6:	89 81       	ldd	r24, Y+1	; 0x01
     4b8:	9a 81       	ldd	r25, Y+2	; 0x02
     4ba:	8a 58       	subi	r24, 0x8A	; 138
     4bc:	9f 4f       	sbci	r25, 0xFF	; 255
     4be:	9c 01       	movw	r18, r24
     4c0:	89 e0       	ldi	r24, 0x09	; 9
     4c2:	ed e4       	ldi	r30, 0x4D	; 77
     4c4:	f2 e0       	ldi	r31, 0x02	; 2
     4c6:	d9 01       	movw	r26, r18
     4c8:	01 90       	ld	r0, Z+
     4ca:	0d 92       	st	X+, r0
     4cc:	8a 95       	dec	r24
     4ce:	e1 f7       	brne	.-8      	; 0x4c8 <initialisiereSpielfeld+0xb4>
    spielfeld[2].typ = EREIGNISFELD;
     4d0:	89 81       	ldd	r24, Y+1	; 0x01
     4d2:	9a 81       	ldd	r25, Y+2	; 0x02
     4d4:	8a 58       	subi	r24, 0x8A	; 138
     4d6:	9f 4f       	sbci	r25, 0xFF	; 255
     4d8:	21 e0       	ldi	r18, 0x01	; 1
     4da:	fc 01       	movw	r30, r24
     4dc:	22 ab       	std	Z+50, r18	; 0x32
    
    //Eigenschaften des Feldes: Velokeller
    strcpy(spielfeld[3].name, "Velokeller");
     4de:	89 81       	ldd	r24, Y+1	; 0x01
     4e0:	9a 81       	ldd	r25, Y+2	; 0x02
     4e2:	8f 54       	subi	r24, 0x4F	; 79
     4e4:	9f 4f       	sbci	r25, 0xFF	; 255
     4e6:	9c 01       	movw	r18, r24
     4e8:	8b e0       	ldi	r24, 0x0B	; 11
     4ea:	e6 e5       	ldi	r30, 0x56	; 86
     4ec:	f2 e0       	ldi	r31, 0x02	; 2
     4ee:	d9 01       	movw	r26, r18
     4f0:	01 90       	ld	r0, Z+
     4f2:	0d 92       	st	X+, r0
     4f4:	8a 95       	dec	r24
     4f6:	e1 f7       	brne	.-8      	; 0x4f0 <initialisiereSpielfeld+0xdc>
    spielfeld[3].typ = STRASSE;
     4f8:	89 81       	ldd	r24, Y+1	; 0x01
     4fa:	9a 81       	ldd	r25, Y+2	; 0x02
     4fc:	8f 54       	subi	r24, 0x4F	; 79
     4fe:	9f 4f       	sbci	r25, 0xFF	; 255
     500:	fc 01       	movw	r30, r24
     502:	12 aa       	std	Z+50, r1	; 0x32
    spielfeld[3].preis = 60;
     504:	89 81       	ldd	r24, Y+1	; 0x01
     506:	9a 81       	ldd	r25, Y+2	; 0x02
     508:	8f 54       	subi	r24, 0x4F	; 79
     50a:	9f 4f       	sbci	r25, 0xFF	; 255
     50c:	2c e3       	ldi	r18, 0x3C	; 60
     50e:	fc 01       	movw	r30, r24
     510:	23 ab       	std	Z+51, r18	; 0x33
    spielfeld[3].miete = 2;
     512:	89 81       	ldd	r24, Y+1	; 0x01
     514:	9a 81       	ldd	r25, Y+2	; 0x02
     516:	8f 54       	subi	r24, 0x4F	; 79
     518:	9f 4f       	sbci	r25, 0xFF	; 255
     51a:	22 e0       	ldi	r18, 0x02	; 2
     51c:	30 e0       	ldi	r19, 0x00	; 0
     51e:	fc 01       	movw	r30, r24
     520:	35 ab       	std	Z+53, r19	; 0x35
     522:	24 ab       	std	Z+52, r18	; 0x34
    spielfeld[3].besitzer = 0;
     524:	89 81       	ldd	r24, Y+1	; 0x01
     526:	9a 81       	ldd	r25, Y+2	; 0x02
     528:	8f 54       	subi	r24, 0x4F	; 79
     52a:	9f 4f       	sbci	r25, 0xFF	; 255
     52c:	fc 01       	movw	r30, r24
     52e:	16 aa       	std	Z+54, r1	; 0x36
    spielfeld[3].farbGruppe = BRAUN;
     530:	89 81       	ldd	r24, Y+1	; 0x01
     532:	9a 81       	ldd	r25, Y+2	; 0x02
     534:	8f 54       	subi	r24, 0x4F	; 79
     536:	9f 4f       	sbci	r25, 0xFF	; 255
     538:	fc 01       	movw	r30, r24
     53a:	17 aa       	std	Z+55, r1	; 0x37
    spielfeld[3].hausnummer = 1;
     53c:	89 81       	ldd	r24, Y+1	; 0x01
     53e:	9a 81       	ldd	r25, Y+2	; 0x02
     540:	8f 54       	subi	r24, 0x4F	; 79
     542:	9f 4f       	sbci	r25, 0xFF	; 255
     544:	21 e0       	ldi	r18, 0x01	; 1
     546:	fc 01       	movw	r30, r24
     548:	20 af       	std	Z+56, r18	; 0x38
    spielfeld[3].anzahlHaeuser = 0;
     54a:	89 81       	ldd	r24, Y+1	; 0x01
     54c:	9a 81       	ldd	r25, Y+2	; 0x02
     54e:	8f 54       	subi	r24, 0x4F	; 79
     550:	9f 4f       	sbci	r25, 0xFF	; 255
     552:	fc 01       	movw	r30, r24
     554:	11 ae       	std	Z+57, r1	; 0x39
    spielfeld[3].rgbNummer = 1;
     556:	89 81       	ldd	r24, Y+1	; 0x01
     558:	9a 81       	ldd	r25, Y+2	; 0x02
     55a:	8f 54       	subi	r24, 0x4F	; 79
     55c:	9f 4f       	sbci	r25, 0xFF	; 255
     55e:	21 e0       	ldi	r18, 0x01	; 1
     560:	fc 01       	movw	r30, r24
     562:	22 af       	std	Z+58, r18	; 0x3a
    
    //Eigenschaften des Feldes: Laptopgebühr
    strcpy(spielfeld[4].name, "Laptopgebuehr");
     564:	89 81       	ldd	r24, Y+1	; 0x01
     566:	9a 81       	ldd	r25, Y+2	; 0x02
     568:	84 51       	subi	r24, 0x14	; 20
     56a:	9f 4f       	sbci	r25, 0xFF	; 255
     56c:	9c 01       	movw	r18, r24
     56e:	8e e0       	ldi	r24, 0x0E	; 14
     570:	e1 e6       	ldi	r30, 0x61	; 97
     572:	f2 e0       	ldi	r31, 0x02	; 2
     574:	d9 01       	movw	r26, r18
     576:	01 90       	ld	r0, Z+
     578:	0d 92       	st	X+, r0
     57a:	8a 95       	dec	r24
     57c:	e1 f7       	brne	.-8      	; 0x576 <initialisiereSpielfeld+0x162>
    spielfeld[4].typ = STEUERFELD;
     57e:	89 81       	ldd	r24, Y+1	; 0x01
     580:	9a 81       	ldd	r25, Y+2	; 0x02
     582:	84 51       	subi	r24, 0x14	; 20
     584:	9f 4f       	sbci	r25, 0xFF	; 255
     586:	22 e0       	ldi	r18, 0x02	; 2
     588:	fc 01       	movw	r30, r24
     58a:	22 ab       	std	Z+50, r18	; 0x32
    spielfeld[4].preis = 200;
     58c:	89 81       	ldd	r24, Y+1	; 0x01
     58e:	9a 81       	ldd	r25, Y+2	; 0x02
     590:	84 51       	subi	r24, 0x14	; 20
     592:	9f 4f       	sbci	r25, 0xFF	; 255
     594:	28 ec       	ldi	r18, 0xC8	; 200
     596:	fc 01       	movw	r30, r24
     598:	23 ab       	std	Z+51, r18	; 0x33
    
    //Eigenschaften des Feldes: Zeughausstrasse
    strcpy(spielfeld[4].name, "Zeughausstrasse");
     59a:	89 81       	ldd	r24, Y+1	; 0x01
     59c:	9a 81       	ldd	r25, Y+2	; 0x02
     59e:	84 51       	subi	r24, 0x14	; 20
     5a0:	9f 4f       	sbci	r25, 0xFF	; 255
     5a2:	9c 01       	movw	r18, r24
     5a4:	80 e1       	ldi	r24, 0x10	; 16
     5a6:	ef e6       	ldi	r30, 0x6F	; 111
     5a8:	f2 e0       	ldi	r31, 0x02	; 2
     5aa:	d9 01       	movw	r26, r18
     5ac:	01 90       	ld	r0, Z+
     5ae:	0d 92       	st	X+, r0
     5b0:	8a 95       	dec	r24
     5b2:	e1 f7       	brne	.-8      	; 0x5ac <initialisiereSpielfeld+0x198>
    spielfeld[5].typ = HALTESTELLE;
     5b4:	89 81       	ldd	r24, Y+1	; 0x01
     5b6:	9a 81       	ldd	r25, Y+2	; 0x02
     5b8:	89 5d       	subi	r24, 0xD9	; 217
     5ba:	9e 4f       	sbci	r25, 0xFE	; 254
     5bc:	27 e0       	ldi	r18, 0x07	; 7
     5be:	fc 01       	movw	r30, r24
     5c0:	22 ab       	std	Z+50, r18	; 0x32
    spielfeld[5].preis = 200;
     5c2:	89 81       	ldd	r24, Y+1	; 0x01
     5c4:	9a 81       	ldd	r25, Y+2	; 0x02
     5c6:	89 5d       	subi	r24, 0xD9	; 217
     5c8:	9e 4f       	sbci	r25, 0xFE	; 254
     5ca:	28 ec       	ldi	r18, 0xC8	; 200
     5cc:	fc 01       	movw	r30, r24
     5ce:	23 ab       	std	Z+51, r18	; 0x33
    spielfeld[5].miete = 200;
     5d0:	89 81       	ldd	r24, Y+1	; 0x01
     5d2:	9a 81       	ldd	r25, Y+2	; 0x02
     5d4:	89 5d       	subi	r24, 0xD9	; 217
     5d6:	9e 4f       	sbci	r25, 0xFE	; 254
     5d8:	28 ec       	ldi	r18, 0xC8	; 200
     5da:	30 e0       	ldi	r19, 0x00	; 0
     5dc:	fc 01       	movw	r30, r24
     5de:	35 ab       	std	Z+53, r19	; 0x35
     5e0:	24 ab       	std	Z+52, r18	; 0x34
    spielfeld[5].besitzer = 0;
     5e2:	89 81       	ldd	r24, Y+1	; 0x01
     5e4:	9a 81       	ldd	r25, Y+2	; 0x02
     5e6:	89 5d       	subi	r24, 0xD9	; 217
     5e8:	9e 4f       	sbci	r25, 0xFE	; 254
     5ea:	fc 01       	movw	r30, r24
     5ec:	16 aa       	std	Z+54, r1	; 0x36
    spielfeld[5].farbGruppe = FARBLOS;
     5ee:	89 81       	ldd	r24, Y+1	; 0x01
     5f0:	9a 81       	ldd	r25, Y+2	; 0x02
     5f2:	89 5d       	subi	r24, 0xD9	; 217
     5f4:	9e 4f       	sbci	r25, 0xFE	; 254
     5f6:	28 e0       	ldi	r18, 0x08	; 8
     5f8:	fc 01       	movw	r30, r24
     5fa:	27 ab       	std	Z+55, r18	; 0x37
    spielfeld[5].rgbNummer = 2;
     5fc:	89 81       	ldd	r24, Y+1	; 0x01
     5fe:	9a 81       	ldd	r25, Y+2	; 0x02
     600:	89 5d       	subi	r24, 0xD9	; 217
     602:	9e 4f       	sbci	r25, 0xFE	; 254
     604:	22 e0       	ldi	r18, 0x02	; 2
     606:	fc 01       	movw	r30, r24
     608:	22 af       	std	Z+58, r18	; 0x3a
    
    //Eigenschaften des Feldes: Raucherzelt
    strcpy(spielfeld[3].name, "Raucherzelt");
     60a:	89 81       	ldd	r24, Y+1	; 0x01
     60c:	9a 81       	ldd	r25, Y+2	; 0x02
     60e:	8f 54       	subi	r24, 0x4F	; 79
     610:	9f 4f       	sbci	r25, 0xFF	; 255
     612:	9c 01       	movw	r18, r24
     614:	8c e0       	ldi	r24, 0x0C	; 12
     616:	ef e7       	ldi	r30, 0x7F	; 127
     618:	f2 e0       	ldi	r31, 0x02	; 2
     61a:	d9 01       	movw	r26, r18
     61c:	01 90       	ld	r0, Z+
     61e:	0d 92       	st	X+, r0
     620:	8a 95       	dec	r24
     622:	e1 f7       	brne	.-8      	; 0x61c <initialisiereSpielfeld+0x208>
    spielfeld[6].typ = STRASSE;
     624:	89 81       	ldd	r24, Y+1	; 0x01
     626:	9a 81       	ldd	r25, Y+2	; 0x02
     628:	8e 59       	subi	r24, 0x9E	; 158
     62a:	9e 4f       	sbci	r25, 0xFE	; 254
     62c:	fc 01       	movw	r30, r24
     62e:	12 aa       	std	Z+50, r1	; 0x32
    spielfeld[6].preis = 100;
     630:	89 81       	ldd	r24, Y+1	; 0x01
     632:	9a 81       	ldd	r25, Y+2	; 0x02
     634:	8e 59       	subi	r24, 0x9E	; 158
     636:	9e 4f       	sbci	r25, 0xFE	; 254
     638:	24 e6       	ldi	r18, 0x64	; 100
     63a:	fc 01       	movw	r30, r24
     63c:	23 ab       	std	Z+51, r18	; 0x33
    spielfeld[6].miete = 2;
     63e:	89 81       	ldd	r24, Y+1	; 0x01
     640:	9a 81       	ldd	r25, Y+2	; 0x02
     642:	8e 59       	subi	r24, 0x9E	; 158
     644:	9e 4f       	sbci	r25, 0xFE	; 254
     646:	22 e0       	ldi	r18, 0x02	; 2
     648:	30 e0       	ldi	r19, 0x00	; 0
     64a:	fc 01       	movw	r30, r24
     64c:	35 ab       	std	Z+53, r19	; 0x35
     64e:	24 ab       	std	Z+52, r18	; 0x34
    spielfeld[6].besitzer = 0;
     650:	89 81       	ldd	r24, Y+1	; 0x01
     652:	9a 81       	ldd	r25, Y+2	; 0x02
     654:	8e 59       	subi	r24, 0x9E	; 158
     656:	9e 4f       	sbci	r25, 0xFE	; 254
     658:	fc 01       	movw	r30, r24
     65a:	16 aa       	std	Z+54, r1	; 0x36
    spielfeld[6].farbGruppe = HELLBLAU;
     65c:	89 81       	ldd	r24, Y+1	; 0x01
     65e:	9a 81       	ldd	r25, Y+2	; 0x02
     660:	8e 59       	subi	r24, 0x9E	; 158
     662:	9e 4f       	sbci	r25, 0xFE	; 254
     664:	21 e0       	ldi	r18, 0x01	; 1
     666:	fc 01       	movw	r30, r24
     668:	27 ab       	std	Z+55, r18	; 0x37
    spielfeld[6].hausnummer = 2;
     66a:	89 81       	ldd	r24, Y+1	; 0x01
     66c:	9a 81       	ldd	r25, Y+2	; 0x02
     66e:	8e 59       	subi	r24, 0x9E	; 158
     670:	9e 4f       	sbci	r25, 0xFE	; 254
     672:	22 e0       	ldi	r18, 0x02	; 2
     674:	fc 01       	movw	r30, r24
     676:	20 af       	std	Z+56, r18	; 0x38
    spielfeld[6].anzahlHaeuser = 0;
     678:	89 81       	ldd	r24, Y+1	; 0x01
     67a:	9a 81       	ldd	r25, Y+2	; 0x02
     67c:	8e 59       	subi	r24, 0x9E	; 158
     67e:	9e 4f       	sbci	r25, 0xFE	; 254
     680:	fc 01       	movw	r30, r24
     682:	11 ae       	std	Z+57, r1	; 0x39
    spielfeld[6].rgbNummer = 3;
     684:	89 81       	ldd	r24, Y+1	; 0x01
     686:	9a 81       	ldd	r25, Y+2	; 0x02
     688:	8e 59       	subi	r24, 0x9E	; 158
     68a:	9e 4f       	sbci	r25, 0xFE	; 254
     68c:	23 e0       	ldi	r18, 0x03	; 3
     68e:	fc 01       	movw	r30, r24
     690:	22 af       	std	Z+58, r18	; 0x3a
    
    //Eigenschaften des Feldes: Chance1
    strcpy(spielfeld[7].name, "Chance1");
     692:	89 81       	ldd	r24, Y+1	; 0x01
     694:	9a 81       	ldd	r25, Y+2	; 0x02
     696:	83 56       	subi	r24, 0x63	; 99
     698:	9e 4f       	sbci	r25, 0xFE	; 254
     69a:	9c 01       	movw	r18, r24
     69c:	88 e0       	ldi	r24, 0x08	; 8
     69e:	eb e8       	ldi	r30, 0x8B	; 139
     6a0:	f2 e0       	ldi	r31, 0x02	; 2
     6a2:	d9 01       	movw	r26, r18
     6a4:	01 90       	ld	r0, Z+
     6a6:	0d 92       	st	X+, r0
     6a8:	8a 95       	dec	r24
     6aa:	e1 f7       	brne	.-8      	; 0x6a4 <initialisiereSpielfeld+0x290>
    spielfeld[7].typ = EREIGNISFELD;
     6ac:	89 81       	ldd	r24, Y+1	; 0x01
     6ae:	9a 81       	ldd	r25, Y+2	; 0x02
     6b0:	83 56       	subi	r24, 0x63	; 99
     6b2:	9e 4f       	sbci	r25, 0xFE	; 254
     6b4:	21 e0       	ldi	r18, 0x01	; 1
     6b6:	fc 01       	movw	r30, r24
     6b8:	22 ab       	std	Z+50, r18	; 0x32
    
    //Eigenschaften des Feldes: Pausenraum
    strcpy(spielfeld[8].name, "Pausenraum");
     6ba:	89 81       	ldd	r24, Y+1	; 0x01
     6bc:	9a 81       	ldd	r25, Y+2	; 0x02
     6be:	88 52       	subi	r24, 0x28	; 40
     6c0:	9e 4f       	sbci	r25, 0xFE	; 254
     6c2:	9c 01       	movw	r18, r24
     6c4:	8b e0       	ldi	r24, 0x0B	; 11
     6c6:	e3 e9       	ldi	r30, 0x93	; 147
     6c8:	f2 e0       	ldi	r31, 0x02	; 2
     6ca:	d9 01       	movw	r26, r18
     6cc:	01 90       	ld	r0, Z+
     6ce:	0d 92       	st	X+, r0
     6d0:	8a 95       	dec	r24
     6d2:	e1 f7       	brne	.-8      	; 0x6cc <initialisiereSpielfeld+0x2b8>
    spielfeld[8].typ = STRASSE;
     6d4:	89 81       	ldd	r24, Y+1	; 0x01
     6d6:	9a 81       	ldd	r25, Y+2	; 0x02
     6d8:	88 52       	subi	r24, 0x28	; 40
     6da:	9e 4f       	sbci	r25, 0xFE	; 254
     6dc:	fc 01       	movw	r30, r24
     6de:	12 aa       	std	Z+50, r1	; 0x32
    spielfeld[8].preis = 100;
     6e0:	89 81       	ldd	r24, Y+1	; 0x01
     6e2:	9a 81       	ldd	r25, Y+2	; 0x02
     6e4:	88 52       	subi	r24, 0x28	; 40
     6e6:	9e 4f       	sbci	r25, 0xFE	; 254
     6e8:	24 e6       	ldi	r18, 0x64	; 100
     6ea:	fc 01       	movw	r30, r24
     6ec:	23 ab       	std	Z+51, r18	; 0x33
    spielfeld[8].miete = 2;
     6ee:	89 81       	ldd	r24, Y+1	; 0x01
     6f0:	9a 81       	ldd	r25, Y+2	; 0x02
     6f2:	88 52       	subi	r24, 0x28	; 40
     6f4:	9e 4f       	sbci	r25, 0xFE	; 254
     6f6:	22 e0       	ldi	r18, 0x02	; 2
     6f8:	30 e0       	ldi	r19, 0x00	; 0
     6fa:	fc 01       	movw	r30, r24
     6fc:	35 ab       	std	Z+53, r19	; 0x35
     6fe:	24 ab       	std	Z+52, r18	; 0x34
    spielfeld[8].besitzer = 0;
     700:	89 81       	ldd	r24, Y+1	; 0x01
     702:	9a 81       	ldd	r25, Y+2	; 0x02
     704:	88 52       	subi	r24, 0x28	; 40
     706:	9e 4f       	sbci	r25, 0xFE	; 254
     708:	fc 01       	movw	r30, r24
     70a:	16 aa       	std	Z+54, r1	; 0x36
    spielfeld[8].farbGruppe = HELLBLAU;
     70c:	89 81       	ldd	r24, Y+1	; 0x01
     70e:	9a 81       	ldd	r25, Y+2	; 0x02
     710:	88 52       	subi	r24, 0x28	; 40
     712:	9e 4f       	sbci	r25, 0xFE	; 254
     714:	21 e0       	ldi	r18, 0x01	; 1
     716:	fc 01       	movw	r30, r24
     718:	27 ab       	std	Z+55, r18	; 0x37
    spielfeld[8].hausnummer = 3;
     71a:	89 81       	ldd	r24, Y+1	; 0x01
     71c:	9a 81       	ldd	r25, Y+2	; 0x02
     71e:	88 52       	subi	r24, 0x28	; 40
     720:	9e 4f       	sbci	r25, 0xFE	; 254
     722:	23 e0       	ldi	r18, 0x03	; 3
     724:	fc 01       	movw	r30, r24
     726:	20 af       	std	Z+56, r18	; 0x38
    spielfeld[8].anzahlHaeuser = 0;
     728:	89 81       	ldd	r24, Y+1	; 0x01
     72a:	9a 81       	ldd	r25, Y+2	; 0x02
     72c:	88 52       	subi	r24, 0x28	; 40
     72e:	9e 4f       	sbci	r25, 0xFE	; 254
     730:	fc 01       	movw	r30, r24
     732:	11 ae       	std	Z+57, r1	; 0x39
    spielfeld[8].rgbNummer = 4;
     734:	89 81       	ldd	r24, Y+1	; 0x01
     736:	9a 81       	ldd	r25, Y+2	; 0x02
     738:	88 52       	subi	r24, 0x28	; 40
     73a:	9e 4f       	sbci	r25, 0xFE	; 254
     73c:	24 e0       	ldi	r18, 0x04	; 4
     73e:	fc 01       	movw	r30, r24
     740:	22 af       	std	Z+58, r18	; 0x3a
    
    //Eigenschaften des Feldes: Garderobe
    strcpy(spielfeld[9].name, "Garderobe");
     742:	89 81       	ldd	r24, Y+1	; 0x01
     744:	9a 81       	ldd	r25, Y+2	; 0x02
     746:	8d 5e       	subi	r24, 0xED	; 237
     748:	9d 4f       	sbci	r25, 0xFD	; 253
     74a:	9c 01       	movw	r18, r24
     74c:	8a e0       	ldi	r24, 0x0A	; 10
     74e:	ee e9       	ldi	r30, 0x9E	; 158
     750:	f2 e0       	ldi	r31, 0x02	; 2
     752:	d9 01       	movw	r26, r18
     754:	01 90       	ld	r0, Z+
     756:	0d 92       	st	X+, r0
     758:	8a 95       	dec	r24
     75a:	e1 f7       	brne	.-8      	; 0x754 <initialisiereSpielfeld+0x340>
    spielfeld[9].typ = STRASSE;
     75c:	89 81       	ldd	r24, Y+1	; 0x01
     75e:	9a 81       	ldd	r25, Y+2	; 0x02
     760:	8d 5e       	subi	r24, 0xED	; 237
     762:	9d 4f       	sbci	r25, 0xFD	; 253
     764:	fc 01       	movw	r30, r24
     766:	12 aa       	std	Z+50, r1	; 0x32
    spielfeld[9].preis = 120;
     768:	89 81       	ldd	r24, Y+1	; 0x01
     76a:	9a 81       	ldd	r25, Y+2	; 0x02
     76c:	8d 5e       	subi	r24, 0xED	; 237
     76e:	9d 4f       	sbci	r25, 0xFD	; 253
     770:	28 e7       	ldi	r18, 0x78	; 120
     772:	fc 01       	movw	r30, r24
     774:	23 ab       	std	Z+51, r18	; 0x33
    spielfeld[9].miete = 2;
     776:	89 81       	ldd	r24, Y+1	; 0x01
     778:	9a 81       	ldd	r25, Y+2	; 0x02
     77a:	8d 5e       	subi	r24, 0xED	; 237
     77c:	9d 4f       	sbci	r25, 0xFD	; 253
     77e:	22 e0       	ldi	r18, 0x02	; 2
     780:	30 e0       	ldi	r19, 0x00	; 0
     782:	fc 01       	movw	r30, r24
     784:	35 ab       	std	Z+53, r19	; 0x35
     786:	24 ab       	std	Z+52, r18	; 0x34
    spielfeld[9].besitzer = 0;
     788:	89 81       	ldd	r24, Y+1	; 0x01
     78a:	9a 81       	ldd	r25, Y+2	; 0x02
     78c:	8d 5e       	subi	r24, 0xED	; 237
     78e:	9d 4f       	sbci	r25, 0xFD	; 253
     790:	fc 01       	movw	r30, r24
     792:	16 aa       	std	Z+54, r1	; 0x36
    spielfeld[9].farbGruppe = HELLBLAU;
     794:	89 81       	ldd	r24, Y+1	; 0x01
     796:	9a 81       	ldd	r25, Y+2	; 0x02
     798:	8d 5e       	subi	r24, 0xED	; 237
     79a:	9d 4f       	sbci	r25, 0xFD	; 253
     79c:	21 e0       	ldi	r18, 0x01	; 1
     79e:	fc 01       	movw	r30, r24
     7a0:	27 ab       	std	Z+55, r18	; 0x37
    spielfeld[9].hausnummer = 4;
     7a2:	89 81       	ldd	r24, Y+1	; 0x01
     7a4:	9a 81       	ldd	r25, Y+2	; 0x02
     7a6:	8d 5e       	subi	r24, 0xED	; 237
     7a8:	9d 4f       	sbci	r25, 0xFD	; 253
     7aa:	24 e0       	ldi	r18, 0x04	; 4
     7ac:	fc 01       	movw	r30, r24
     7ae:	20 af       	std	Z+56, r18	; 0x38
    spielfeld[9].anzahlHaeuser = 0;
     7b0:	89 81       	ldd	r24, Y+1	; 0x01
     7b2:	9a 81       	ldd	r25, Y+2	; 0x02
     7b4:	8d 5e       	subi	r24, 0xED	; 237
     7b6:	9d 4f       	sbci	r25, 0xFD	; 253
     7b8:	fc 01       	movw	r30, r24
     7ba:	11 ae       	std	Z+57, r1	; 0x39
    spielfeld[9].rgbNummer = 5;
     7bc:	89 81       	ldd	r24, Y+1	; 0x01
     7be:	9a 81       	ldd	r25, Y+2	; 0x02
     7c0:	8d 5e       	subi	r24, 0xED	; 237
     7c2:	9d 4f       	sbci	r25, 0xFD	; 253
     7c4:	25 e0       	ldi	r18, 0x05	; 5
     7c6:	fc 01       	movw	r30, r24
     7c8:	22 af       	std	Z+58, r18	; 0x3a
    
    //Eigenschaften des Feldes: Gefängnis
    strcpy(spielfeld[10].name, "Gefaengnis");
     7ca:	89 81       	ldd	r24, Y+1	; 0x01
     7cc:	9a 81       	ldd	r25, Y+2	; 0x02
     7ce:	82 5b       	subi	r24, 0xB2	; 178
     7d0:	9d 4f       	sbci	r25, 0xFD	; 253
     7d2:	9c 01       	movw	r18, r24
     7d4:	8b e0       	ldi	r24, 0x0B	; 11
     7d6:	e8 ea       	ldi	r30, 0xA8	; 168
     7d8:	f2 e0       	ldi	r31, 0x02	; 2
     7da:	d9 01       	movw	r26, r18
     7dc:	01 90       	ld	r0, Z+
     7de:	0d 92       	st	X+, r0
     7e0:	8a 95       	dec	r24
     7e2:	e1 f7       	brne	.-8      	; 0x7dc <initialisiereSpielfeld+0x3c8>
    spielfeld[10].typ = GEFAENGNIS;
     7e4:	89 81       	ldd	r24, Y+1	; 0x01
     7e6:	9a 81       	ldd	r25, Y+2	; 0x02
     7e8:	82 5b       	subi	r24, 0xB2	; 178
     7ea:	9d 4f       	sbci	r25, 0xFD	; 253
     7ec:	24 e0       	ldi	r18, 0x04	; 4
     7ee:	fc 01       	movw	r30, r24
     7f0:	22 ab       	std	Z+50, r18	; 0x32
    
    
    
    
    //Eigenschaften des Feldes: Herren Wc
    strcpy(spielfeld[11].name, "Herren WC");
     7f2:	89 81       	ldd	r24, Y+1	; 0x01
     7f4:	9a 81       	ldd	r25, Y+2	; 0x02
     7f6:	87 57       	subi	r24, 0x77	; 119
     7f8:	9d 4f       	sbci	r25, 0xFD	; 253
     7fa:	9c 01       	movw	r18, r24
     7fc:	8a e0       	ldi	r24, 0x0A	; 10
     7fe:	e3 eb       	ldi	r30, 0xB3	; 179
     800:	f2 e0       	ldi	r31, 0x02	; 2
     802:	d9 01       	movw	r26, r18
     804:	01 90       	ld	r0, Z+
     806:	0d 92       	st	X+, r0
     808:	8a 95       	dec	r24
     80a:	e1 f7       	brne	.-8      	; 0x804 <initialisiereSpielfeld+0x3f0>
    spielfeld[11].typ = STRASSE;
     80c:	89 81       	ldd	r24, Y+1	; 0x01
     80e:	9a 81       	ldd	r25, Y+2	; 0x02
     810:	87 57       	subi	r24, 0x77	; 119
     812:	9d 4f       	sbci	r25, 0xFD	; 253
     814:	fc 01       	movw	r30, r24
     816:	12 aa       	std	Z+50, r1	; 0x32
    spielfeld[11].preis = 140;
     818:	89 81       	ldd	r24, Y+1	; 0x01
     81a:	9a 81       	ldd	r25, Y+2	; 0x02
     81c:	87 57       	subi	r24, 0x77	; 119
     81e:	9d 4f       	sbci	r25, 0xFD	; 253
     820:	2c e8       	ldi	r18, 0x8C	; 140
     822:	fc 01       	movw	r30, r24
     824:	23 ab       	std	Z+51, r18	; 0x33
    spielfeld[11].miete = 2;
     826:	89 81       	ldd	r24, Y+1	; 0x01
     828:	9a 81       	ldd	r25, Y+2	; 0x02
     82a:	87 57       	subi	r24, 0x77	; 119
     82c:	9d 4f       	sbci	r25, 0xFD	; 253
     82e:	22 e0       	ldi	r18, 0x02	; 2
     830:	30 e0       	ldi	r19, 0x00	; 0
     832:	fc 01       	movw	r30, r24
     834:	35 ab       	std	Z+53, r19	; 0x35
     836:	24 ab       	std	Z+52, r18	; 0x34
    spielfeld[11].besitzer = 0;
     838:	89 81       	ldd	r24, Y+1	; 0x01
     83a:	9a 81       	ldd	r25, Y+2	; 0x02
     83c:	87 57       	subi	r24, 0x77	; 119
     83e:	9d 4f       	sbci	r25, 0xFD	; 253
     840:	fc 01       	movw	r30, r24
     842:	16 aa       	std	Z+54, r1	; 0x36
    spielfeld[11].farbGruppe = ROSA;
     844:	89 81       	ldd	r24, Y+1	; 0x01
     846:	9a 81       	ldd	r25, Y+2	; 0x02
     848:	87 57       	subi	r24, 0x77	; 119
     84a:	9d 4f       	sbci	r25, 0xFD	; 253
     84c:	22 e0       	ldi	r18, 0x02	; 2
     84e:	fc 01       	movw	r30, r24
     850:	27 ab       	std	Z+55, r18	; 0x37
    spielfeld[11].hausnummer = 5;
     852:	89 81       	ldd	r24, Y+1	; 0x01
     854:	9a 81       	ldd	r25, Y+2	; 0x02
     856:	87 57       	subi	r24, 0x77	; 119
     858:	9d 4f       	sbci	r25, 0xFD	; 253
     85a:	25 e0       	ldi	r18, 0x05	; 5
     85c:	fc 01       	movw	r30, r24
     85e:	20 af       	std	Z+56, r18	; 0x38
    spielfeld[11].anzahlHaeuser = 0;
     860:	89 81       	ldd	r24, Y+1	; 0x01
     862:	9a 81       	ldd	r25, Y+2	; 0x02
     864:	87 57       	subi	r24, 0x77	; 119
     866:	9d 4f       	sbci	r25, 0xFD	; 253
     868:	fc 01       	movw	r30, r24
     86a:	11 ae       	std	Z+57, r1	; 0x39
    spielfeld[11].rgbNummer = 6;
     86c:	89 81       	ldd	r24, Y+1	; 0x01
     86e:	9a 81       	ldd	r25, Y+2	; 0x02
     870:	87 57       	subi	r24, 0x77	; 119
     872:	9d 4f       	sbci	r25, 0xFD	; 253
     874:	26 e0       	ldi	r18, 0x06	; 6
     876:	fc 01       	movw	r30, r24
     878:	22 af       	std	Z+58, r18	; 0x3a
    
    //Eigenschaften des Feldes: Informatikdienst
    strcpy(spielfeld[11].name, "Informatikdienst");
     87a:	89 81       	ldd	r24, Y+1	; 0x01
     87c:	9a 81       	ldd	r25, Y+2	; 0x02
     87e:	87 57       	subi	r24, 0x77	; 119
     880:	9d 4f       	sbci	r25, 0xFD	; 253
     882:	9c 01       	movw	r18, r24
     884:	81 e1       	ldi	r24, 0x11	; 17
     886:	ed eb       	ldi	r30, 0xBD	; 189
     888:	f2 e0       	ldi	r31, 0x02	; 2
     88a:	d9 01       	movw	r26, r18
     88c:	01 90       	ld	r0, Z+
     88e:	0d 92       	st	X+, r0
     890:	8a 95       	dec	r24
     892:	e1 f7       	brne	.-8      	; 0x88c <initialisiereSpielfeld+0x478>
    spielfeld[12].typ = WERK;
     894:	89 81       	ldd	r24, Y+1	; 0x01
     896:	9a 81       	ldd	r25, Y+2	; 0x02
     898:	8c 53       	subi	r24, 0x3C	; 60
     89a:	9d 4f       	sbci	r25, 0xFD	; 253
     89c:	26 e0       	ldi	r18, 0x06	; 6
     89e:	fc 01       	movw	r30, r24
     8a0:	22 ab       	std	Z+50, r18	; 0x32
    spielfeld[12].preis = 150;
     8a2:	89 81       	ldd	r24, Y+1	; 0x01
     8a4:	9a 81       	ldd	r25, Y+2	; 0x02
     8a6:	8c 53       	subi	r24, 0x3C	; 60
     8a8:	9d 4f       	sbci	r25, 0xFD	; 253
     8aa:	26 e9       	ldi	r18, 0x96	; 150
     8ac:	fc 01       	movw	r30, r24
     8ae:	23 ab       	std	Z+51, r18	; 0x33
    spielfeld[12].miete = 2;
     8b0:	89 81       	ldd	r24, Y+1	; 0x01
     8b2:	9a 81       	ldd	r25, Y+2	; 0x02
     8b4:	8c 53       	subi	r24, 0x3C	; 60
     8b6:	9d 4f       	sbci	r25, 0xFD	; 253
     8b8:	22 e0       	ldi	r18, 0x02	; 2
     8ba:	30 e0       	ldi	r19, 0x00	; 0
     8bc:	fc 01       	movw	r30, r24
     8be:	35 ab       	std	Z+53, r19	; 0x35
     8c0:	24 ab       	std	Z+52, r18	; 0x34
    spielfeld[12].besitzer = 0;
     8c2:	89 81       	ldd	r24, Y+1	; 0x01
     8c4:	9a 81       	ldd	r25, Y+2	; 0x02
     8c6:	8c 53       	subi	r24, 0x3C	; 60
     8c8:	9d 4f       	sbci	r25, 0xFD	; 253
     8ca:	fc 01       	movw	r30, r24
     8cc:	16 aa       	std	Z+54, r1	; 0x36
    spielfeld[12].farbGruppe = FARBLOS;
     8ce:	89 81       	ldd	r24, Y+1	; 0x01
     8d0:	9a 81       	ldd	r25, Y+2	; 0x02
     8d2:	8c 53       	subi	r24, 0x3C	; 60
     8d4:	9d 4f       	sbci	r25, 0xFD	; 253
     8d6:	28 e0       	ldi	r18, 0x08	; 8
     8d8:	fc 01       	movw	r30, r24
     8da:	27 ab       	std	Z+55, r18	; 0x37
    spielfeld[12].rgbNummer = 7;
     8dc:	89 81       	ldd	r24, Y+1	; 0x01
     8de:	9a 81       	ldd	r25, Y+2	; 0x02
     8e0:	8c 53       	subi	r24, 0x3C	; 60
     8e2:	9d 4f       	sbci	r25, 0xFD	; 253
     8e4:	27 e0       	ldi	r18, 0x07	; 7
     8e6:	fc 01       	movw	r30, r24
     8e8:	22 af       	std	Z+58, r18	; 0x3a
    
    //Eigenschaften des Feldes: Frauen WC
    strcpy(spielfeld[13].name, "Frauen WC");
     8ea:	89 81       	ldd	r24, Y+1	; 0x01
     8ec:	9a 81       	ldd	r25, Y+2	; 0x02
     8ee:	81 50       	subi	r24, 0x01	; 1
     8f0:	9d 4f       	sbci	r25, 0xFD	; 253
     8f2:	9c 01       	movw	r18, r24
     8f4:	8a e0       	ldi	r24, 0x0A	; 10
     8f6:	ee ec       	ldi	r30, 0xCE	; 206
     8f8:	f2 e0       	ldi	r31, 0x02	; 2
     8fa:	d9 01       	movw	r26, r18
     8fc:	01 90       	ld	r0, Z+
     8fe:	0d 92       	st	X+, r0
     900:	8a 95       	dec	r24
     902:	e1 f7       	brne	.-8      	; 0x8fc <initialisiereSpielfeld+0x4e8>
    spielfeld[13].typ = STRASSE;
     904:	89 81       	ldd	r24, Y+1	; 0x01
     906:	9a 81       	ldd	r25, Y+2	; 0x02
     908:	81 50       	subi	r24, 0x01	; 1
     90a:	9d 4f       	sbci	r25, 0xFD	; 253
     90c:	fc 01       	movw	r30, r24
     90e:	12 aa       	std	Z+50, r1	; 0x32
    spielfeld[13].preis = 140;
     910:	89 81       	ldd	r24, Y+1	; 0x01
     912:	9a 81       	ldd	r25, Y+2	; 0x02
     914:	81 50       	subi	r24, 0x01	; 1
     916:	9d 4f       	sbci	r25, 0xFD	; 253
     918:	2c e8       	ldi	r18, 0x8C	; 140
     91a:	fc 01       	movw	r30, r24
     91c:	23 ab       	std	Z+51, r18	; 0x33
    spielfeld[13].miete = 2;
     91e:	89 81       	ldd	r24, Y+1	; 0x01
     920:	9a 81       	ldd	r25, Y+2	; 0x02
     922:	81 50       	subi	r24, 0x01	; 1
     924:	9d 4f       	sbci	r25, 0xFD	; 253
     926:	22 e0       	ldi	r18, 0x02	; 2
     928:	30 e0       	ldi	r19, 0x00	; 0
     92a:	fc 01       	movw	r30, r24
     92c:	35 ab       	std	Z+53, r19	; 0x35
     92e:	24 ab       	std	Z+52, r18	; 0x34
    spielfeld[13].besitzer = 0;
     930:	89 81       	ldd	r24, Y+1	; 0x01
     932:	9a 81       	ldd	r25, Y+2	; 0x02
     934:	81 50       	subi	r24, 0x01	; 1
     936:	9d 4f       	sbci	r25, 0xFD	; 253
     938:	fc 01       	movw	r30, r24
     93a:	16 aa       	std	Z+54, r1	; 0x36
    spielfeld[13].farbGruppe = ROSA;
     93c:	89 81       	ldd	r24, Y+1	; 0x01
     93e:	9a 81       	ldd	r25, Y+2	; 0x02
     940:	81 50       	subi	r24, 0x01	; 1
     942:	9d 4f       	sbci	r25, 0xFD	; 253
     944:	22 e0       	ldi	r18, 0x02	; 2
     946:	fc 01       	movw	r30, r24
     948:	27 ab       	std	Z+55, r18	; 0x37
    spielfeld[13].hausnummer = 6;
     94a:	89 81       	ldd	r24, Y+1	; 0x01
     94c:	9a 81       	ldd	r25, Y+2	; 0x02
     94e:	81 50       	subi	r24, 0x01	; 1
     950:	9d 4f       	sbci	r25, 0xFD	; 253
     952:	26 e0       	ldi	r18, 0x06	; 6
     954:	fc 01       	movw	r30, r24
     956:	20 af       	std	Z+56, r18	; 0x38
    spielfeld[13].anzahlHaeuser = 0;
     958:	89 81       	ldd	r24, Y+1	; 0x01
     95a:	9a 81       	ldd	r25, Y+2	; 0x02
     95c:	81 50       	subi	r24, 0x01	; 1
     95e:	9d 4f       	sbci	r25, 0xFD	; 253
     960:	fc 01       	movw	r30, r24
     962:	11 ae       	std	Z+57, r1	; 0x39
    spielfeld[13].rgbNummer = 8;
     964:	89 81       	ldd	r24, Y+1	; 0x01
     966:	9a 81       	ldd	r25, Y+2	; 0x02
     968:	81 50       	subi	r24, 0x01	; 1
     96a:	9d 4f       	sbci	r25, 0xFD	; 253
     96c:	28 e0       	ldi	r18, 0x08	; 8
     96e:	fc 01       	movw	r30, r24
     970:	22 af       	std	Z+58, r18	; 0x3a
    
    //Eigenschaften des Feldes: Lehrer WC
    strcpy(spielfeld[14].name, "Lehrer WC");
     972:	89 81       	ldd	r24, Y+1	; 0x01
     974:	9a 81       	ldd	r25, Y+2	; 0x02
     976:	86 5c       	subi	r24, 0xC6	; 198
     978:	9c 4f       	sbci	r25, 0xFC	; 252
     97a:	9c 01       	movw	r18, r24
     97c:	8a e0       	ldi	r24, 0x0A	; 10
     97e:	e8 ed       	ldi	r30, 0xD8	; 216
     980:	f2 e0       	ldi	r31, 0x02	; 2
     982:	d9 01       	movw	r26, r18
     984:	01 90       	ld	r0, Z+
     986:	0d 92       	st	X+, r0
     988:	8a 95       	dec	r24
     98a:	e1 f7       	brne	.-8      	; 0x984 <initialisiereSpielfeld+0x570>
    spielfeld[14].typ = STRASSE;
     98c:	89 81       	ldd	r24, Y+1	; 0x01
     98e:	9a 81       	ldd	r25, Y+2	; 0x02
     990:	86 5c       	subi	r24, 0xC6	; 198
     992:	9c 4f       	sbci	r25, 0xFC	; 252
     994:	fc 01       	movw	r30, r24
     996:	12 aa       	std	Z+50, r1	; 0x32
    spielfeld[14].preis = 160;
     998:	89 81       	ldd	r24, Y+1	; 0x01
     99a:	9a 81       	ldd	r25, Y+2	; 0x02
     99c:	86 5c       	subi	r24, 0xC6	; 198
     99e:	9c 4f       	sbci	r25, 0xFC	; 252
     9a0:	20 ea       	ldi	r18, 0xA0	; 160
     9a2:	fc 01       	movw	r30, r24
     9a4:	23 ab       	std	Z+51, r18	; 0x33
    spielfeld[14].miete = 2;
     9a6:	89 81       	ldd	r24, Y+1	; 0x01
     9a8:	9a 81       	ldd	r25, Y+2	; 0x02
     9aa:	86 5c       	subi	r24, 0xC6	; 198
     9ac:	9c 4f       	sbci	r25, 0xFC	; 252
     9ae:	22 e0       	ldi	r18, 0x02	; 2
     9b0:	30 e0       	ldi	r19, 0x00	; 0
     9b2:	fc 01       	movw	r30, r24
     9b4:	35 ab       	std	Z+53, r19	; 0x35
     9b6:	24 ab       	std	Z+52, r18	; 0x34
    spielfeld[14].besitzer = 0;
     9b8:	89 81       	ldd	r24, Y+1	; 0x01
     9ba:	9a 81       	ldd	r25, Y+2	; 0x02
     9bc:	86 5c       	subi	r24, 0xC6	; 198
     9be:	9c 4f       	sbci	r25, 0xFC	; 252
     9c0:	fc 01       	movw	r30, r24
     9c2:	16 aa       	std	Z+54, r1	; 0x36
    spielfeld[14].farbGruppe = ROSA;
     9c4:	89 81       	ldd	r24, Y+1	; 0x01
     9c6:	9a 81       	ldd	r25, Y+2	; 0x02
     9c8:	86 5c       	subi	r24, 0xC6	; 198
     9ca:	9c 4f       	sbci	r25, 0xFC	; 252
     9cc:	22 e0       	ldi	r18, 0x02	; 2
     9ce:	fc 01       	movw	r30, r24
     9d0:	27 ab       	std	Z+55, r18	; 0x37
    spielfeld[14].hausnummer = 7;
     9d2:	89 81       	ldd	r24, Y+1	; 0x01
     9d4:	9a 81       	ldd	r25, Y+2	; 0x02
     9d6:	86 5c       	subi	r24, 0xC6	; 198
     9d8:	9c 4f       	sbci	r25, 0xFC	; 252
     9da:	27 e0       	ldi	r18, 0x07	; 7
     9dc:	fc 01       	movw	r30, r24
     9de:	20 af       	std	Z+56, r18	; 0x38
    spielfeld[14].anzahlHaeuser = 0;
     9e0:	89 81       	ldd	r24, Y+1	; 0x01
     9e2:	9a 81       	ldd	r25, Y+2	; 0x02
     9e4:	86 5c       	subi	r24, 0xC6	; 198
     9e6:	9c 4f       	sbci	r25, 0xFC	; 252
     9e8:	fc 01       	movw	r30, r24
     9ea:	11 ae       	std	Z+57, r1	; 0x39
    spielfeld[14].rgbNummer = 9;
     9ec:	89 81       	ldd	r24, Y+1	; 0x01
     9ee:	9a 81       	ldd	r25, Y+2	; 0x02
     9f0:	86 5c       	subi	r24, 0xC6	; 198
     9f2:	9c 4f       	sbci	r25, 0xFC	; 252
     9f4:	29 e0       	ldi	r18, 0x09	; 9
     9f6:	fc 01       	movw	r30, r24
     9f8:	22 af       	std	Z+58, r18	; 0x3a
    
    //Eigenschaften des Feldes: Fotozentrum
    strcpy(spielfeld[15].name, "Fotozentrum");
     9fa:	89 81       	ldd	r24, Y+1	; 0x01
     9fc:	9a 81       	ldd	r25, Y+2	; 0x02
     9fe:	8b 58       	subi	r24, 0x8B	; 139
     a00:	9c 4f       	sbci	r25, 0xFC	; 252
     a02:	9c 01       	movw	r18, r24
     a04:	8c e0       	ldi	r24, 0x0C	; 12
     a06:	e2 ee       	ldi	r30, 0xE2	; 226
     a08:	f2 e0       	ldi	r31, 0x02	; 2
     a0a:	d9 01       	movw	r26, r18
     a0c:	01 90       	ld	r0, Z+
     a0e:	0d 92       	st	X+, r0
     a10:	8a 95       	dec	r24
     a12:	e1 f7       	brne	.-8      	; 0xa0c <initialisiereSpielfeld+0x5f8>
    spielfeld[15].typ = HALTESTELLE;
     a14:	89 81       	ldd	r24, Y+1	; 0x01
     a16:	9a 81       	ldd	r25, Y+2	; 0x02
     a18:	8b 58       	subi	r24, 0x8B	; 139
     a1a:	9c 4f       	sbci	r25, 0xFC	; 252
     a1c:	27 e0       	ldi	r18, 0x07	; 7
     a1e:	fc 01       	movw	r30, r24
     a20:	22 ab       	std	Z+50, r18	; 0x32
    spielfeld[15].preis = 200;
     a22:	89 81       	ldd	r24, Y+1	; 0x01
     a24:	9a 81       	ldd	r25, Y+2	; 0x02
     a26:	8b 58       	subi	r24, 0x8B	; 139
     a28:	9c 4f       	sbci	r25, 0xFC	; 252
     a2a:	28 ec       	ldi	r18, 0xC8	; 200
     a2c:	fc 01       	movw	r30, r24
     a2e:	23 ab       	std	Z+51, r18	; 0x33
    spielfeld[15].miete = 200;
     a30:	89 81       	ldd	r24, Y+1	; 0x01
     a32:	9a 81       	ldd	r25, Y+2	; 0x02
     a34:	8b 58       	subi	r24, 0x8B	; 139
     a36:	9c 4f       	sbci	r25, 0xFC	; 252
     a38:	28 ec       	ldi	r18, 0xC8	; 200
     a3a:	30 e0       	ldi	r19, 0x00	; 0
     a3c:	fc 01       	movw	r30, r24
     a3e:	35 ab       	std	Z+53, r19	; 0x35
     a40:	24 ab       	std	Z+52, r18	; 0x34
    spielfeld[15].besitzer = 0;
     a42:	89 81       	ldd	r24, Y+1	; 0x01
     a44:	9a 81       	ldd	r25, Y+2	; 0x02
     a46:	8b 58       	subi	r24, 0x8B	; 139
     a48:	9c 4f       	sbci	r25, 0xFC	; 252
     a4a:	fc 01       	movw	r30, r24
     a4c:	16 aa       	std	Z+54, r1	; 0x36
    spielfeld[15].farbGruppe = FARBLOS;
     a4e:	89 81       	ldd	r24, Y+1	; 0x01
     a50:	9a 81       	ldd	r25, Y+2	; 0x02
     a52:	8b 58       	subi	r24, 0x8B	; 139
     a54:	9c 4f       	sbci	r25, 0xFC	; 252
     a56:	28 e0       	ldi	r18, 0x08	; 8
     a58:	fc 01       	movw	r30, r24
     a5a:	27 ab       	std	Z+55, r18	; 0x37
    spielfeld[15].rgbNummer = 10;
     a5c:	89 81       	ldd	r24, Y+1	; 0x01
     a5e:	9a 81       	ldd	r25, Y+2	; 0x02
     a60:	8b 58       	subi	r24, 0x8B	; 139
     a62:	9c 4f       	sbci	r25, 0xFC	; 252
     a64:	2a e0       	ldi	r18, 0x0A	; 10
     a66:	fc 01       	movw	r30, r24
     a68:	22 af       	std	Z+58, r18	; 0x3a
    
    //Eigenschaften des Feldes: BFS Polimechaniker
    strcpy(spielfeld[16].name, "BFS Polimechaniker");
     a6a:	89 81       	ldd	r24, Y+1	; 0x01
     a6c:	9a 81       	ldd	r25, Y+2	; 0x02
     a6e:	80 55       	subi	r24, 0x50	; 80
     a70:	9c 4f       	sbci	r25, 0xFC	; 252
     a72:	9c 01       	movw	r18, r24
     a74:	83 e1       	ldi	r24, 0x13	; 19
     a76:	ee ee       	ldi	r30, 0xEE	; 238
     a78:	f2 e0       	ldi	r31, 0x02	; 2
     a7a:	d9 01       	movw	r26, r18
     a7c:	01 90       	ld	r0, Z+
     a7e:	0d 92       	st	X+, r0
     a80:	8a 95       	dec	r24
     a82:	e1 f7       	brne	.-8      	; 0xa7c <initialisiereSpielfeld+0x668>
    spielfeld[16].typ = STRASSE;
     a84:	89 81       	ldd	r24, Y+1	; 0x01
     a86:	9a 81       	ldd	r25, Y+2	; 0x02
     a88:	80 55       	subi	r24, 0x50	; 80
     a8a:	9c 4f       	sbci	r25, 0xFC	; 252
     a8c:	fc 01       	movw	r30, r24
     a8e:	12 aa       	std	Z+50, r1	; 0x32
    spielfeld[16].preis = 180;
     a90:	89 81       	ldd	r24, Y+1	; 0x01
     a92:	9a 81       	ldd	r25, Y+2	; 0x02
     a94:	80 55       	subi	r24, 0x50	; 80
     a96:	9c 4f       	sbci	r25, 0xFC	; 252
     a98:	24 eb       	ldi	r18, 0xB4	; 180
     a9a:	fc 01       	movw	r30, r24
     a9c:	23 ab       	std	Z+51, r18	; 0x33
    spielfeld[16].miete = 2;
     a9e:	89 81       	ldd	r24, Y+1	; 0x01
     aa0:	9a 81       	ldd	r25, Y+2	; 0x02
     aa2:	80 55       	subi	r24, 0x50	; 80
     aa4:	9c 4f       	sbci	r25, 0xFC	; 252
     aa6:	22 e0       	ldi	r18, 0x02	; 2
     aa8:	30 e0       	ldi	r19, 0x00	; 0
     aaa:	fc 01       	movw	r30, r24
     aac:	35 ab       	std	Z+53, r19	; 0x35
     aae:	24 ab       	std	Z+52, r18	; 0x34
    spielfeld[16].besitzer = 0;
     ab0:	89 81       	ldd	r24, Y+1	; 0x01
     ab2:	9a 81       	ldd	r25, Y+2	; 0x02
     ab4:	80 55       	subi	r24, 0x50	; 80
     ab6:	9c 4f       	sbci	r25, 0xFC	; 252
     ab8:	fc 01       	movw	r30, r24
     aba:	16 aa       	std	Z+54, r1	; 0x36
    spielfeld[16].farbGruppe = ORANGE;
     abc:	89 81       	ldd	r24, Y+1	; 0x01
     abe:	9a 81       	ldd	r25, Y+2	; 0x02
     ac0:	80 55       	subi	r24, 0x50	; 80
     ac2:	9c 4f       	sbci	r25, 0xFC	; 252
     ac4:	23 e0       	ldi	r18, 0x03	; 3
     ac6:	fc 01       	movw	r30, r24
     ac8:	27 ab       	std	Z+55, r18	; 0x37
    spielfeld[16].hausnummer = 8;
     aca:	89 81       	ldd	r24, Y+1	; 0x01
     acc:	9a 81       	ldd	r25, Y+2	; 0x02
     ace:	80 55       	subi	r24, 0x50	; 80
     ad0:	9c 4f       	sbci	r25, 0xFC	; 252
     ad2:	28 e0       	ldi	r18, 0x08	; 8
     ad4:	fc 01       	movw	r30, r24
     ad6:	20 af       	std	Z+56, r18	; 0x38
    spielfeld[16].anzahlHaeuser = 0;
     ad8:	89 81       	ldd	r24, Y+1	; 0x01
     ada:	9a 81       	ldd	r25, Y+2	; 0x02
     adc:	80 55       	subi	r24, 0x50	; 80
     ade:	9c 4f       	sbci	r25, 0xFC	; 252
     ae0:	fc 01       	movw	r30, r24
     ae2:	11 ae       	std	Z+57, r1	; 0x39
    spielfeld[16].rgbNummer = 11;
     ae4:	89 81       	ldd	r24, Y+1	; 0x01
     ae6:	9a 81       	ldd	r25, Y+2	; 0x02
     ae8:	80 55       	subi	r24, 0x50	; 80
     aea:	9c 4f       	sbci	r25, 0xFC	; 252
     aec:	2b e0       	ldi	r18, 0x0B	; 11
     aee:	fc 01       	movw	r30, r24
     af0:	22 af       	std	Z+58, r18	; 0x3a
    
    //Eigenschaften des Feldes: Kanzlei2
    strcpy(spielfeld[17].name, "Kanzlei 2");
     af2:	89 81       	ldd	r24, Y+1	; 0x01
     af4:	9a 81       	ldd	r25, Y+2	; 0x02
     af6:	85 51       	subi	r24, 0x15	; 21
     af8:	9c 4f       	sbci	r25, 0xFC	; 252
     afa:	9c 01       	movw	r18, r24
     afc:	8a e0       	ldi	r24, 0x0A	; 10
     afe:	e1 e0       	ldi	r30, 0x01	; 1
     b00:	f3 e0       	ldi	r31, 0x03	; 3
     b02:	d9 01       	movw	r26, r18
     b04:	01 90       	ld	r0, Z+
     b06:	0d 92       	st	X+, r0
     b08:	8a 95       	dec	r24
     b0a:	e1 f7       	brne	.-8      	; 0xb04 <initialisiereSpielfeld+0x6f0>
    spielfeld[17].typ = EREIGNISFELD;
     b0c:	89 81       	ldd	r24, Y+1	; 0x01
     b0e:	9a 81       	ldd	r25, Y+2	; 0x02
     b10:	85 51       	subi	r24, 0x15	; 21
     b12:	9c 4f       	sbci	r25, 0xFC	; 252
     b14:	21 e0       	ldi	r18, 0x01	; 1
     b16:	fc 01       	movw	r30, r24
     b18:	22 ab       	std	Z+50, r18	; 0x32
    
    //Eigenschaften des Feldes: BFS Automatiker
    strcpy(spielfeld[18].name, "BFS Automatiker");
     b1a:	89 81       	ldd	r24, Y+1	; 0x01
     b1c:	9a 81       	ldd	r25, Y+2	; 0x02
     b1e:	8a 5d       	subi	r24, 0xDA	; 218
     b20:	9b 4f       	sbci	r25, 0xFB	; 251
     b22:	9c 01       	movw	r18, r24
     b24:	80 e1       	ldi	r24, 0x10	; 16
     b26:	eb e0       	ldi	r30, 0x0B	; 11
     b28:	f3 e0       	ldi	r31, 0x03	; 3
     b2a:	d9 01       	movw	r26, r18
     b2c:	01 90       	ld	r0, Z+
     b2e:	0d 92       	st	X+, r0
     b30:	8a 95       	dec	r24
     b32:	e1 f7       	brne	.-8      	; 0xb2c <initialisiereSpielfeld+0x718>
    spielfeld[18].typ = STRASSE;
     b34:	89 81       	ldd	r24, Y+1	; 0x01
     b36:	9a 81       	ldd	r25, Y+2	; 0x02
     b38:	8a 5d       	subi	r24, 0xDA	; 218
     b3a:	9b 4f       	sbci	r25, 0xFB	; 251
     b3c:	fc 01       	movw	r30, r24
     b3e:	12 aa       	std	Z+50, r1	; 0x32
    spielfeld[18].preis = 180;
     b40:	89 81       	ldd	r24, Y+1	; 0x01
     b42:	9a 81       	ldd	r25, Y+2	; 0x02
     b44:	8a 5d       	subi	r24, 0xDA	; 218
     b46:	9b 4f       	sbci	r25, 0xFB	; 251
     b48:	24 eb       	ldi	r18, 0xB4	; 180
     b4a:	fc 01       	movw	r30, r24
     b4c:	23 ab       	std	Z+51, r18	; 0x33
    spielfeld[18].miete = 2;
     b4e:	89 81       	ldd	r24, Y+1	; 0x01
     b50:	9a 81       	ldd	r25, Y+2	; 0x02
     b52:	8a 5d       	subi	r24, 0xDA	; 218
     b54:	9b 4f       	sbci	r25, 0xFB	; 251
     b56:	22 e0       	ldi	r18, 0x02	; 2
     b58:	30 e0       	ldi	r19, 0x00	; 0
     b5a:	fc 01       	movw	r30, r24
     b5c:	35 ab       	std	Z+53, r19	; 0x35
     b5e:	24 ab       	std	Z+52, r18	; 0x34
    spielfeld[18].besitzer = 0;
     b60:	89 81       	ldd	r24, Y+1	; 0x01
     b62:	9a 81       	ldd	r25, Y+2	; 0x02
     b64:	8a 5d       	subi	r24, 0xDA	; 218
     b66:	9b 4f       	sbci	r25, 0xFB	; 251
     b68:	fc 01       	movw	r30, r24
     b6a:	16 aa       	std	Z+54, r1	; 0x36
    spielfeld[18].farbGruppe = ORANGE;
     b6c:	89 81       	ldd	r24, Y+1	; 0x01
     b6e:	9a 81       	ldd	r25, Y+2	; 0x02
     b70:	8a 5d       	subi	r24, 0xDA	; 218
     b72:	9b 4f       	sbci	r25, 0xFB	; 251
     b74:	23 e0       	ldi	r18, 0x03	; 3
     b76:	fc 01       	movw	r30, r24
     b78:	27 ab       	std	Z+55, r18	; 0x37
    spielfeld[18].hausnummer = 9;
     b7a:	89 81       	ldd	r24, Y+1	; 0x01
     b7c:	9a 81       	ldd	r25, Y+2	; 0x02
     b7e:	8a 5d       	subi	r24, 0xDA	; 218
     b80:	9b 4f       	sbci	r25, 0xFB	; 251
     b82:	29 e0       	ldi	r18, 0x09	; 9
     b84:	fc 01       	movw	r30, r24
     b86:	20 af       	std	Z+56, r18	; 0x38
    spielfeld[18].anzahlHaeuser = 0;
     b88:	89 81       	ldd	r24, Y+1	; 0x01
     b8a:	9a 81       	ldd	r25, Y+2	; 0x02
     b8c:	8a 5d       	subi	r24, 0xDA	; 218
     b8e:	9b 4f       	sbci	r25, 0xFB	; 251
     b90:	fc 01       	movw	r30, r24
     b92:	11 ae       	std	Z+57, r1	; 0x39
    spielfeld[18].rgbNummer = 12;
     b94:	89 81       	ldd	r24, Y+1	; 0x01
     b96:	9a 81       	ldd	r25, Y+2	; 0x02
     b98:	8a 5d       	subi	r24, 0xDA	; 218
     b9a:	9b 4f       	sbci	r25, 0xFB	; 251
     b9c:	2c e0       	ldi	r18, 0x0C	; 12
     b9e:	fc 01       	movw	r30, r24
     ba0:	22 af       	std	Z+58, r18	; 0x3a
    
    //Eigenschaften des Feldes: BFS Elektroniker
    strcpy(spielfeld[19].name, "BFS Elektroniker");
     ba2:	89 81       	ldd	r24, Y+1	; 0x01
     ba4:	9a 81       	ldd	r25, Y+2	; 0x02
     ba6:	8f 59       	subi	r24, 0x9F	; 159
     ba8:	9b 4f       	sbci	r25, 0xFB	; 251
     baa:	9c 01       	movw	r18, r24
     bac:	81 e1       	ldi	r24, 0x11	; 17
     bae:	eb e1       	ldi	r30, 0x1B	; 27
     bb0:	f3 e0       	ldi	r31, 0x03	; 3
     bb2:	d9 01       	movw	r26, r18
     bb4:	01 90       	ld	r0, Z+
     bb6:	0d 92       	st	X+, r0
     bb8:	8a 95       	dec	r24
     bba:	e1 f7       	brne	.-8      	; 0xbb4 <initialisiereSpielfeld+0x7a0>
    spielfeld[19].typ = STRASSE;
     bbc:	89 81       	ldd	r24, Y+1	; 0x01
     bbe:	9a 81       	ldd	r25, Y+2	; 0x02
     bc0:	8f 59       	subi	r24, 0x9F	; 159
     bc2:	9b 4f       	sbci	r25, 0xFB	; 251
     bc4:	fc 01       	movw	r30, r24
     bc6:	12 aa       	std	Z+50, r1	; 0x32
    spielfeld[19].preis = 200;
     bc8:	89 81       	ldd	r24, Y+1	; 0x01
     bca:	9a 81       	ldd	r25, Y+2	; 0x02
     bcc:	8f 59       	subi	r24, 0x9F	; 159
     bce:	9b 4f       	sbci	r25, 0xFB	; 251
     bd0:	28 ec       	ldi	r18, 0xC8	; 200
     bd2:	fc 01       	movw	r30, r24
     bd4:	23 ab       	std	Z+51, r18	; 0x33
    spielfeld[19].miete = 2;
     bd6:	89 81       	ldd	r24, Y+1	; 0x01
     bd8:	9a 81       	ldd	r25, Y+2	; 0x02
     bda:	8f 59       	subi	r24, 0x9F	; 159
     bdc:	9b 4f       	sbci	r25, 0xFB	; 251
     bde:	22 e0       	ldi	r18, 0x02	; 2
     be0:	30 e0       	ldi	r19, 0x00	; 0
     be2:	fc 01       	movw	r30, r24
     be4:	35 ab       	std	Z+53, r19	; 0x35
     be6:	24 ab       	std	Z+52, r18	; 0x34
    spielfeld[19].besitzer = 0;
     be8:	89 81       	ldd	r24, Y+1	; 0x01
     bea:	9a 81       	ldd	r25, Y+2	; 0x02
     bec:	8f 59       	subi	r24, 0x9F	; 159
     bee:	9b 4f       	sbci	r25, 0xFB	; 251
     bf0:	fc 01       	movw	r30, r24
     bf2:	16 aa       	std	Z+54, r1	; 0x36
    spielfeld[19].farbGruppe = ORANGE;
     bf4:	89 81       	ldd	r24, Y+1	; 0x01
     bf6:	9a 81       	ldd	r25, Y+2	; 0x02
     bf8:	8f 59       	subi	r24, 0x9F	; 159
     bfa:	9b 4f       	sbci	r25, 0xFB	; 251
     bfc:	23 e0       	ldi	r18, 0x03	; 3
     bfe:	fc 01       	movw	r30, r24
     c00:	27 ab       	std	Z+55, r18	; 0x37
    spielfeld[19].hausnummer = 10;
     c02:	89 81       	ldd	r24, Y+1	; 0x01
     c04:	9a 81       	ldd	r25, Y+2	; 0x02
     c06:	8f 59       	subi	r24, 0x9F	; 159
     c08:	9b 4f       	sbci	r25, 0xFB	; 251
     c0a:	2a e0       	ldi	r18, 0x0A	; 10
     c0c:	fc 01       	movw	r30, r24
     c0e:	20 af       	std	Z+56, r18	; 0x38
    spielfeld[19].anzahlHaeuser = 0;
     c10:	89 81       	ldd	r24, Y+1	; 0x01
     c12:	9a 81       	ldd	r25, Y+2	; 0x02
     c14:	8f 59       	subi	r24, 0x9F	; 159
     c16:	9b 4f       	sbci	r25, 0xFB	; 251
     c18:	fc 01       	movw	r30, r24
     c1a:	11 ae       	std	Z+57, r1	; 0x39
    spielfeld[19].rgbNummer = 13;
     c1c:	89 81       	ldd	r24, Y+1	; 0x01
     c1e:	9a 81       	ldd	r25, Y+2	; 0x02
     c20:	8f 59       	subi	r24, 0x9F	; 159
     c22:	9b 4f       	sbci	r25, 0xFB	; 251
     c24:	2d e0       	ldi	r18, 0x0D	; 13
     c26:	fc 01       	movw	r30, r24
     c28:	22 af       	std	Z+58, r18	; 0x3a
    
    //Eigenschaften des Feldes: Freiparken
    strcpy(spielfeld[20].name, "Freiparken");
     c2a:	89 81       	ldd	r24, Y+1	; 0x01
     c2c:	9a 81       	ldd	r25, Y+2	; 0x02
     c2e:	84 56       	subi	r24, 0x64	; 100
     c30:	9b 4f       	sbci	r25, 0xFB	; 251
     c32:	9c 01       	movw	r18, r24
     c34:	8b e0       	ldi	r24, 0x0B	; 11
     c36:	ec e2       	ldi	r30, 0x2C	; 44
     c38:	f3 e0       	ldi	r31, 0x03	; 3
     c3a:	d9 01       	movw	r26, r18
     c3c:	01 90       	ld	r0, Z+
     c3e:	0d 92       	st	X+, r0
     c40:	8a 95       	dec	r24
     c42:	e1 f7       	brne	.-8      	; 0xc3c <initialisiereSpielfeld+0x828>
    spielfeld[20].typ = FREIPARKEN;
     c44:	89 81       	ldd	r24, Y+1	; 0x01
     c46:	9a 81       	ldd	r25, Y+2	; 0x02
     c48:	84 56       	subi	r24, 0x64	; 100
     c4a:	9b 4f       	sbci	r25, 0xFB	; 251
     c4c:	23 e0       	ldi	r18, 0x03	; 3
     c4e:	fc 01       	movw	r30, r24
     c50:	22 ab       	std	Z+50, r18	; 0x32
    
    //Eigenschaften des Feldes: Grundausbildung Automatiker
    strcpy(spielfeld[21].name, "Grundausbildung Automatiker");
     c52:	89 81       	ldd	r24, Y+1	; 0x01
     c54:	9a 81       	ldd	r25, Y+2	; 0x02
     c56:	89 52       	subi	r24, 0x29	; 41
     c58:	9b 4f       	sbci	r25, 0xFB	; 251
     c5a:	9c 01       	movw	r18, r24
     c5c:	8c e1       	ldi	r24, 0x1C	; 28
     c5e:	e7 e3       	ldi	r30, 0x37	; 55
     c60:	f3 e0       	ldi	r31, 0x03	; 3
     c62:	d9 01       	movw	r26, r18
     c64:	01 90       	ld	r0, Z+
     c66:	0d 92       	st	X+, r0
     c68:	8a 95       	dec	r24
     c6a:	e1 f7       	brne	.-8      	; 0xc64 <initialisiereSpielfeld+0x850>
    spielfeld[21].typ = STRASSE;
     c6c:	89 81       	ldd	r24, Y+1	; 0x01
     c6e:	9a 81       	ldd	r25, Y+2	; 0x02
     c70:	89 52       	subi	r24, 0x29	; 41
     c72:	9b 4f       	sbci	r25, 0xFB	; 251
     c74:	fc 01       	movw	r30, r24
     c76:	12 aa       	std	Z+50, r1	; 0x32
    spielfeld[21].preis = 220;
     c78:	89 81       	ldd	r24, Y+1	; 0x01
     c7a:	9a 81       	ldd	r25, Y+2	; 0x02
     c7c:	89 52       	subi	r24, 0x29	; 41
     c7e:	9b 4f       	sbci	r25, 0xFB	; 251
     c80:	2c ed       	ldi	r18, 0xDC	; 220
     c82:	fc 01       	movw	r30, r24
     c84:	23 ab       	std	Z+51, r18	; 0x33
    spielfeld[21].miete = 2;
     c86:	89 81       	ldd	r24, Y+1	; 0x01
     c88:	9a 81       	ldd	r25, Y+2	; 0x02
     c8a:	89 52       	subi	r24, 0x29	; 41
     c8c:	9b 4f       	sbci	r25, 0xFB	; 251
     c8e:	22 e0       	ldi	r18, 0x02	; 2
     c90:	30 e0       	ldi	r19, 0x00	; 0
     c92:	fc 01       	movw	r30, r24
     c94:	35 ab       	std	Z+53, r19	; 0x35
     c96:	24 ab       	std	Z+52, r18	; 0x34
    spielfeld[21].besitzer = 0;
     c98:	89 81       	ldd	r24, Y+1	; 0x01
     c9a:	9a 81       	ldd	r25, Y+2	; 0x02
     c9c:	89 52       	subi	r24, 0x29	; 41
     c9e:	9b 4f       	sbci	r25, 0xFB	; 251
     ca0:	fc 01       	movw	r30, r24
     ca2:	16 aa       	std	Z+54, r1	; 0x36
    spielfeld[21].farbGruppe = ROT;
     ca4:	89 81       	ldd	r24, Y+1	; 0x01
     ca6:	9a 81       	ldd	r25, Y+2	; 0x02
     ca8:	89 52       	subi	r24, 0x29	; 41
     caa:	9b 4f       	sbci	r25, 0xFB	; 251
     cac:	24 e0       	ldi	r18, 0x04	; 4
     cae:	fc 01       	movw	r30, r24
     cb0:	27 ab       	std	Z+55, r18	; 0x37
    spielfeld[21].hausnummer = 11;
     cb2:	89 81       	ldd	r24, Y+1	; 0x01
     cb4:	9a 81       	ldd	r25, Y+2	; 0x02
     cb6:	89 52       	subi	r24, 0x29	; 41
     cb8:	9b 4f       	sbci	r25, 0xFB	; 251
     cba:	2b e0       	ldi	r18, 0x0B	; 11
     cbc:	fc 01       	movw	r30, r24
     cbe:	20 af       	std	Z+56, r18	; 0x38
    spielfeld[21].anzahlHaeuser = 0;
     cc0:	89 81       	ldd	r24, Y+1	; 0x01
     cc2:	9a 81       	ldd	r25, Y+2	; 0x02
     cc4:	89 52       	subi	r24, 0x29	; 41
     cc6:	9b 4f       	sbci	r25, 0xFB	; 251
     cc8:	fc 01       	movw	r30, r24
     cca:	11 ae       	std	Z+57, r1	; 0x39
    spielfeld[21].rgbNummer = 14;
     ccc:	89 81       	ldd	r24, Y+1	; 0x01
     cce:	9a 81       	ldd	r25, Y+2	; 0x02
     cd0:	89 52       	subi	r24, 0x29	; 41
     cd2:	9b 4f       	sbci	r25, 0xFB	; 251
     cd4:	2e e0       	ldi	r18, 0x0E	; 14
     cd6:	fc 01       	movw	r30, r24
     cd8:	22 af       	std	Z+58, r18	; 0x3a
    
    //Eigenschaften des Feldes: Chance2
    strcpy(spielfeld[22].name, "Chance 2");
     cda:	89 81       	ldd	r24, Y+1	; 0x01
     cdc:	9a 81       	ldd	r25, Y+2	; 0x02
     cde:	8e 5e       	subi	r24, 0xEE	; 238
     ce0:	9a 4f       	sbci	r25, 0xFA	; 250
     ce2:	9c 01       	movw	r18, r24
     ce4:	89 e0       	ldi	r24, 0x09	; 9
     ce6:	e3 e5       	ldi	r30, 0x53	; 83
     ce8:	f3 e0       	ldi	r31, 0x03	; 3
     cea:	d9 01       	movw	r26, r18
     cec:	01 90       	ld	r0, Z+
     cee:	0d 92       	st	X+, r0
     cf0:	8a 95       	dec	r24
     cf2:	e1 f7       	brne	.-8      	; 0xcec <initialisiereSpielfeld+0x8d8>
    spielfeld[22].typ = EREIGNISFELD;
     cf4:	89 81       	ldd	r24, Y+1	; 0x01
     cf6:	9a 81       	ldd	r25, Y+2	; 0x02
     cf8:	8e 5e       	subi	r24, 0xEE	; 238
     cfa:	9a 4f       	sbci	r25, 0xFA	; 250
     cfc:	21 e0       	ldi	r18, 0x01	; 1
     cfe:	fc 01       	movw	r30, r24
     d00:	22 ab       	std	Z+50, r18	; 0x32
    
    //Eigenschaften des Feldes: Produkton Automatiker
    strcpy(spielfeld[23].name, "Produktion Automatiker");
     d02:	89 81       	ldd	r24, Y+1	; 0x01
     d04:	9a 81       	ldd	r25, Y+2	; 0x02
     d06:	83 5b       	subi	r24, 0xB3	; 179
     d08:	9a 4f       	sbci	r25, 0xFA	; 250
     d0a:	9c 01       	movw	r18, r24
     d0c:	87 e1       	ldi	r24, 0x17	; 23
     d0e:	ec e5       	ldi	r30, 0x5C	; 92
     d10:	f3 e0       	ldi	r31, 0x03	; 3
     d12:	d9 01       	movw	r26, r18
     d14:	01 90       	ld	r0, Z+
     d16:	0d 92       	st	X+, r0
     d18:	8a 95       	dec	r24
     d1a:	e1 f7       	brne	.-8      	; 0xd14 <initialisiereSpielfeld+0x900>
    spielfeld[23].typ = STRASSE;
     d1c:	89 81       	ldd	r24, Y+1	; 0x01
     d1e:	9a 81       	ldd	r25, Y+2	; 0x02
     d20:	83 5b       	subi	r24, 0xB3	; 179
     d22:	9a 4f       	sbci	r25, 0xFA	; 250
     d24:	fc 01       	movw	r30, r24
     d26:	12 aa       	std	Z+50, r1	; 0x32
    spielfeld[23].preis = 220;
     d28:	89 81       	ldd	r24, Y+1	; 0x01
     d2a:	9a 81       	ldd	r25, Y+2	; 0x02
     d2c:	83 5b       	subi	r24, 0xB3	; 179
     d2e:	9a 4f       	sbci	r25, 0xFA	; 250
     d30:	2c ed       	ldi	r18, 0xDC	; 220
     d32:	fc 01       	movw	r30, r24
     d34:	23 ab       	std	Z+51, r18	; 0x33
    spielfeld[23].miete = 2;
     d36:	89 81       	ldd	r24, Y+1	; 0x01
     d38:	9a 81       	ldd	r25, Y+2	; 0x02
     d3a:	83 5b       	subi	r24, 0xB3	; 179
     d3c:	9a 4f       	sbci	r25, 0xFA	; 250
     d3e:	22 e0       	ldi	r18, 0x02	; 2
     d40:	30 e0       	ldi	r19, 0x00	; 0
     d42:	fc 01       	movw	r30, r24
     d44:	35 ab       	std	Z+53, r19	; 0x35
     d46:	24 ab       	std	Z+52, r18	; 0x34
    spielfeld[23].besitzer = 0;
     d48:	89 81       	ldd	r24, Y+1	; 0x01
     d4a:	9a 81       	ldd	r25, Y+2	; 0x02
     d4c:	83 5b       	subi	r24, 0xB3	; 179
     d4e:	9a 4f       	sbci	r25, 0xFA	; 250
     d50:	fc 01       	movw	r30, r24
     d52:	16 aa       	std	Z+54, r1	; 0x36
    spielfeld[23].farbGruppe = ROT;
     d54:	89 81       	ldd	r24, Y+1	; 0x01
     d56:	9a 81       	ldd	r25, Y+2	; 0x02
     d58:	83 5b       	subi	r24, 0xB3	; 179
     d5a:	9a 4f       	sbci	r25, 0xFA	; 250
     d5c:	24 e0       	ldi	r18, 0x04	; 4
     d5e:	fc 01       	movw	r30, r24
     d60:	27 ab       	std	Z+55, r18	; 0x37
    spielfeld[23].hausnummer = 12;
     d62:	89 81       	ldd	r24, Y+1	; 0x01
     d64:	9a 81       	ldd	r25, Y+2	; 0x02
     d66:	83 5b       	subi	r24, 0xB3	; 179
     d68:	9a 4f       	sbci	r25, 0xFA	; 250
     d6a:	2c e0       	ldi	r18, 0x0C	; 12
     d6c:	fc 01       	movw	r30, r24
     d6e:	20 af       	std	Z+56, r18	; 0x38
    spielfeld[23].anzahlHaeuser = 0;
     d70:	89 81       	ldd	r24, Y+1	; 0x01
     d72:	9a 81       	ldd	r25, Y+2	; 0x02
     d74:	83 5b       	subi	r24, 0xB3	; 179
     d76:	9a 4f       	sbci	r25, 0xFA	; 250
     d78:	fc 01       	movw	r30, r24
     d7a:	11 ae       	std	Z+57, r1	; 0x39
    spielfeld[23].rgbNummer = 15;
     d7c:	89 81       	ldd	r24, Y+1	; 0x01
     d7e:	9a 81       	ldd	r25, Y+2	; 0x02
     d80:	83 5b       	subi	r24, 0xB3	; 179
     d82:	9a 4f       	sbci	r25, 0xFA	; 250
     d84:	2f e0       	ldi	r18, 0x0F	; 15
     d86:	fc 01       	movw	r30, r24
     d88:	22 af       	std	Z+58, r18	; 0x3a
    
    //Eigenschaften des Feldes: Mechatronik Labor
    strcpy(spielfeld[24].name, "Mechatronik Labor");
     d8a:	89 81       	ldd	r24, Y+1	; 0x01
     d8c:	9a 81       	ldd	r25, Y+2	; 0x02
     d8e:	88 57       	subi	r24, 0x78	; 120
     d90:	9a 4f       	sbci	r25, 0xFA	; 250
     d92:	9c 01       	movw	r18, r24
     d94:	82 e1       	ldi	r24, 0x12	; 18
     d96:	e3 e7       	ldi	r30, 0x73	; 115
     d98:	f3 e0       	ldi	r31, 0x03	; 3
     d9a:	d9 01       	movw	r26, r18
     d9c:	01 90       	ld	r0, Z+
     d9e:	0d 92       	st	X+, r0
     da0:	8a 95       	dec	r24
     da2:	e1 f7       	brne	.-8      	; 0xd9c <initialisiereSpielfeld+0x988>
    spielfeld[24].typ = STRASSE;
     da4:	89 81       	ldd	r24, Y+1	; 0x01
     da6:	9a 81       	ldd	r25, Y+2	; 0x02
     da8:	88 57       	subi	r24, 0x78	; 120
     daa:	9a 4f       	sbci	r25, 0xFA	; 250
     dac:	fc 01       	movw	r30, r24
     dae:	12 aa       	std	Z+50, r1	; 0x32
    spielfeld[24].preis = 240;
     db0:	89 81       	ldd	r24, Y+1	; 0x01
     db2:	9a 81       	ldd	r25, Y+2	; 0x02
     db4:	88 57       	subi	r24, 0x78	; 120
     db6:	9a 4f       	sbci	r25, 0xFA	; 250
     db8:	20 ef       	ldi	r18, 0xF0	; 240
     dba:	fc 01       	movw	r30, r24
     dbc:	23 ab       	std	Z+51, r18	; 0x33
    spielfeld[24].miete = 2;
     dbe:	89 81       	ldd	r24, Y+1	; 0x01
     dc0:	9a 81       	ldd	r25, Y+2	; 0x02
     dc2:	88 57       	subi	r24, 0x78	; 120
     dc4:	9a 4f       	sbci	r25, 0xFA	; 250
     dc6:	22 e0       	ldi	r18, 0x02	; 2
     dc8:	30 e0       	ldi	r19, 0x00	; 0
     dca:	fc 01       	movw	r30, r24
     dcc:	35 ab       	std	Z+53, r19	; 0x35
     dce:	24 ab       	std	Z+52, r18	; 0x34
    spielfeld[24].besitzer = 0;
     dd0:	89 81       	ldd	r24, Y+1	; 0x01
     dd2:	9a 81       	ldd	r25, Y+2	; 0x02
     dd4:	88 57       	subi	r24, 0x78	; 120
     dd6:	9a 4f       	sbci	r25, 0xFA	; 250
     dd8:	fc 01       	movw	r30, r24
     dda:	16 aa       	std	Z+54, r1	; 0x36
    spielfeld[24].farbGruppe = ROT;
     ddc:	89 81       	ldd	r24, Y+1	; 0x01
     dde:	9a 81       	ldd	r25, Y+2	; 0x02
     de0:	88 57       	subi	r24, 0x78	; 120
     de2:	9a 4f       	sbci	r25, 0xFA	; 250
     de4:	24 e0       	ldi	r18, 0x04	; 4
     de6:	fc 01       	movw	r30, r24
     de8:	27 ab       	std	Z+55, r18	; 0x37
    spielfeld[24].hausnummer = 13;
     dea:	89 81       	ldd	r24, Y+1	; 0x01
     dec:	9a 81       	ldd	r25, Y+2	; 0x02
     dee:	88 57       	subi	r24, 0x78	; 120
     df0:	9a 4f       	sbci	r25, 0xFA	; 250
     df2:	2d e0       	ldi	r18, 0x0D	; 13
     df4:	fc 01       	movw	r30, r24
     df6:	20 af       	std	Z+56, r18	; 0x38
    spielfeld[24].anzahlHaeuser = 0;
     df8:	89 81       	ldd	r24, Y+1	; 0x01
     dfa:	9a 81       	ldd	r25, Y+2	; 0x02
     dfc:	88 57       	subi	r24, 0x78	; 120
     dfe:	9a 4f       	sbci	r25, 0xFA	; 250
     e00:	fc 01       	movw	r30, r24
     e02:	11 ae       	std	Z+57, r1	; 0x39
    spielfeld[24].rgbNummer = 16;
     e04:	89 81       	ldd	r24, Y+1	; 0x01
     e06:	9a 81       	ldd	r25, Y+2	; 0x02
     e08:	88 57       	subi	r24, 0x78	; 120
     e0a:	9a 4f       	sbci	r25, 0xFA	; 250
     e0c:	20 e1       	ldi	r18, 0x10	; 16
     e0e:	fc 01       	movw	r30, r24
     e10:	22 af       	std	Z+58, r18	; 0x3a
    
    //Eigenschaften des Feldes: Technikum
    strcpy(spielfeld[25].name, "Technikum");
     e12:	89 81       	ldd	r24, Y+1	; 0x01
     e14:	9a 81       	ldd	r25, Y+2	; 0x02
     e16:	8d 53       	subi	r24, 0x3D	; 61
     e18:	9a 4f       	sbci	r25, 0xFA	; 250
     e1a:	9c 01       	movw	r18, r24
     e1c:	8a e0       	ldi	r24, 0x0A	; 10
     e1e:	e5 e8       	ldi	r30, 0x85	; 133
     e20:	f3 e0       	ldi	r31, 0x03	; 3
     e22:	d9 01       	movw	r26, r18
     e24:	01 90       	ld	r0, Z+
     e26:	0d 92       	st	X+, r0
     e28:	8a 95       	dec	r24
     e2a:	e1 f7       	brne	.-8      	; 0xe24 <initialisiereSpielfeld+0xa10>
    spielfeld[25].typ = HALTESTELLE;
     e2c:	89 81       	ldd	r24, Y+1	; 0x01
     e2e:	9a 81       	ldd	r25, Y+2	; 0x02
     e30:	8d 53       	subi	r24, 0x3D	; 61
     e32:	9a 4f       	sbci	r25, 0xFA	; 250
     e34:	27 e0       	ldi	r18, 0x07	; 7
     e36:	fc 01       	movw	r30, r24
     e38:	22 ab       	std	Z+50, r18	; 0x32
    spielfeld[25].preis = 200;
     e3a:	89 81       	ldd	r24, Y+1	; 0x01
     e3c:	9a 81       	ldd	r25, Y+2	; 0x02
     e3e:	8d 53       	subi	r24, 0x3D	; 61
     e40:	9a 4f       	sbci	r25, 0xFA	; 250
     e42:	28 ec       	ldi	r18, 0xC8	; 200
     e44:	fc 01       	movw	r30, r24
     e46:	23 ab       	std	Z+51, r18	; 0x33
    spielfeld[25].miete = 2;
     e48:	89 81       	ldd	r24, Y+1	; 0x01
     e4a:	9a 81       	ldd	r25, Y+2	; 0x02
     e4c:	8d 53       	subi	r24, 0x3D	; 61
     e4e:	9a 4f       	sbci	r25, 0xFA	; 250
     e50:	22 e0       	ldi	r18, 0x02	; 2
     e52:	30 e0       	ldi	r19, 0x00	; 0
     e54:	fc 01       	movw	r30, r24
     e56:	35 ab       	std	Z+53, r19	; 0x35
     e58:	24 ab       	std	Z+52, r18	; 0x34
    spielfeld[25].besitzer = 0;
     e5a:	89 81       	ldd	r24, Y+1	; 0x01
     e5c:	9a 81       	ldd	r25, Y+2	; 0x02
     e5e:	8d 53       	subi	r24, 0x3D	; 61
     e60:	9a 4f       	sbci	r25, 0xFA	; 250
     e62:	fc 01       	movw	r30, r24
     e64:	16 aa       	std	Z+54, r1	; 0x36
    spielfeld[25].farbGruppe = FARBLOS;
     e66:	89 81       	ldd	r24, Y+1	; 0x01
     e68:	9a 81       	ldd	r25, Y+2	; 0x02
     e6a:	8d 53       	subi	r24, 0x3D	; 61
     e6c:	9a 4f       	sbci	r25, 0xFA	; 250
     e6e:	28 e0       	ldi	r18, 0x08	; 8
     e70:	fc 01       	movw	r30, r24
     e72:	27 ab       	std	Z+55, r18	; 0x37
    spielfeld[25].rgbNummer = 17;
     e74:	89 81       	ldd	r24, Y+1	; 0x01
     e76:	9a 81       	ldd	r25, Y+2	; 0x02
     e78:	8d 53       	subi	r24, 0x3D	; 61
     e7a:	9a 4f       	sbci	r25, 0xFA	; 250
     e7c:	21 e1       	ldi	r18, 0x11	; 17
     e7e:	fc 01       	movw	r30, r24
     e80:	22 af       	std	Z+58, r18	; 0x3a
    
    //Eigenschaften des Feldes: Lager Polymechaniker
    strcpy(spielfeld[26].name, "Lager Polymechaniker");
     e82:	89 81       	ldd	r24, Y+1	; 0x01
     e84:	9a 81       	ldd	r25, Y+2	; 0x02
     e86:	82 50       	subi	r24, 0x02	; 2
     e88:	9a 4f       	sbci	r25, 0xFA	; 250
     e8a:	9c 01       	movw	r18, r24
     e8c:	85 e1       	ldi	r24, 0x15	; 21
     e8e:	ef e8       	ldi	r30, 0x8F	; 143
     e90:	f3 e0       	ldi	r31, 0x03	; 3
     e92:	d9 01       	movw	r26, r18
     e94:	01 90       	ld	r0, Z+
     e96:	0d 92       	st	X+, r0
     e98:	8a 95       	dec	r24
     e9a:	e1 f7       	brne	.-8      	; 0xe94 <initialisiereSpielfeld+0xa80>
    spielfeld[26].typ = STRASSE;
     e9c:	89 81       	ldd	r24, Y+1	; 0x01
     e9e:	9a 81       	ldd	r25, Y+2	; 0x02
     ea0:	82 50       	subi	r24, 0x02	; 2
     ea2:	9a 4f       	sbci	r25, 0xFA	; 250
     ea4:	fc 01       	movw	r30, r24
     ea6:	12 aa       	std	Z+50, r1	; 0x32
    spielfeld[26].preis = 260;
     ea8:	89 81       	ldd	r24, Y+1	; 0x01
     eaa:	9a 81       	ldd	r25, Y+2	; 0x02
     eac:	82 50       	subi	r24, 0x02	; 2
     eae:	9a 4f       	sbci	r25, 0xFA	; 250
     eb0:	24 e0       	ldi	r18, 0x04	; 4
     eb2:	fc 01       	movw	r30, r24
     eb4:	23 ab       	std	Z+51, r18	; 0x33
    spielfeld[26].miete = 2;
     eb6:	89 81       	ldd	r24, Y+1	; 0x01
     eb8:	9a 81       	ldd	r25, Y+2	; 0x02
     eba:	82 50       	subi	r24, 0x02	; 2
     ebc:	9a 4f       	sbci	r25, 0xFA	; 250
     ebe:	22 e0       	ldi	r18, 0x02	; 2
     ec0:	30 e0       	ldi	r19, 0x00	; 0
     ec2:	fc 01       	movw	r30, r24
     ec4:	35 ab       	std	Z+53, r19	; 0x35
     ec6:	24 ab       	std	Z+52, r18	; 0x34
    spielfeld[26].besitzer = 0;
     ec8:	89 81       	ldd	r24, Y+1	; 0x01
     eca:	9a 81       	ldd	r25, Y+2	; 0x02
     ecc:	82 50       	subi	r24, 0x02	; 2
     ece:	9a 4f       	sbci	r25, 0xFA	; 250
     ed0:	fc 01       	movw	r30, r24
     ed2:	16 aa       	std	Z+54, r1	; 0x36
    spielfeld[26].farbGruppe = GELB;
     ed4:	89 81       	ldd	r24, Y+1	; 0x01
     ed6:	9a 81       	ldd	r25, Y+2	; 0x02
     ed8:	82 50       	subi	r24, 0x02	; 2
     eda:	9a 4f       	sbci	r25, 0xFA	; 250
     edc:	25 e0       	ldi	r18, 0x05	; 5
     ede:	fc 01       	movw	r30, r24
     ee0:	27 ab       	std	Z+55, r18	; 0x37
    spielfeld[26].hausnummer = 14;
     ee2:	89 81       	ldd	r24, Y+1	; 0x01
     ee4:	9a 81       	ldd	r25, Y+2	; 0x02
     ee6:	82 50       	subi	r24, 0x02	; 2
     ee8:	9a 4f       	sbci	r25, 0xFA	; 250
     eea:	2e e0       	ldi	r18, 0x0E	; 14
     eec:	fc 01       	movw	r30, r24
     eee:	20 af       	std	Z+56, r18	; 0x38
    spielfeld[26].anzahlHaeuser = 0;
     ef0:	89 81       	ldd	r24, Y+1	; 0x01
     ef2:	9a 81       	ldd	r25, Y+2	; 0x02
     ef4:	82 50       	subi	r24, 0x02	; 2
     ef6:	9a 4f       	sbci	r25, 0xFA	; 250
     ef8:	fc 01       	movw	r30, r24
     efa:	11 ae       	std	Z+57, r1	; 0x39
    spielfeld[26].rgbNummer = 18;
     efc:	89 81       	ldd	r24, Y+1	; 0x01
     efe:	9a 81       	ldd	r25, Y+2	; 0x02
     f00:	82 50       	subi	r24, 0x02	; 2
     f02:	9a 4f       	sbci	r25, 0xFA	; 250
     f04:	22 e1       	ldi	r18, 0x12	; 18
     f06:	fc 01       	movw	r30, r24
     f08:	22 af       	std	Z+58, r18	; 0x3a
    
    //Eigenschaften des Feldes: Lager Automatiker
    strcpy(spielfeld[27].name, "Lager Automatiker");
     f0a:	89 81       	ldd	r24, Y+1	; 0x01
     f0c:	9a 81       	ldd	r25, Y+2	; 0x02
     f0e:	87 5c       	subi	r24, 0xC7	; 199
     f10:	99 4f       	sbci	r25, 0xF9	; 249
     f12:	9c 01       	movw	r18, r24
     f14:	82 e1       	ldi	r24, 0x12	; 18
     f16:	e4 ea       	ldi	r30, 0xA4	; 164
     f18:	f3 e0       	ldi	r31, 0x03	; 3
     f1a:	d9 01       	movw	r26, r18
     f1c:	01 90       	ld	r0, Z+
     f1e:	0d 92       	st	X+, r0
     f20:	8a 95       	dec	r24
     f22:	e1 f7       	brne	.-8      	; 0xf1c <initialisiereSpielfeld+0xb08>
    spielfeld[27].typ = STRASSE;
     f24:	89 81       	ldd	r24, Y+1	; 0x01
     f26:	9a 81       	ldd	r25, Y+2	; 0x02
     f28:	87 5c       	subi	r24, 0xC7	; 199
     f2a:	99 4f       	sbci	r25, 0xF9	; 249
     f2c:	fc 01       	movw	r30, r24
     f2e:	12 aa       	std	Z+50, r1	; 0x32
    spielfeld[27].preis = 260;
     f30:	89 81       	ldd	r24, Y+1	; 0x01
     f32:	9a 81       	ldd	r25, Y+2	; 0x02
     f34:	87 5c       	subi	r24, 0xC7	; 199
     f36:	99 4f       	sbci	r25, 0xF9	; 249
     f38:	24 e0       	ldi	r18, 0x04	; 4
     f3a:	fc 01       	movw	r30, r24
     f3c:	23 ab       	std	Z+51, r18	; 0x33
    spielfeld[27].miete = 2;
     f3e:	89 81       	ldd	r24, Y+1	; 0x01
     f40:	9a 81       	ldd	r25, Y+2	; 0x02
     f42:	87 5c       	subi	r24, 0xC7	; 199
     f44:	99 4f       	sbci	r25, 0xF9	; 249
     f46:	22 e0       	ldi	r18, 0x02	; 2
     f48:	30 e0       	ldi	r19, 0x00	; 0
     f4a:	fc 01       	movw	r30, r24
     f4c:	35 ab       	std	Z+53, r19	; 0x35
     f4e:	24 ab       	std	Z+52, r18	; 0x34
    spielfeld[27].besitzer = 0;
     f50:	89 81       	ldd	r24, Y+1	; 0x01
     f52:	9a 81       	ldd	r25, Y+2	; 0x02
     f54:	87 5c       	subi	r24, 0xC7	; 199
     f56:	99 4f       	sbci	r25, 0xF9	; 249
     f58:	fc 01       	movw	r30, r24
     f5a:	16 aa       	std	Z+54, r1	; 0x36
    spielfeld[27].farbGruppe = GELB;
     f5c:	89 81       	ldd	r24, Y+1	; 0x01
     f5e:	9a 81       	ldd	r25, Y+2	; 0x02
     f60:	87 5c       	subi	r24, 0xC7	; 199
     f62:	99 4f       	sbci	r25, 0xF9	; 249
     f64:	25 e0       	ldi	r18, 0x05	; 5
     f66:	fc 01       	movw	r30, r24
     f68:	27 ab       	std	Z+55, r18	; 0x37
    spielfeld[27].hausnummer = 15;
     f6a:	89 81       	ldd	r24, Y+1	; 0x01
     f6c:	9a 81       	ldd	r25, Y+2	; 0x02
     f6e:	87 5c       	subi	r24, 0xC7	; 199
     f70:	99 4f       	sbci	r25, 0xF9	; 249
     f72:	2f e0       	ldi	r18, 0x0F	; 15
     f74:	fc 01       	movw	r30, r24
     f76:	20 af       	std	Z+56, r18	; 0x38
    spielfeld[27].anzahlHaeuser = 0;
     f78:	89 81       	ldd	r24, Y+1	; 0x01
     f7a:	9a 81       	ldd	r25, Y+2	; 0x02
     f7c:	87 5c       	subi	r24, 0xC7	; 199
     f7e:	99 4f       	sbci	r25, 0xF9	; 249
     f80:	fc 01       	movw	r30, r24
     f82:	11 ae       	std	Z+57, r1	; 0x39
    spielfeld[27].rgbNummer = 19;
     f84:	89 81       	ldd	r24, Y+1	; 0x01
     f86:	9a 81       	ldd	r25, Y+2	; 0x02
     f88:	87 5c       	subi	r24, 0xC7	; 199
     f8a:	99 4f       	sbci	r25, 0xF9	; 249
     f8c:	23 e1       	ldi	r18, 0x13	; 19
     f8e:	fc 01       	movw	r30, r24
     f90:	22 af       	std	Z+58, r18	; 0x3a
    
    //Eigenschaften des Feldes: Putzdienst
    strcpy(spielfeld[28].name, "Putzdienst");
     f92:	89 81       	ldd	r24, Y+1	; 0x01
     f94:	9a 81       	ldd	r25, Y+2	; 0x02
     f96:	8c 58       	subi	r24, 0x8C	; 140
     f98:	99 4f       	sbci	r25, 0xF9	; 249
     f9a:	9c 01       	movw	r18, r24
     f9c:	8b e0       	ldi	r24, 0x0B	; 11
     f9e:	e6 eb       	ldi	r30, 0xB6	; 182
     fa0:	f3 e0       	ldi	r31, 0x03	; 3
     fa2:	d9 01       	movw	r26, r18
     fa4:	01 90       	ld	r0, Z+
     fa6:	0d 92       	st	X+, r0
     fa8:	8a 95       	dec	r24
     faa:	e1 f7       	brne	.-8      	; 0xfa4 <initialisiereSpielfeld+0xb90>
    spielfeld[28].typ = WERK;
     fac:	89 81       	ldd	r24, Y+1	; 0x01
     fae:	9a 81       	ldd	r25, Y+2	; 0x02
     fb0:	8c 58       	subi	r24, 0x8C	; 140
     fb2:	99 4f       	sbci	r25, 0xF9	; 249
     fb4:	26 e0       	ldi	r18, 0x06	; 6
     fb6:	fc 01       	movw	r30, r24
     fb8:	22 ab       	std	Z+50, r18	; 0x32
    spielfeld[28].preis = 150;
     fba:	89 81       	ldd	r24, Y+1	; 0x01
     fbc:	9a 81       	ldd	r25, Y+2	; 0x02
     fbe:	8c 58       	subi	r24, 0x8C	; 140
     fc0:	99 4f       	sbci	r25, 0xF9	; 249
     fc2:	26 e9       	ldi	r18, 0x96	; 150
     fc4:	fc 01       	movw	r30, r24
     fc6:	23 ab       	std	Z+51, r18	; 0x33
    spielfeld[28].miete = 2;
     fc8:	89 81       	ldd	r24, Y+1	; 0x01
     fca:	9a 81       	ldd	r25, Y+2	; 0x02
     fcc:	8c 58       	subi	r24, 0x8C	; 140
     fce:	99 4f       	sbci	r25, 0xF9	; 249
     fd0:	22 e0       	ldi	r18, 0x02	; 2
     fd2:	30 e0       	ldi	r19, 0x00	; 0
     fd4:	fc 01       	movw	r30, r24
     fd6:	35 ab       	std	Z+53, r19	; 0x35
     fd8:	24 ab       	std	Z+52, r18	; 0x34
    spielfeld[28].besitzer = 0;
     fda:	89 81       	ldd	r24, Y+1	; 0x01
     fdc:	9a 81       	ldd	r25, Y+2	; 0x02
     fde:	8c 58       	subi	r24, 0x8C	; 140
     fe0:	99 4f       	sbci	r25, 0xF9	; 249
     fe2:	fc 01       	movw	r30, r24
     fe4:	16 aa       	std	Z+54, r1	; 0x36
    spielfeld[28].farbGruppe = FARBLOS;
     fe6:	89 81       	ldd	r24, Y+1	; 0x01
     fe8:	9a 81       	ldd	r25, Y+2	; 0x02
     fea:	8c 58       	subi	r24, 0x8C	; 140
     fec:	99 4f       	sbci	r25, 0xF9	; 249
     fee:	28 e0       	ldi	r18, 0x08	; 8
     ff0:	fc 01       	movw	r30, r24
     ff2:	27 ab       	std	Z+55, r18	; 0x37
    spielfeld[28].rgbNummer = 20;
     ff4:	89 81       	ldd	r24, Y+1	; 0x01
     ff6:	9a 81       	ldd	r25, Y+2	; 0x02
     ff8:	8c 58       	subi	r24, 0x8C	; 140
     ffa:	99 4f       	sbci	r25, 0xF9	; 249
     ffc:	24 e1       	ldi	r18, 0x14	; 20
     ffe:	fc 01       	movw	r30, r24
    1000:	22 af       	std	Z+58, r18	; 0x3a

    
    //Eigenschaften des Feldes: Lager Elektroniker
    strcpy(spielfeld[29].name, "Lager Elektroniker");
    1002:	89 81       	ldd	r24, Y+1	; 0x01
    1004:	9a 81       	ldd	r25, Y+2	; 0x02
    1006:	81 55       	subi	r24, 0x51	; 81
    1008:	99 4f       	sbci	r25, 0xF9	; 249
    100a:	9c 01       	movw	r18, r24
    100c:	83 e1       	ldi	r24, 0x13	; 19
    100e:	e1 ec       	ldi	r30, 0xC1	; 193
    1010:	f3 e0       	ldi	r31, 0x03	; 3
    1012:	d9 01       	movw	r26, r18
    1014:	01 90       	ld	r0, Z+
    1016:	0d 92       	st	X+, r0
    1018:	8a 95       	dec	r24
    101a:	e1 f7       	brne	.-8      	; 0x1014 <__EEPROM_REGION_LENGTH__+0x14>
    spielfeld[29].typ = STRASSE;
    101c:	89 81       	ldd	r24, Y+1	; 0x01
    101e:	9a 81       	ldd	r25, Y+2	; 0x02
    1020:	81 55       	subi	r24, 0x51	; 81
    1022:	99 4f       	sbci	r25, 0xF9	; 249
    1024:	fc 01       	movw	r30, r24
    1026:	12 aa       	std	Z+50, r1	; 0x32
    spielfeld[29].preis = 280;
    1028:	89 81       	ldd	r24, Y+1	; 0x01
    102a:	9a 81       	ldd	r25, Y+2	; 0x02
    102c:	81 55       	subi	r24, 0x51	; 81
    102e:	99 4f       	sbci	r25, 0xF9	; 249
    1030:	28 e1       	ldi	r18, 0x18	; 24
    1032:	fc 01       	movw	r30, r24
    1034:	23 ab       	std	Z+51, r18	; 0x33
    spielfeld[29].miete = 2;
    1036:	89 81       	ldd	r24, Y+1	; 0x01
    1038:	9a 81       	ldd	r25, Y+2	; 0x02
    103a:	81 55       	subi	r24, 0x51	; 81
    103c:	99 4f       	sbci	r25, 0xF9	; 249
    103e:	22 e0       	ldi	r18, 0x02	; 2
    1040:	30 e0       	ldi	r19, 0x00	; 0
    1042:	fc 01       	movw	r30, r24
    1044:	35 ab       	std	Z+53, r19	; 0x35
    1046:	24 ab       	std	Z+52, r18	; 0x34
    spielfeld[29].besitzer = 0;
    1048:	89 81       	ldd	r24, Y+1	; 0x01
    104a:	9a 81       	ldd	r25, Y+2	; 0x02
    104c:	81 55       	subi	r24, 0x51	; 81
    104e:	99 4f       	sbci	r25, 0xF9	; 249
    1050:	fc 01       	movw	r30, r24
    1052:	16 aa       	std	Z+54, r1	; 0x36
    spielfeld[29].farbGruppe = GELB;
    1054:	89 81       	ldd	r24, Y+1	; 0x01
    1056:	9a 81       	ldd	r25, Y+2	; 0x02
    1058:	81 55       	subi	r24, 0x51	; 81
    105a:	99 4f       	sbci	r25, 0xF9	; 249
    105c:	25 e0       	ldi	r18, 0x05	; 5
    105e:	fc 01       	movw	r30, r24
    1060:	27 ab       	std	Z+55, r18	; 0x37
    spielfeld[29].hausnummer = 16;
    1062:	89 81       	ldd	r24, Y+1	; 0x01
    1064:	9a 81       	ldd	r25, Y+2	; 0x02
    1066:	81 55       	subi	r24, 0x51	; 81
    1068:	99 4f       	sbci	r25, 0xF9	; 249
    106a:	20 e1       	ldi	r18, 0x10	; 16
    106c:	fc 01       	movw	r30, r24
    106e:	20 af       	std	Z+56, r18	; 0x38
    spielfeld[29].anzahlHaeuser = 0;
    1070:	89 81       	ldd	r24, Y+1	; 0x01
    1072:	9a 81       	ldd	r25, Y+2	; 0x02
    1074:	81 55       	subi	r24, 0x51	; 81
    1076:	99 4f       	sbci	r25, 0xF9	; 249
    1078:	fc 01       	movw	r30, r24
    107a:	11 ae       	std	Z+57, r1	; 0x39
    spielfeld[29].rgbNummer = 21;
    107c:	89 81       	ldd	r24, Y+1	; 0x01
    107e:	9a 81       	ldd	r25, Y+2	; 0x02
    1080:	81 55       	subi	r24, 0x51	; 81
    1082:	99 4f       	sbci	r25, 0xF9	; 249
    1084:	25 e1       	ldi	r18, 0x15	; 21
    1086:	fc 01       	movw	r30, r24
    1088:	22 af       	std	Z+58, r18	; 0x3a
    
    //Eigenschaften des Feldes: Geh ins Gefängnis
    strcpy(spielfeld[30].name, "Geh ins Gefaengnis");
    108a:	89 81       	ldd	r24, Y+1	; 0x01
    108c:	9a 81       	ldd	r25, Y+2	; 0x02
    108e:	86 51       	subi	r24, 0x16	; 22
    1090:	99 4f       	sbci	r25, 0xF9	; 249
    1092:	9c 01       	movw	r18, r24
    1094:	83 e1       	ldi	r24, 0x13	; 19
    1096:	e4 ed       	ldi	r30, 0xD4	; 212
    1098:	f3 e0       	ldi	r31, 0x03	; 3
    109a:	d9 01       	movw	r26, r18
    109c:	01 90       	ld	r0, Z+
    109e:	0d 92       	st	X+, r0
    10a0:	8a 95       	dec	r24
    10a2:	e1 f7       	brne	.-8      	; 0x109c <__EEPROM_REGION_LENGTH__+0x9c>
    spielfeld[30].typ = GEH_INS_GEFAENGNIS;
    10a4:	89 81       	ldd	r24, Y+1	; 0x01
    10a6:	9a 81       	ldd	r25, Y+2	; 0x02
    10a8:	86 51       	subi	r24, 0x16	; 22
    10aa:	99 4f       	sbci	r25, 0xF9	; 249
    10ac:	25 e0       	ldi	r18, 0x05	; 5
    10ae:	fc 01       	movw	r30, r24
    10b0:	22 ab       	std	Z+50, r18	; 0x32
    
    //Eigenschaften des Feldes: Grundausbildung Elektroniker
    strcpy(spielfeld[31].name, "Grundausbildung Elektroniker");
    10b2:	89 81       	ldd	r24, Y+1	; 0x01
    10b4:	9a 81       	ldd	r25, Y+2	; 0x02
    10b6:	8b 5d       	subi	r24, 0xDB	; 219
    10b8:	98 4f       	sbci	r25, 0xF8	; 248
    10ba:	9c 01       	movw	r18, r24
    10bc:	8d e1       	ldi	r24, 0x1D	; 29
    10be:	e7 ee       	ldi	r30, 0xE7	; 231
    10c0:	f3 e0       	ldi	r31, 0x03	; 3
    10c2:	d9 01       	movw	r26, r18
    10c4:	01 90       	ld	r0, Z+
    10c6:	0d 92       	st	X+, r0
    10c8:	8a 95       	dec	r24
    10ca:	e1 f7       	brne	.-8      	; 0x10c4 <__EEPROM_REGION_LENGTH__+0xc4>
    spielfeld[31].typ = STRASSE;
    10cc:	89 81       	ldd	r24, Y+1	; 0x01
    10ce:	9a 81       	ldd	r25, Y+2	; 0x02
    10d0:	8b 5d       	subi	r24, 0xDB	; 219
    10d2:	98 4f       	sbci	r25, 0xF8	; 248
    10d4:	fc 01       	movw	r30, r24
    10d6:	12 aa       	std	Z+50, r1	; 0x32
    spielfeld[31].preis = 300;
    10d8:	89 81       	ldd	r24, Y+1	; 0x01
    10da:	9a 81       	ldd	r25, Y+2	; 0x02
    10dc:	8b 5d       	subi	r24, 0xDB	; 219
    10de:	98 4f       	sbci	r25, 0xF8	; 248
    10e0:	2c e2       	ldi	r18, 0x2C	; 44
    10e2:	fc 01       	movw	r30, r24
    10e4:	23 ab       	std	Z+51, r18	; 0x33
    spielfeld[31].miete = 2;
    10e6:	89 81       	ldd	r24, Y+1	; 0x01
    10e8:	9a 81       	ldd	r25, Y+2	; 0x02
    10ea:	8b 5d       	subi	r24, 0xDB	; 219
    10ec:	98 4f       	sbci	r25, 0xF8	; 248
    10ee:	22 e0       	ldi	r18, 0x02	; 2
    10f0:	30 e0       	ldi	r19, 0x00	; 0
    10f2:	fc 01       	movw	r30, r24
    10f4:	35 ab       	std	Z+53, r19	; 0x35
    10f6:	24 ab       	std	Z+52, r18	; 0x34
    spielfeld[31].besitzer = 0;
    10f8:	89 81       	ldd	r24, Y+1	; 0x01
    10fa:	9a 81       	ldd	r25, Y+2	; 0x02
    10fc:	8b 5d       	subi	r24, 0xDB	; 219
    10fe:	98 4f       	sbci	r25, 0xF8	; 248
    1100:	fc 01       	movw	r30, r24
    1102:	16 aa       	std	Z+54, r1	; 0x36
    spielfeld[31].farbGruppe = GRUEN;
    1104:	89 81       	ldd	r24, Y+1	; 0x01
    1106:	9a 81       	ldd	r25, Y+2	; 0x02
    1108:	8b 5d       	subi	r24, 0xDB	; 219
    110a:	98 4f       	sbci	r25, 0xF8	; 248
    110c:	26 e0       	ldi	r18, 0x06	; 6
    110e:	fc 01       	movw	r30, r24
    1110:	27 ab       	std	Z+55, r18	; 0x37
    spielfeld[31].hausnummer = 17;
    1112:	89 81       	ldd	r24, Y+1	; 0x01
    1114:	9a 81       	ldd	r25, Y+2	; 0x02
    1116:	8b 5d       	subi	r24, 0xDB	; 219
    1118:	98 4f       	sbci	r25, 0xF8	; 248
    111a:	21 e1       	ldi	r18, 0x11	; 17
    111c:	fc 01       	movw	r30, r24
    111e:	20 af       	std	Z+56, r18	; 0x38
    spielfeld[31].anzahlHaeuser = 0;
    1120:	89 81       	ldd	r24, Y+1	; 0x01
    1122:	9a 81       	ldd	r25, Y+2	; 0x02
    1124:	8b 5d       	subi	r24, 0xDB	; 219
    1126:	98 4f       	sbci	r25, 0xF8	; 248
    1128:	fc 01       	movw	r30, r24
    112a:	11 ae       	std	Z+57, r1	; 0x39
    spielfeld[31].rgbNummer = 22;
    112c:	89 81       	ldd	r24, Y+1	; 0x01
    112e:	9a 81       	ldd	r25, Y+2	; 0x02
    1130:	8b 5d       	subi	r24, 0xDB	; 219
    1132:	98 4f       	sbci	r25, 0xF8	; 248
    1134:	26 e1       	ldi	r18, 0x16	; 22
    1136:	fc 01       	movw	r30, r24
    1138:	22 af       	std	Z+58, r18	; 0x3a
    
    //Eigenschaften des Feldes: Produktion Elektroniker
    strcpy(spielfeld[32].name, "Produktion Elektroniker");
    113a:	89 81       	ldd	r24, Y+1	; 0x01
    113c:	9a 81       	ldd	r25, Y+2	; 0x02
    113e:	80 5a       	subi	r24, 0xA0	; 160
    1140:	98 4f       	sbci	r25, 0xF8	; 248
    1142:	9c 01       	movw	r18, r24
    1144:	88 e1       	ldi	r24, 0x18	; 24
    1146:	e4 e0       	ldi	r30, 0x04	; 4
    1148:	f4 e0       	ldi	r31, 0x04	; 4
    114a:	d9 01       	movw	r26, r18
    114c:	01 90       	ld	r0, Z+
    114e:	0d 92       	st	X+, r0
    1150:	8a 95       	dec	r24
    1152:	e1 f7       	brne	.-8      	; 0x114c <__EEPROM_REGION_LENGTH__+0x14c>
    spielfeld[32].typ = STRASSE;
    1154:	89 81       	ldd	r24, Y+1	; 0x01
    1156:	9a 81       	ldd	r25, Y+2	; 0x02
    1158:	80 5a       	subi	r24, 0xA0	; 160
    115a:	98 4f       	sbci	r25, 0xF8	; 248
    115c:	fc 01       	movw	r30, r24
    115e:	12 aa       	std	Z+50, r1	; 0x32
    spielfeld[32].preis = 300;
    1160:	89 81       	ldd	r24, Y+1	; 0x01
    1162:	9a 81       	ldd	r25, Y+2	; 0x02
    1164:	80 5a       	subi	r24, 0xA0	; 160
    1166:	98 4f       	sbci	r25, 0xF8	; 248
    1168:	2c e2       	ldi	r18, 0x2C	; 44
    116a:	fc 01       	movw	r30, r24
    116c:	23 ab       	std	Z+51, r18	; 0x33
    spielfeld[32].miete = 2;
    116e:	89 81       	ldd	r24, Y+1	; 0x01
    1170:	9a 81       	ldd	r25, Y+2	; 0x02
    1172:	80 5a       	subi	r24, 0xA0	; 160
    1174:	98 4f       	sbci	r25, 0xF8	; 248
    1176:	22 e0       	ldi	r18, 0x02	; 2
    1178:	30 e0       	ldi	r19, 0x00	; 0
    117a:	fc 01       	movw	r30, r24
    117c:	35 ab       	std	Z+53, r19	; 0x35
    117e:	24 ab       	std	Z+52, r18	; 0x34
    spielfeld[32].besitzer = 0;
    1180:	89 81       	ldd	r24, Y+1	; 0x01
    1182:	9a 81       	ldd	r25, Y+2	; 0x02
    1184:	80 5a       	subi	r24, 0xA0	; 160
    1186:	98 4f       	sbci	r25, 0xF8	; 248
    1188:	fc 01       	movw	r30, r24
    118a:	16 aa       	std	Z+54, r1	; 0x36
    spielfeld[32].farbGruppe = GRUEN;
    118c:	89 81       	ldd	r24, Y+1	; 0x01
    118e:	9a 81       	ldd	r25, Y+2	; 0x02
    1190:	80 5a       	subi	r24, 0xA0	; 160
    1192:	98 4f       	sbci	r25, 0xF8	; 248
    1194:	26 e0       	ldi	r18, 0x06	; 6
    1196:	fc 01       	movw	r30, r24
    1198:	27 ab       	std	Z+55, r18	; 0x37
    spielfeld[32].hausnummer = 18;
    119a:	89 81       	ldd	r24, Y+1	; 0x01
    119c:	9a 81       	ldd	r25, Y+2	; 0x02
    119e:	80 5a       	subi	r24, 0xA0	; 160
    11a0:	98 4f       	sbci	r25, 0xF8	; 248
    11a2:	22 e1       	ldi	r18, 0x12	; 18
    11a4:	fc 01       	movw	r30, r24
    11a6:	20 af       	std	Z+56, r18	; 0x38
    spielfeld[32].anzahlHaeuser = 0;
    11a8:	89 81       	ldd	r24, Y+1	; 0x01
    11aa:	9a 81       	ldd	r25, Y+2	; 0x02
    11ac:	80 5a       	subi	r24, 0xA0	; 160
    11ae:	98 4f       	sbci	r25, 0xF8	; 248
    11b0:	fc 01       	movw	r30, r24
    11b2:	11 ae       	std	Z+57, r1	; 0x39
    spielfeld[32].rgbNummer = 23;
    11b4:	89 81       	ldd	r24, Y+1	; 0x01
    11b6:	9a 81       	ldd	r25, Y+2	; 0x02
    11b8:	80 5a       	subi	r24, 0xA0	; 160
    11ba:	98 4f       	sbci	r25, 0xF8	; 248
    11bc:	27 e1       	ldi	r18, 0x17	; 23
    11be:	fc 01       	movw	r30, r24
    11c0:	22 af       	std	Z+58, r18	; 0x3a
    
    //Eigenschaften des Feldes: Kanzlei2
    strcpy(spielfeld[33].name, "Kanzlei 2");
    11c2:	89 81       	ldd	r24, Y+1	; 0x01
    11c4:	9a 81       	ldd	r25, Y+2	; 0x02
    11c6:	85 56       	subi	r24, 0x65	; 101
    11c8:	98 4f       	sbci	r25, 0xF8	; 248
    11ca:	9c 01       	movw	r18, r24
    11cc:	8a e0       	ldi	r24, 0x0A	; 10
    11ce:	e1 e0       	ldi	r30, 0x01	; 1
    11d0:	f3 e0       	ldi	r31, 0x03	; 3
    11d2:	d9 01       	movw	r26, r18
    11d4:	01 90       	ld	r0, Z+
    11d6:	0d 92       	st	X+, r0
    11d8:	8a 95       	dec	r24
    11da:	e1 f7       	brne	.-8      	; 0x11d4 <__EEPROM_REGION_LENGTH__+0x1d4>
    spielfeld[33].typ = EREIGNISFELD;
    11dc:	89 81       	ldd	r24, Y+1	; 0x01
    11de:	9a 81       	ldd	r25, Y+2	; 0x02
    11e0:	85 56       	subi	r24, 0x65	; 101
    11e2:	98 4f       	sbci	r25, 0xF8	; 248
    11e4:	21 e0       	ldi	r18, 0x01	; 1
    11e6:	fc 01       	movw	r30, r24
    11e8:	22 ab       	std	Z+50, r18	; 0x32
    
    //Eigenschaften des Feldes: Entwicklung Elektroniker
    strcpy(spielfeld[34].name, "Entwicklung Elektroniker");
    11ea:	89 81       	ldd	r24, Y+1	; 0x01
    11ec:	9a 81       	ldd	r25, Y+2	; 0x02
    11ee:	8a 52       	subi	r24, 0x2A	; 42
    11f0:	98 4f       	sbci	r25, 0xF8	; 248
    11f2:	9c 01       	movw	r18, r24
    11f4:	89 e1       	ldi	r24, 0x19	; 25
    11f6:	ec e1       	ldi	r30, 0x1C	; 28
    11f8:	f4 e0       	ldi	r31, 0x04	; 4
    11fa:	d9 01       	movw	r26, r18
    11fc:	01 90       	ld	r0, Z+
    11fe:	0d 92       	st	X+, r0
    1200:	8a 95       	dec	r24
    1202:	e1 f7       	brne	.-8      	; 0x11fc <__EEPROM_REGION_LENGTH__+0x1fc>
    spielfeld[34].typ = STRASSE;
    1204:	89 81       	ldd	r24, Y+1	; 0x01
    1206:	9a 81       	ldd	r25, Y+2	; 0x02
    1208:	8a 52       	subi	r24, 0x2A	; 42
    120a:	98 4f       	sbci	r25, 0xF8	; 248
    120c:	fc 01       	movw	r30, r24
    120e:	12 aa       	std	Z+50, r1	; 0x32
    spielfeld[34].preis = 320;
    1210:	89 81       	ldd	r24, Y+1	; 0x01
    1212:	9a 81       	ldd	r25, Y+2	; 0x02
    1214:	8a 52       	subi	r24, 0x2A	; 42
    1216:	98 4f       	sbci	r25, 0xF8	; 248
    1218:	20 e4       	ldi	r18, 0x40	; 64
    121a:	fc 01       	movw	r30, r24
    121c:	23 ab       	std	Z+51, r18	; 0x33
    spielfeld[34].miete = 2;
    121e:	89 81       	ldd	r24, Y+1	; 0x01
    1220:	9a 81       	ldd	r25, Y+2	; 0x02
    1222:	8a 52       	subi	r24, 0x2A	; 42
    1224:	98 4f       	sbci	r25, 0xF8	; 248
    1226:	22 e0       	ldi	r18, 0x02	; 2
    1228:	30 e0       	ldi	r19, 0x00	; 0
    122a:	fc 01       	movw	r30, r24
    122c:	35 ab       	std	Z+53, r19	; 0x35
    122e:	24 ab       	std	Z+52, r18	; 0x34
    spielfeld[34].besitzer = 0;
    1230:	89 81       	ldd	r24, Y+1	; 0x01
    1232:	9a 81       	ldd	r25, Y+2	; 0x02
    1234:	8a 52       	subi	r24, 0x2A	; 42
    1236:	98 4f       	sbci	r25, 0xF8	; 248
    1238:	fc 01       	movw	r30, r24
    123a:	16 aa       	std	Z+54, r1	; 0x36
    spielfeld[34].farbGruppe = GRUEN;
    123c:	89 81       	ldd	r24, Y+1	; 0x01
    123e:	9a 81       	ldd	r25, Y+2	; 0x02
    1240:	8a 52       	subi	r24, 0x2A	; 42
    1242:	98 4f       	sbci	r25, 0xF8	; 248
    1244:	26 e0       	ldi	r18, 0x06	; 6
    1246:	fc 01       	movw	r30, r24
    1248:	27 ab       	std	Z+55, r18	; 0x37
    spielfeld[34].hausnummer = 19;
    124a:	89 81       	ldd	r24, Y+1	; 0x01
    124c:	9a 81       	ldd	r25, Y+2	; 0x02
    124e:	8a 52       	subi	r24, 0x2A	; 42
    1250:	98 4f       	sbci	r25, 0xF8	; 248
    1252:	23 e1       	ldi	r18, 0x13	; 19
    1254:	fc 01       	movw	r30, r24
    1256:	20 af       	std	Z+56, r18	; 0x38
    spielfeld[34].anzahlHaeuser = 0;
    1258:	89 81       	ldd	r24, Y+1	; 0x01
    125a:	9a 81       	ldd	r25, Y+2	; 0x02
    125c:	8a 52       	subi	r24, 0x2A	; 42
    125e:	98 4f       	sbci	r25, 0xF8	; 248
    1260:	fc 01       	movw	r30, r24
    1262:	11 ae       	std	Z+57, r1	; 0x39
    spielfeld[34].rgbNummer = 24;
    1264:	89 81       	ldd	r24, Y+1	; 0x01
    1266:	9a 81       	ldd	r25, Y+2	; 0x02
    1268:	8a 52       	subi	r24, 0x2A	; 42
    126a:	98 4f       	sbci	r25, 0xF8	; 248
    126c:	28 e1       	ldi	r18, 0x18	; 24
    126e:	fc 01       	movw	r30, r24
    1270:	22 af       	std	Z+58, r18	; 0x3a
    
    //Eigenschaften des Feldes: Gewerbeschule
    strcpy(spielfeld[35].name, "Gewerbeschule");
    1272:	89 81       	ldd	r24, Y+1	; 0x01
    1274:	9a 81       	ldd	r25, Y+2	; 0x02
    1276:	8f 5e       	subi	r24, 0xEF	; 239
    1278:	97 4f       	sbci	r25, 0xF7	; 247
    127a:	9c 01       	movw	r18, r24
    127c:	8e e0       	ldi	r24, 0x0E	; 14
    127e:	e5 e3       	ldi	r30, 0x35	; 53
    1280:	f4 e0       	ldi	r31, 0x04	; 4
    1282:	d9 01       	movw	r26, r18
    1284:	01 90       	ld	r0, Z+
    1286:	0d 92       	st	X+, r0
    1288:	8a 95       	dec	r24
    128a:	e1 f7       	brne	.-8      	; 0x1284 <__EEPROM_REGION_LENGTH__+0x284>
    spielfeld[35].typ = HALTESTELLE;
    128c:	89 81       	ldd	r24, Y+1	; 0x01
    128e:	9a 81       	ldd	r25, Y+2	; 0x02
    1290:	8f 5e       	subi	r24, 0xEF	; 239
    1292:	97 4f       	sbci	r25, 0xF7	; 247
    1294:	27 e0       	ldi	r18, 0x07	; 7
    1296:	fc 01       	movw	r30, r24
    1298:	22 ab       	std	Z+50, r18	; 0x32
    spielfeld[35].preis = 200;
    129a:	89 81       	ldd	r24, Y+1	; 0x01
    129c:	9a 81       	ldd	r25, Y+2	; 0x02
    129e:	8f 5e       	subi	r24, 0xEF	; 239
    12a0:	97 4f       	sbci	r25, 0xF7	; 247
    12a2:	28 ec       	ldi	r18, 0xC8	; 200
    12a4:	fc 01       	movw	r30, r24
    12a6:	23 ab       	std	Z+51, r18	; 0x33
    spielfeld[35].miete = 2;
    12a8:	89 81       	ldd	r24, Y+1	; 0x01
    12aa:	9a 81       	ldd	r25, Y+2	; 0x02
    12ac:	8f 5e       	subi	r24, 0xEF	; 239
    12ae:	97 4f       	sbci	r25, 0xF7	; 247
    12b0:	22 e0       	ldi	r18, 0x02	; 2
    12b2:	30 e0       	ldi	r19, 0x00	; 0
    12b4:	fc 01       	movw	r30, r24
    12b6:	35 ab       	std	Z+53, r19	; 0x35
    12b8:	24 ab       	std	Z+52, r18	; 0x34
    spielfeld[35].besitzer = 0;
    12ba:	89 81       	ldd	r24, Y+1	; 0x01
    12bc:	9a 81       	ldd	r25, Y+2	; 0x02
    12be:	8f 5e       	subi	r24, 0xEF	; 239
    12c0:	97 4f       	sbci	r25, 0xF7	; 247
    12c2:	fc 01       	movw	r30, r24
    12c4:	16 aa       	std	Z+54, r1	; 0x36
    spielfeld[35].farbGruppe = FARBLOS;
    12c6:	89 81       	ldd	r24, Y+1	; 0x01
    12c8:	9a 81       	ldd	r25, Y+2	; 0x02
    12ca:	8f 5e       	subi	r24, 0xEF	; 239
    12cc:	97 4f       	sbci	r25, 0xF7	; 247
    12ce:	28 e0       	ldi	r18, 0x08	; 8
    12d0:	fc 01       	movw	r30, r24
    12d2:	27 ab       	std	Z+55, r18	; 0x37
    spielfeld[35].rgbNummer = 25;
    12d4:	89 81       	ldd	r24, Y+1	; 0x01
    12d6:	9a 81       	ldd	r25, Y+2	; 0x02
    12d8:	8f 5e       	subi	r24, 0xEF	; 239
    12da:	97 4f       	sbci	r25, 0xF7	; 247
    12dc:	29 e1       	ldi	r18, 0x19	; 25
    12de:	fc 01       	movw	r30, r24
    12e0:	22 af       	std	Z+58, r18	; 0x3a
    
    //Eigenschaften des Feldes: Chance 3
    strcpy(spielfeld[36].name, "Chance 3");
    12e2:	89 81       	ldd	r24, Y+1	; 0x01
    12e4:	9a 81       	ldd	r25, Y+2	; 0x02
    12e6:	84 5b       	subi	r24, 0xB4	; 180
    12e8:	97 4f       	sbci	r25, 0xF7	; 247
    12ea:	9c 01       	movw	r18, r24
    12ec:	89 e0       	ldi	r24, 0x09	; 9
    12ee:	e3 e4       	ldi	r30, 0x43	; 67
    12f0:	f4 e0       	ldi	r31, 0x04	; 4
    12f2:	d9 01       	movw	r26, r18
    12f4:	01 90       	ld	r0, Z+
    12f6:	0d 92       	st	X+, r0
    12f8:	8a 95       	dec	r24
    12fa:	e1 f7       	brne	.-8      	; 0x12f4 <__EEPROM_REGION_LENGTH__+0x2f4>
    spielfeld[36].typ = EREIGNISFELD;
    12fc:	89 81       	ldd	r24, Y+1	; 0x01
    12fe:	9a 81       	ldd	r25, Y+2	; 0x02
    1300:	84 5b       	subi	r24, 0xB4	; 180
    1302:	97 4f       	sbci	r25, 0xF7	; 247
    1304:	21 e0       	ldi	r18, 0x01	; 1
    1306:	fc 01       	movw	r30, r24
    1308:	22 ab       	std	Z+50, r18	; 0x32
    
    //Eigenschaften des Feldes: Grundausbildung Polymechaniker
    strcpy(spielfeld[37].name, "Grundausbildung Polymechaniker");
    130a:	89 81       	ldd	r24, Y+1	; 0x01
    130c:	9a 81       	ldd	r25, Y+2	; 0x02
    130e:	89 57       	subi	r24, 0x79	; 121
    1310:	97 4f       	sbci	r25, 0xF7	; 247
    1312:	9c 01       	movw	r18, r24
    1314:	8f e1       	ldi	r24, 0x1F	; 31
    1316:	ec e4       	ldi	r30, 0x4C	; 76
    1318:	f4 e0       	ldi	r31, 0x04	; 4
    131a:	d9 01       	movw	r26, r18
    131c:	01 90       	ld	r0, Z+
    131e:	0d 92       	st	X+, r0
    1320:	8a 95       	dec	r24
    1322:	e1 f7       	brne	.-8      	; 0x131c <__EEPROM_REGION_LENGTH__+0x31c>
    spielfeld[37].typ = STRASSE;
    1324:	89 81       	ldd	r24, Y+1	; 0x01
    1326:	9a 81       	ldd	r25, Y+2	; 0x02
    1328:	89 57       	subi	r24, 0x79	; 121
    132a:	97 4f       	sbci	r25, 0xF7	; 247
    132c:	fc 01       	movw	r30, r24
    132e:	12 aa       	std	Z+50, r1	; 0x32
    spielfeld[37].preis = 350;
    1330:	89 81       	ldd	r24, Y+1	; 0x01
    1332:	9a 81       	ldd	r25, Y+2	; 0x02
    1334:	89 57       	subi	r24, 0x79	; 121
    1336:	97 4f       	sbci	r25, 0xF7	; 247
    1338:	2e e5       	ldi	r18, 0x5E	; 94
    133a:	fc 01       	movw	r30, r24
    133c:	23 ab       	std	Z+51, r18	; 0x33
    spielfeld[37].miete = 2;
    133e:	89 81       	ldd	r24, Y+1	; 0x01
    1340:	9a 81       	ldd	r25, Y+2	; 0x02
    1342:	89 57       	subi	r24, 0x79	; 121
    1344:	97 4f       	sbci	r25, 0xF7	; 247
    1346:	22 e0       	ldi	r18, 0x02	; 2
    1348:	30 e0       	ldi	r19, 0x00	; 0
    134a:	fc 01       	movw	r30, r24
    134c:	35 ab       	std	Z+53, r19	; 0x35
    134e:	24 ab       	std	Z+52, r18	; 0x34
    spielfeld[37].besitzer = 0;
    1350:	89 81       	ldd	r24, Y+1	; 0x01
    1352:	9a 81       	ldd	r25, Y+2	; 0x02
    1354:	89 57       	subi	r24, 0x79	; 121
    1356:	97 4f       	sbci	r25, 0xF7	; 247
    1358:	fc 01       	movw	r30, r24
    135a:	16 aa       	std	Z+54, r1	; 0x36
    spielfeld[37].farbGruppe = BLAU;
    135c:	89 81       	ldd	r24, Y+1	; 0x01
    135e:	9a 81       	ldd	r25, Y+2	; 0x02
    1360:	89 57       	subi	r24, 0x79	; 121
    1362:	97 4f       	sbci	r25, 0xF7	; 247
    1364:	27 e0       	ldi	r18, 0x07	; 7
    1366:	fc 01       	movw	r30, r24
    1368:	27 ab       	std	Z+55, r18	; 0x37
    spielfeld[37].hausnummer = 20;
    136a:	89 81       	ldd	r24, Y+1	; 0x01
    136c:	9a 81       	ldd	r25, Y+2	; 0x02
    136e:	89 57       	subi	r24, 0x79	; 121
    1370:	97 4f       	sbci	r25, 0xF7	; 247
    1372:	24 e1       	ldi	r18, 0x14	; 20
    1374:	fc 01       	movw	r30, r24
    1376:	20 af       	std	Z+56, r18	; 0x38
    spielfeld[37].anzahlHaeuser = 0;
    1378:	89 81       	ldd	r24, Y+1	; 0x01
    137a:	9a 81       	ldd	r25, Y+2	; 0x02
    137c:	89 57       	subi	r24, 0x79	; 121
    137e:	97 4f       	sbci	r25, 0xF7	; 247
    1380:	fc 01       	movw	r30, r24
    1382:	11 ae       	std	Z+57, r1	; 0x39
    spielfeld[37].rgbNummer = 26;
    1384:	89 81       	ldd	r24, Y+1	; 0x01
    1386:	9a 81       	ldd	r25, Y+2	; 0x02
    1388:	89 57       	subi	r24, 0x79	; 121
    138a:	97 4f       	sbci	r25, 0xF7	; 247
    138c:	2a e1       	ldi	r18, 0x1A	; 26
    138e:	fc 01       	movw	r30, r24
    1390:	22 af       	std	Z+58, r18	; 0x3a
    
    //Eigenschaften des Feldes: Schulmaterialkosten
    strcpy(spielfeld[38].name, "Schulmaterialkosten");
    1392:	89 81       	ldd	r24, Y+1	; 0x01
    1394:	9a 81       	ldd	r25, Y+2	; 0x02
    1396:	8e 53       	subi	r24, 0x3E	; 62
    1398:	97 4f       	sbci	r25, 0xF7	; 247
    139a:	9c 01       	movw	r18, r24
    139c:	84 e1       	ldi	r24, 0x14	; 20
    139e:	eb e6       	ldi	r30, 0x6B	; 107
    13a0:	f4 e0       	ldi	r31, 0x04	; 4
    13a2:	d9 01       	movw	r26, r18
    13a4:	01 90       	ld	r0, Z+
    13a6:	0d 92       	st	X+, r0
    13a8:	8a 95       	dec	r24
    13aa:	e1 f7       	brne	.-8      	; 0x13a4 <__EEPROM_REGION_LENGTH__+0x3a4>
    spielfeld[38].typ = STEUERFELD;
    13ac:	89 81       	ldd	r24, Y+1	; 0x01
    13ae:	9a 81       	ldd	r25, Y+2	; 0x02
    13b0:	8e 53       	subi	r24, 0x3E	; 62
    13b2:	97 4f       	sbci	r25, 0xF7	; 247
    13b4:	22 e0       	ldi	r18, 0x02	; 2
    13b6:	fc 01       	movw	r30, r24
    13b8:	22 ab       	std	Z+50, r18	; 0x32
    spielfeld[38].preis = 100;
    13ba:	89 81       	ldd	r24, Y+1	; 0x01
    13bc:	9a 81       	ldd	r25, Y+2	; 0x02
    13be:	8e 53       	subi	r24, 0x3E	; 62
    13c0:	97 4f       	sbci	r25, 0xF7	; 247
    13c2:	24 e6       	ldi	r18, 0x64	; 100
    13c4:	fc 01       	movw	r30, r24
    13c6:	23 ab       	std	Z+51, r18	; 0x33
    
    //Eigenschaften des Feldes: Produktion Polymechaniker
    strcpy(spielfeld[39].name, "Produktion Polimechaniker");
    13c8:	89 81       	ldd	r24, Y+1	; 0x01
    13ca:	9a 81       	ldd	r25, Y+2	; 0x02
    13cc:	83 50       	subi	r24, 0x03	; 3
    13ce:	97 4f       	sbci	r25, 0xF7	; 247
    13d0:	9c 01       	movw	r18, r24
    13d2:	8a e1       	ldi	r24, 0x1A	; 26
    13d4:	ef e7       	ldi	r30, 0x7F	; 127
    13d6:	f4 e0       	ldi	r31, 0x04	; 4
    13d8:	d9 01       	movw	r26, r18
    13da:	01 90       	ld	r0, Z+
    13dc:	0d 92       	st	X+, r0
    13de:	8a 95       	dec	r24
    13e0:	e1 f7       	brne	.-8      	; 0x13da <__EEPROM_REGION_LENGTH__+0x3da>
    spielfeld[39].typ = STRASSE;
    13e2:	89 81       	ldd	r24, Y+1	; 0x01
    13e4:	9a 81       	ldd	r25, Y+2	; 0x02
    13e6:	83 50       	subi	r24, 0x03	; 3
    13e8:	97 4f       	sbci	r25, 0xF7	; 247
    13ea:	fc 01       	movw	r30, r24
    13ec:	12 aa       	std	Z+50, r1	; 0x32
    spielfeld[39].preis = 400;
    13ee:	89 81       	ldd	r24, Y+1	; 0x01
    13f0:	9a 81       	ldd	r25, Y+2	; 0x02
    13f2:	83 50       	subi	r24, 0x03	; 3
    13f4:	97 4f       	sbci	r25, 0xF7	; 247
    13f6:	20 e9       	ldi	r18, 0x90	; 144
    13f8:	fc 01       	movw	r30, r24
    13fa:	23 ab       	std	Z+51, r18	; 0x33
    spielfeld[39].miete = 2;
    13fc:	89 81       	ldd	r24, Y+1	; 0x01
    13fe:	9a 81       	ldd	r25, Y+2	; 0x02
    1400:	83 50       	subi	r24, 0x03	; 3
    1402:	97 4f       	sbci	r25, 0xF7	; 247
    1404:	22 e0       	ldi	r18, 0x02	; 2
    1406:	30 e0       	ldi	r19, 0x00	; 0
    1408:	fc 01       	movw	r30, r24
    140a:	35 ab       	std	Z+53, r19	; 0x35
    140c:	24 ab       	std	Z+52, r18	; 0x34
    spielfeld[39].besitzer = 0;
    140e:	89 81       	ldd	r24, Y+1	; 0x01
    1410:	9a 81       	ldd	r25, Y+2	; 0x02
    1412:	83 50       	subi	r24, 0x03	; 3
    1414:	97 4f       	sbci	r25, 0xF7	; 247
    1416:	fc 01       	movw	r30, r24
    1418:	16 aa       	std	Z+54, r1	; 0x36
    spielfeld[39].farbGruppe = BLAU;
    141a:	89 81       	ldd	r24, Y+1	; 0x01
    141c:	9a 81       	ldd	r25, Y+2	; 0x02
    141e:	83 50       	subi	r24, 0x03	; 3
    1420:	97 4f       	sbci	r25, 0xF7	; 247
    1422:	27 e0       	ldi	r18, 0x07	; 7
    1424:	fc 01       	movw	r30, r24
    1426:	27 ab       	std	Z+55, r18	; 0x37
    spielfeld[39].hausnummer = 21;
    1428:	89 81       	ldd	r24, Y+1	; 0x01
    142a:	9a 81       	ldd	r25, Y+2	; 0x02
    142c:	83 50       	subi	r24, 0x03	; 3
    142e:	97 4f       	sbci	r25, 0xF7	; 247
    1430:	25 e1       	ldi	r18, 0x15	; 21
    1432:	fc 01       	movw	r30, r24
    1434:	20 af       	std	Z+56, r18	; 0x38
    spielfeld[39].anzahlHaeuser = 0;
    1436:	89 81       	ldd	r24, Y+1	; 0x01
    1438:	9a 81       	ldd	r25, Y+2	; 0x02
    143a:	83 50       	subi	r24, 0x03	; 3
    143c:	97 4f       	sbci	r25, 0xF7	; 247
    143e:	fc 01       	movw	r30, r24
    1440:	11 ae       	std	Z+57, r1	; 0x39
    spielfeld[39].rgbNummer = 27;
    1442:	89 81       	ldd	r24, Y+1	; 0x01
    1444:	9a 81       	ldd	r25, Y+2	; 0x02
    1446:	83 50       	subi	r24, 0x03	; 3
    1448:	97 4f       	sbci	r25, 0xF7	; 247
    144a:	2b e1       	ldi	r18, 0x1B	; 27
    144c:	fc 01       	movw	r30, r24
    144e:	22 af       	std	Z+58, r18	; 0x3a
}
    1450:	00 00       	nop
    1452:	0f 90       	pop	r0
    1454:	0f 90       	pop	r0
    1456:	df 91       	pop	r29
    1458:	cf 91       	pop	r28
    145a:	08 95       	ret

0000145c <main>:

int main(void)
{
    145c:	cf 93       	push	r28
    145e:	df 93       	push	r29
    1460:	cd b7       	in	r28, 0x3d	; 61
    1462:	de b7       	in	r29, 0x3e	; 62
    1464:	c3 56       	subi	r28, 0x63	; 99
    1466:	d9 40       	sbci	r29, 0x09	; 9
    1468:	0f b6       	in	r0, 0x3f	; 63
    146a:	f8 94       	cli
    146c:	de bf       	out	0x3e, r29	; 62
    146e:	0f be       	out	0x3f, r0	; 63
    1470:	cd bf       	out	0x3d, r28	; 61
    PortInitialisierung();
    1472:	0e 94 3a 01 	call	0x274	; 0x274 <PortInitialisierung>
    initDisplay();
    1476:	0e 94 b7 00 	call	0x16e	; 0x16e <initDisplay>
    Feld spielfeld[40];
    initialisiereSpielfeld(spielfeld);
    147a:	ce 01       	movw	r24, r28
    147c:	4c 96       	adiw	r24, 0x1c	; 28
    147e:	0e 94 0a 02 	call	0x414	; 0x414 <initialisiereSpielfeld>
    
    initSpieler(spielerInfo);
    1482:	8c ef       	ldi	r24, 0xFC	; 252
    1484:	95 e0       	ldi	r25, 0x05	; 5
    1486:	0e 94 8f 01 	call	0x31e	; 0x31e <initSpieler>
    srand(adm_ADC_read(0));
    148a:	80 e0       	ldi	r24, 0x00	; 0
    148c:	0e 94 4b 1e 	call	0x3c96	; 0x3c96 <adm_ADC_read>
    1490:	0e 94 7e 21 	call	0x42fc	; 0x42fc <srand>
    
    
    
    
    
    writeText(1,0,"1");
    1494:	49 e9       	ldi	r20, 0x99	; 153
    1496:	54 e0       	ldi	r21, 0x04	; 4
    1498:	60 e0       	ldi	r22, 0x00	; 0
    149a:	81 e0       	ldi	r24, 0x01	; 1
    149c:	0e 94 1e 01 	call	0x23c	; 0x23c <writeText>
    SPI_init_all(9600);
    14a0:	80 e8       	ldi	r24, 0x80	; 128
    14a2:	95 e2       	ldi	r25, 0x25	; 37
    14a4:	0e 94 c1 1e 	call	0x3d82	; 0x3d82 <SPI_init_all>
    writeText(1,0,"2");
    14a8:	4b e9       	ldi	r20, 0x9B	; 155
    14aa:	54 e0       	ldi	r21, 0x04	; 4
    14ac:	60 e0       	ldi	r22, 0x00	; 0
    14ae:	81 e0       	ldi	r24, 0x01	; 1
    14b0:	0e 94 1e 01 	call	0x23c	; 0x23c <writeText>
    adm_ADC_init();
    14b4:	0e 94 34 1e 	call	0x3c68	; 0x3c68 <adm_ADC_init>
    writeText(1,0,"3");
    14b8:	4d e9       	ldi	r20, 0x9D	; 157
    14ba:	54 e0       	ldi	r21, 0x04	; 4
    14bc:	60 e0       	ldi	r22, 0x00	; 0
    14be:	81 e0       	ldi	r24, 0x01	; 1
    14c0:	0e 94 1e 01 	call	0x23c	; 0x23c <writeText>
    srand(adm_ADC_read(0));
    14c4:	80 e0       	ldi	r24, 0x00	; 0
    14c6:	0e 94 4b 1e 	call	0x3c96	; 0x3c96 <adm_ADC_read>
    14ca:	0e 94 7e 21 	call	0x42fc	; 0x42fc <srand>
    writeText(1,0,"4");
    14ce:	4f e9       	ldi	r20, 0x9F	; 159
    14d0:	54 e0       	ldi	r21, 0x04	; 4
    14d2:	60 e0       	ldi	r22, 0x00	; 0
    14d4:	81 e0       	ldi	r24, 0x01	; 1
    14d6:	0e 94 1e 01 	call	0x23c	; 0x23c <writeText>

    writeText(1,0,"5");
    14da:	41 ea       	ldi	r20, 0xA1	; 161
    14dc:	54 e0       	ldi	r21, 0x04	; 4
    14de:	60 e0       	ldi	r22, 0x00	; 0
    14e0:	81 e0       	ldi	r24, 0x01	; 1
    14e2:	0e 94 1e 01 	call	0x23c	; 0x23c <writeText>
    writeText(1,0,"6");
    14e6:	43 ea       	ldi	r20, 0xA3	; 163
    14e8:	54 e0       	ldi	r21, 0x04	; 4
    14ea:	60 e0       	ldi	r22, 0x00	; 0
    14ec:	81 e0       	ldi	r24, 0x01	; 1
    14ee:	0e 94 1e 01 	call	0x23c	; 0x23c <writeText>
    uint16_t tasteAlt, tasteNeu, positiveFlanke = 0;
    14f2:	19 86       	std	Y+9, r1	; 0x09
    14f4:	18 86       	std	Y+8, r1	; 0x08
    
    clear();
    14f6:	0e 94 06 01 	call	0x20c	; 0x20c <clear>
    home();
    14fa:	0e 94 09 01 	call	0x212	; 0x212 <home>
    displayOnOff(1,0,0);
    14fe:	40 e0       	ldi	r20, 0x00	; 0
    1500:	60 e0       	ldi	r22, 0x00	; 0
    1502:	81 e0       	ldi	r24, 0x01	; 1
    1504:	0e 94 0c 01 	call	0x218	; 0x218 <displayOnOff>
    writeText(0,0,"Zahl 1 = ");
    1508:	45 ea       	ldi	r20, 0xA5	; 165
    150a:	54 e0       	ldi	r21, 0x04	; 4
    150c:	60 e0       	ldi	r22, 0x00	; 0
    150e:	80 e0       	ldi	r24, 0x00	; 0
    1510:	0e 94 1e 01 	call	0x23c	; 0x23c <writeText>
    writeText(1,0,"Zahl 2 = ");
    1514:	4f ea       	ldi	r20, 0xAF	; 175
    1516:	54 e0       	ldi	r21, 0x04	; 4
    1518:	60 e0       	ldi	r22, 0x00	; 0
    151a:	81 e0       	ldi	r24, 0x01	; 1
    151c:	0e 94 1e 01 	call	0x23c	; 0x23c <writeText>
    writeText(2,0,"Spieler ");
    1520:	49 eb       	ldi	r20, 0xB9	; 185
    1522:	54 e0       	ldi	r21, 0x04	; 4
    1524:	60 e0       	ldi	r22, 0x00	; 0
    1526:	82 e0       	ldi	r24, 0x02	; 2
    1528:	0e 94 1e 01 	call	0x23c	; 0x23c <writeText>
    char buffer[16];
    uint8_t spielerAmZug = 1;
    152c:	81 e0       	ldi	r24, 0x01	; 1
    152e:	8b 83       	std	Y+3, r24	; 0x03
    uint8_t flagNextPlayer, flagPasch = 0;
    1530:	1a 86       	std	Y+10, r1	; 0x0a
    FeldTyp aktuellesFeld = FREIPARKEN;
    1532:	83 e0       	ldi	r24, 0x03	; 3
    1534:	8d 83       	std	Y+5, r24	; 0x05
    uint8_t aktuellePosition = 0;
    1536:	1e 82       	std	Y+6, r1	; 0x06
    resetMonopoly();
    1538:	9a d6       	rcall	.+3380   	; 0x226e <resetMonopoly>
    setGeld(spielerInfo[1].geld,1);
    153a:	80 91 63 06 	lds	r24, 0x0663	; 0x800663 <spielerInfo+0x67>
    153e:	90 91 64 06 	lds	r25, 0x0664	; 0x800664 <spielerInfo+0x68>
    1542:	61 e0       	ldi	r22, 0x01	; 1
    1544:	0e 94 65 16 	call	0x2cca	; 0x2cca <setGeld>
    setGeld(spielerInfo[2].geld,2);
    1548:	80 91 98 06 	lds	r24, 0x0698	; 0x800698 <spielerInfo+0x9c>
    154c:	90 91 99 06 	lds	r25, 0x0699	; 0x800699 <spielerInfo+0x9d>
    1550:	62 e0       	ldi	r22, 0x02	; 2
    1552:	0e 94 65 16 	call	0x2cca	; 0x2cca <setGeld>
    setGeld(spielerInfo[3].geld,3);
    1556:	80 91 cd 06 	lds	r24, 0x06CD	; 0x8006cd <spielerInfo+0xd1>
    155a:	90 91 ce 06 	lds	r25, 0x06CE	; 0x8006ce <spielerInfo+0xd2>
    155e:	63 e0       	ldi	r22, 0x03	; 3
    1560:	0e 94 65 16 	call	0x2cca	; 0x2cca <setGeld>
    setGeld(spielerInfo[4].geld,4);
    1564:	80 91 02 07 	lds	r24, 0x0702	; 0x800702 <spielerInfo+0x106>
    1568:	90 91 03 07 	lds	r25, 0x0703	; 0x800703 <spielerInfo+0x107>
    156c:	64 e0       	ldi	r22, 0x04	; 4
    156e:	0e 94 65 16 	call	0x2cca	; 0x2cca <setGeld>
    /*setPlayerPosition(spielerInfo[1].position,1);
    setPlayerPosition(spielerInfo[2].position,2);
    setPlayerPosition(spielerInfo[3].position,3);
    setPlayerPosition(spielerInfo[4].position,4);*/
    
    sprintf(buffer,"%u",spielerAmZug);
    1572:	8b 81       	ldd	r24, Y+3	; 0x03
    1574:	88 2f       	mov	r24, r24
    1576:	90 e0       	ldi	r25, 0x00	; 0
    1578:	29 2f       	mov	r18, r25
    157a:	2f 93       	push	r18
    157c:	8f 93       	push	r24
    157e:	82 ec       	ldi	r24, 0xC2	; 194
    1580:	94 e0       	ldi	r25, 0x04	; 4
    1582:	89 2f       	mov	r24, r25
    1584:	8f 93       	push	r24
    1586:	82 ec       	ldi	r24, 0xC2	; 194
    1588:	94 e0       	ldi	r25, 0x04	; 4
    158a:	8f 93       	push	r24
    158c:	ce 01       	movw	r24, r28
    158e:	8c 5a       	subi	r24, 0xAC	; 172
    1590:	96 4f       	sbci	r25, 0xF6	; 246
    1592:	29 2f       	mov	r18, r25
    1594:	2f 93       	push	r18
    1596:	8f 93       	push	r24
    1598:	0e 94 89 21 	call	0x4312	; 0x4312 <sprintf>
    159c:	0f 90       	pop	r0
    159e:	0f 90       	pop	r0
    15a0:	0f 90       	pop	r0
    15a2:	0f 90       	pop	r0
    15a4:	0f 90       	pop	r0
    15a6:	0f 90       	pop	r0
    writeText(2,8,buffer);
    15a8:	ce 01       	movw	r24, r28
    15aa:	8c 5a       	subi	r24, 0xAC	; 172
    15ac:	96 4f       	sbci	r25, 0xF6	; 246
    15ae:	ac 01       	movw	r20, r24
    15b0:	68 e0       	ldi	r22, 0x08	; 8
    15b2:	82 e0       	ldi	r24, 0x02	; 2
    15b4:	0e 94 1e 01 	call	0x23c	; 0x23c <writeText>
    uint8_t rot, gruen, blau = 0;
    15b8:	1b 86       	std	Y+11, r1	; 0x0b
    while (1)
    {
        tasteAlt = tasteNeu;
    15ba:	89 81       	ldd	r24, Y+1	; 0x01
    15bc:	9a 81       	ldd	r25, Y+2	; 0x02
    15be:	9d 87       	std	Y+13, r25	; 0x0d
    15c0:	8c 87       	std	Y+12, r24	; 0x0c
        tasteNeu = 0;
    15c2:	1a 82       	std	Y+2, r1	; 0x02
    15c4:	19 82       	std	Y+1, r1	; 0x01
        tasteNeu = (PINL << 8) | PINK;
    15c6:	89 e0       	ldi	r24, 0x09	; 9
    15c8:	91 e0       	ldi	r25, 0x01	; 1
    15ca:	fc 01       	movw	r30, r24
    15cc:	80 81       	ld	r24, Z
    15ce:	88 2f       	mov	r24, r24
    15d0:	90 e0       	ldi	r25, 0x00	; 0
    15d2:	38 2f       	mov	r19, r24
    15d4:	22 27       	eor	r18, r18
    15d6:	86 e0       	ldi	r24, 0x06	; 6
    15d8:	91 e0       	ldi	r25, 0x01	; 1
    15da:	fc 01       	movw	r30, r24
    15dc:	80 81       	ld	r24, Z
    15de:	88 2f       	mov	r24, r24
    15e0:	90 e0       	ldi	r25, 0x00	; 0
    15e2:	82 2b       	or	r24, r18
    15e4:	93 2b       	or	r25, r19
    15e6:	9a 83       	std	Y+2, r25	; 0x02
    15e8:	89 83       	std	Y+1, r24	; 0x01
        positiveFlanke = (tasteAlt ^ tasteNeu) & tasteNeu;
    15ea:	8c 85       	ldd	r24, Y+12	; 0x0c
    15ec:	9d 85       	ldd	r25, Y+13	; 0x0d
    15ee:	9c 01       	movw	r18, r24
    15f0:	20 95       	com	r18
    15f2:	30 95       	com	r19
    15f4:	89 81       	ldd	r24, Y+1	; 0x01
    15f6:	9a 81       	ldd	r25, Y+2	; 0x02
    15f8:	82 23       	and	r24, r18
    15fa:	93 23       	and	r25, r19
    15fc:	99 87       	std	Y+9, r25	; 0x09
    15fe:	88 87       	std	Y+8, r24	; 0x08
        
        if (positiveFlanke)
    1600:	88 85       	ldd	r24, Y+8	; 0x08
    1602:	99 85       	ldd	r25, Y+9	; 0x09
    1604:	89 2b       	or	r24, r25
    1606:	09 f4       	brne	.+2      	; 0x160a <main+0x1ae>
    1608:	97 c2       	rjmp	.+1326   	; 0x1b38 <main+0x6dc>
        {
            if (positiveFlanke & TASTER2)
    160a:	88 85       	ldd	r24, Y+8	; 0x08
    160c:	99 85       	ldd	r25, Y+9	; 0x09
    160e:	82 70       	andi	r24, 0x02	; 2
    1610:	99 27       	eor	r25, r25
    1612:	89 2b       	or	r24, r25
    1614:	51 f0       	breq	.+20     	; 0x162a <main+0x1ce>
            {
                spielerInfo[1].geld += 3;
    1616:	80 91 63 06 	lds	r24, 0x0663	; 0x800663 <spielerInfo+0x67>
    161a:	90 91 64 06 	lds	r25, 0x0664	; 0x800664 <spielerInfo+0x68>
    161e:	03 96       	adiw	r24, 0x03	; 3
    1620:	90 93 64 06 	sts	0x0664, r25	; 0x800664 <spielerInfo+0x68>
    1624:	80 93 63 06 	sts	0x0663, r24	; 0x800663 <spielerInfo+0x67>
    1628:	0f c0       	rjmp	.+30     	; 0x1648 <main+0x1ec>
            }
            else if (positiveFlanke & TASTER1)
    162a:	88 85       	ldd	r24, Y+8	; 0x08
    162c:	99 85       	ldd	r25, Y+9	; 0x09
    162e:	81 70       	andi	r24, 0x01	; 1
    1630:	99 27       	eor	r25, r25
    1632:	89 2b       	or	r24, r25
    1634:	49 f0       	breq	.+18     	; 0x1648 <main+0x1ec>
            {
                spielerInfo[1].geld -= 3;
    1636:	80 91 63 06 	lds	r24, 0x0663	; 0x800663 <spielerInfo+0x67>
    163a:	90 91 64 06 	lds	r25, 0x0664	; 0x800664 <spielerInfo+0x68>
    163e:	03 97       	sbiw	r24, 0x03	; 3
    1640:	90 93 64 06 	sts	0x0664, r25	; 0x800664 <spielerInfo+0x68>
    1644:	80 93 63 06 	sts	0x0663, r24	; 0x800663 <spielerInfo+0x67>
            }
            
            if (positiveFlanke & TASTER3)
    1648:	88 85       	ldd	r24, Y+8	; 0x08
    164a:	99 85       	ldd	r25, Y+9	; 0x09
    164c:	84 70       	andi	r24, 0x04	; 4
    164e:	99 27       	eor	r25, r25
    1650:	89 2b       	or	r24, r25
    1652:	51 f0       	breq	.+20     	; 0x1668 <main+0x20c>
            {
                spielerInfo[2].geld += 3;
    1654:	80 91 98 06 	lds	r24, 0x0698	; 0x800698 <spielerInfo+0x9c>
    1658:	90 91 99 06 	lds	r25, 0x0699	; 0x800699 <spielerInfo+0x9d>
    165c:	03 96       	adiw	r24, 0x03	; 3
    165e:	90 93 99 06 	sts	0x0699, r25	; 0x800699 <spielerInfo+0x9d>
    1662:	80 93 98 06 	sts	0x0698, r24	; 0x800698 <spielerInfo+0x9c>
    1666:	0f c0       	rjmp	.+30     	; 0x1686 <main+0x22a>
            }
            else if (positiveFlanke & TASTER4)
    1668:	88 85       	ldd	r24, Y+8	; 0x08
    166a:	99 85       	ldd	r25, Y+9	; 0x09
    166c:	88 70       	andi	r24, 0x08	; 8
    166e:	99 27       	eor	r25, r25
    1670:	89 2b       	or	r24, r25
    1672:	49 f0       	breq	.+18     	; 0x1686 <main+0x22a>
            {
                spielerInfo[2].geld -= 3;
    1674:	80 91 98 06 	lds	r24, 0x0698	; 0x800698 <spielerInfo+0x9c>
    1678:	90 91 99 06 	lds	r25, 0x0699	; 0x800699 <spielerInfo+0x9d>
    167c:	03 97       	sbiw	r24, 0x03	; 3
    167e:	90 93 99 06 	sts	0x0699, r25	; 0x800699 <spielerInfo+0x9d>
    1682:	80 93 98 06 	sts	0x0698, r24	; 0x800698 <spielerInfo+0x9c>
            }
            
            if (positiveFlanke & TASTER6)
    1686:	88 85       	ldd	r24, Y+8	; 0x08
    1688:	99 85       	ldd	r25, Y+9	; 0x09
    168a:	80 72       	andi	r24, 0x20	; 32
    168c:	99 27       	eor	r25, r25
    168e:	89 2b       	or	r24, r25
    1690:	51 f0       	breq	.+20     	; 0x16a6 <main+0x24a>
            {
                spielerInfo[3].geld += 3;
    1692:	80 91 cd 06 	lds	r24, 0x06CD	; 0x8006cd <spielerInfo+0xd1>
    1696:	90 91 ce 06 	lds	r25, 0x06CE	; 0x8006ce <spielerInfo+0xd2>
    169a:	03 96       	adiw	r24, 0x03	; 3
    169c:	90 93 ce 06 	sts	0x06CE, r25	; 0x8006ce <spielerInfo+0xd2>
    16a0:	80 93 cd 06 	sts	0x06CD, r24	; 0x8006cd <spielerInfo+0xd1>
    16a4:	0f c0       	rjmp	.+30     	; 0x16c4 <main+0x268>
            }
            else if (positiveFlanke & TASTER5)
    16a6:	88 85       	ldd	r24, Y+8	; 0x08
    16a8:	99 85       	ldd	r25, Y+9	; 0x09
    16aa:	80 71       	andi	r24, 0x10	; 16
    16ac:	99 27       	eor	r25, r25
    16ae:	89 2b       	or	r24, r25
    16b0:	49 f0       	breq	.+18     	; 0x16c4 <main+0x268>
            {
                spielerInfo[3].geld -= 3;
    16b2:	80 91 cd 06 	lds	r24, 0x06CD	; 0x8006cd <spielerInfo+0xd1>
    16b6:	90 91 ce 06 	lds	r25, 0x06CE	; 0x8006ce <spielerInfo+0xd2>
    16ba:	03 97       	sbiw	r24, 0x03	; 3
    16bc:	90 93 ce 06 	sts	0x06CE, r25	; 0x8006ce <spielerInfo+0xd2>
    16c0:	80 93 cd 06 	sts	0x06CD, r24	; 0x8006cd <spielerInfo+0xd1>
            }
            
            if (positiveFlanke & TASTER8)
    16c4:	88 85       	ldd	r24, Y+8	; 0x08
    16c6:	99 85       	ldd	r25, Y+9	; 0x09
    16c8:	80 78       	andi	r24, 0x80	; 128
    16ca:	99 27       	eor	r25, r25
    16cc:	89 2b       	or	r24, r25
    16ce:	51 f0       	breq	.+20     	; 0x16e4 <main+0x288>
            {
                spielerInfo[4].geld += 3;
    16d0:	80 91 02 07 	lds	r24, 0x0702	; 0x800702 <spielerInfo+0x106>
    16d4:	90 91 03 07 	lds	r25, 0x0703	; 0x800703 <spielerInfo+0x107>
    16d8:	03 96       	adiw	r24, 0x03	; 3
    16da:	90 93 03 07 	sts	0x0703, r25	; 0x800703 <spielerInfo+0x107>
    16de:	80 93 02 07 	sts	0x0702, r24	; 0x800702 <spielerInfo+0x106>
    16e2:	0f c0       	rjmp	.+30     	; 0x1702 <main+0x2a6>
            }
            else if (positiveFlanke & TASTER7)
    16e4:	88 85       	ldd	r24, Y+8	; 0x08
    16e6:	99 85       	ldd	r25, Y+9	; 0x09
    16e8:	80 74       	andi	r24, 0x40	; 64
    16ea:	99 27       	eor	r25, r25
    16ec:	89 2b       	or	r24, r25
    16ee:	49 f0       	breq	.+18     	; 0x1702 <main+0x2a6>
            {
                spielerInfo[4].geld -= 3;
    16f0:	80 91 02 07 	lds	r24, 0x0702	; 0x800702 <spielerInfo+0x106>
    16f4:	90 91 03 07 	lds	r25, 0x0703	; 0x800703 <spielerInfo+0x107>
    16f8:	03 97       	sbiw	r24, 0x03	; 3
    16fa:	90 93 03 07 	sts	0x0703, r25	; 0x800703 <spielerInfo+0x107>
    16fe:	80 93 02 07 	sts	0x0702, r24	; 0x800702 <spielerInfo+0x106>
            }
            
            if((positiveFlanke & TASTER11) && flagNextPlayer)
    1702:	88 85       	ldd	r24, Y+8	; 0x08
    1704:	99 85       	ldd	r25, Y+9	; 0x09
    1706:	88 27       	eor	r24, r24
    1708:	94 70       	andi	r25, 0x04	; 4
    170a:	89 2b       	or	r24, r25
    170c:	59 f1       	breq	.+86     	; 0x1764 <main+0x308>
    170e:	8c 81       	ldd	r24, Y+4	; 0x04
    1710:	88 23       	and	r24, r24
    1712:	41 f1       	breq	.+80     	; 0x1764 <main+0x308>
            {
                spielerAmZug = (spielerAmZug % 4) + 1;
    1714:	8b 81       	ldd	r24, Y+3	; 0x03
    1716:	83 70       	andi	r24, 0x03	; 3
    1718:	8f 5f       	subi	r24, 0xFF	; 255
    171a:	8b 83       	std	Y+3, r24	; 0x03
                flagNextPlayer = 0;
    171c:	1c 82       	std	Y+4, r1	; 0x04
                sprintf(buffer,"%u",spielerAmZug);
    171e:	8b 81       	ldd	r24, Y+3	; 0x03
    1720:	88 2f       	mov	r24, r24
    1722:	90 e0       	ldi	r25, 0x00	; 0
    1724:	29 2f       	mov	r18, r25
    1726:	2f 93       	push	r18
    1728:	8f 93       	push	r24
    172a:	82 ec       	ldi	r24, 0xC2	; 194
    172c:	94 e0       	ldi	r25, 0x04	; 4
    172e:	89 2f       	mov	r24, r25
    1730:	8f 93       	push	r24
    1732:	82 ec       	ldi	r24, 0xC2	; 194
    1734:	94 e0       	ldi	r25, 0x04	; 4
    1736:	8f 93       	push	r24
    1738:	ce 01       	movw	r24, r28
    173a:	8c 5a       	subi	r24, 0xAC	; 172
    173c:	96 4f       	sbci	r25, 0xF6	; 246
    173e:	29 2f       	mov	r18, r25
    1740:	2f 93       	push	r18
    1742:	8f 93       	push	r24
    1744:	0e 94 89 21 	call	0x4312	; 0x4312 <sprintf>
    1748:	0f 90       	pop	r0
    174a:	0f 90       	pop	r0
    174c:	0f 90       	pop	r0
    174e:	0f 90       	pop	r0
    1750:	0f 90       	pop	r0
    1752:	0f 90       	pop	r0
                writeText(2,8,buffer);
    1754:	ce 01       	movw	r24, r28
    1756:	8c 5a       	subi	r24, 0xAC	; 172
    1758:	96 4f       	sbci	r25, 0xF6	; 246
    175a:	ac 01       	movw	r20, r24
    175c:	68 e0       	ldi	r22, 0x08	; 8
    175e:	82 e0       	ldi	r24, 0x02	; 2
    1760:	0e 94 1e 01 	call	0x23c	; 0x23c <writeText>
            }
            
            if ((positiveFlanke & TASTER10) && !flagNextPlayer)
    1764:	88 85       	ldd	r24, Y+8	; 0x08
    1766:	99 85       	ldd	r25, Y+9	; 0x09
    1768:	88 27       	eor	r24, r24
    176a:	92 70       	andi	r25, 0x02	; 2
    176c:	89 2b       	or	r24, r25
    176e:	09 f4       	brne	.+2      	; 0x1772 <main+0x316>
    1770:	c7 c1       	rjmp	.+910    	; 0x1b00 <main+0x6a4>
    1772:	8c 81       	ldd	r24, Y+4	; 0x04
    1774:	88 23       	and	r24, r24
    1776:	09 f0       	breq	.+2      	; 0x177a <main+0x31e>
    1778:	c3 c1       	rjmp	.+902    	; 0x1b00 <main+0x6a4>
            {
                sibensegmentWuerfel();
    177a:	0e 94 7e 18 	call	0x30fc	; 0x30fc <sibensegmentWuerfel>
                sprintf(buffer,"%u",wuerfelArray[0]);
    177e:	80 91 c8 04 	lds	r24, 0x04C8	; 0x8004c8 <__data_end>
    1782:	88 2f       	mov	r24, r24
    1784:	90 e0       	ldi	r25, 0x00	; 0
    1786:	29 2f       	mov	r18, r25
    1788:	2f 93       	push	r18
    178a:	8f 93       	push	r24
    178c:	82 ec       	ldi	r24, 0xC2	; 194
    178e:	94 e0       	ldi	r25, 0x04	; 4
    1790:	89 2f       	mov	r24, r25
    1792:	8f 93       	push	r24
    1794:	82 ec       	ldi	r24, 0xC2	; 194
    1796:	94 e0       	ldi	r25, 0x04	; 4
    1798:	8f 93       	push	r24
    179a:	ce 01       	movw	r24, r28
    179c:	8c 5a       	subi	r24, 0xAC	; 172
    179e:	96 4f       	sbci	r25, 0xF6	; 246
    17a0:	29 2f       	mov	r18, r25
    17a2:	2f 93       	push	r18
    17a4:	8f 93       	push	r24
    17a6:	0e 94 89 21 	call	0x4312	; 0x4312 <sprintf>
    17aa:	0f 90       	pop	r0
    17ac:	0f 90       	pop	r0
    17ae:	0f 90       	pop	r0
    17b0:	0f 90       	pop	r0
    17b2:	0f 90       	pop	r0
    17b4:	0f 90       	pop	r0
                writeText(0,9,buffer);
    17b6:	ce 01       	movw	r24, r28
    17b8:	8c 5a       	subi	r24, 0xAC	; 172
    17ba:	96 4f       	sbci	r25, 0xF6	; 246
    17bc:	ac 01       	movw	r20, r24
    17be:	69 e0       	ldi	r22, 0x09	; 9
    17c0:	80 e0       	ldi	r24, 0x00	; 0
    17c2:	0e 94 1e 01 	call	0x23c	; 0x23c <writeText>
                sprintf(buffer,"%u",wuerfelArray[1]);
    17c6:	80 91 c9 04 	lds	r24, 0x04C9	; 0x8004c9 <__data_end+0x1>
    17ca:	88 2f       	mov	r24, r24
    17cc:	90 e0       	ldi	r25, 0x00	; 0
    17ce:	29 2f       	mov	r18, r25
    17d0:	2f 93       	push	r18
    17d2:	8f 93       	push	r24
    17d4:	82 ec       	ldi	r24, 0xC2	; 194
    17d6:	94 e0       	ldi	r25, 0x04	; 4
    17d8:	89 2f       	mov	r24, r25
    17da:	8f 93       	push	r24
    17dc:	82 ec       	ldi	r24, 0xC2	; 194
    17de:	94 e0       	ldi	r25, 0x04	; 4
    17e0:	8f 93       	push	r24
    17e2:	ce 01       	movw	r24, r28
    17e4:	8c 5a       	subi	r24, 0xAC	; 172
    17e6:	96 4f       	sbci	r25, 0xF6	; 246
    17e8:	29 2f       	mov	r18, r25
    17ea:	2f 93       	push	r18
    17ec:	8f 93       	push	r24
    17ee:	0e 94 89 21 	call	0x4312	; 0x4312 <sprintf>
    17f2:	0f 90       	pop	r0
    17f4:	0f 90       	pop	r0
    17f6:	0f 90       	pop	r0
    17f8:	0f 90       	pop	r0
    17fa:	0f 90       	pop	r0
    17fc:	0f 90       	pop	r0
                writeText(1,9,buffer);
    17fe:	ce 01       	movw	r24, r28
    1800:	8c 5a       	subi	r24, 0xAC	; 172
    1802:	96 4f       	sbci	r25, 0xF6	; 246
    1804:	ac 01       	movw	r20, r24
    1806:	69 e0       	ldi	r22, 0x09	; 9
    1808:	81 e0       	ldi	r24, 0x01	; 1
    180a:	0e 94 1e 01 	call	0x23c	; 0x23c <writeText>
                if (wuerfelArray[0] == wuerfelArray[1])
    180e:	90 91 c8 04 	lds	r25, 0x04C8	; 0x8004c8 <__data_end>
    1812:	80 91 c9 04 	lds	r24, 0x04C9	; 0x8004c9 <__data_end+0x1>
    1816:	98 17       	cp	r25, r24
    1818:	19 f4       	brne	.+6      	; 0x1820 <main+0x3c4>
                {
                    flagPasch = 1;
    181a:	81 e0       	ldi	r24, 0x01	; 1
    181c:	8a 87       	std	Y+10, r24	; 0x0a
    181e:	02 c0       	rjmp	.+4      	; 0x1824 <main+0x3c8>
                }
                else
                {
                    flagNextPlayer = 1;
    1820:	81 e0       	ldi	r24, 0x01	; 1
    1822:	8c 83       	std	Y+4, r24	; 0x04
                }
                
                
                if (spielerInfo[spielerAmZug].position + (wuerfelArray[0] + wuerfelArray[1]) >= 40 )
    1824:	8b 81       	ldd	r24, Y+3	; 0x03
    1826:	28 2f       	mov	r18, r24
    1828:	30 e0       	ldi	r19, 0x00	; 0
    182a:	45 e3       	ldi	r20, 0x35	; 53
    182c:	42 9f       	mul	r20, r18
    182e:	c0 01       	movw	r24, r0
    1830:	43 9f       	mul	r20, r19
    1832:	90 0d       	add	r25, r0
    1834:	11 24       	eor	r1, r1
    1836:	80 5d       	subi	r24, 0xD0	; 208
    1838:	99 4f       	sbci	r25, 0xF9	; 249
    183a:	fc 01       	movw	r30, r24
    183c:	80 81       	ld	r24, Z
    183e:	28 2f       	mov	r18, r24
    1840:	30 e0       	ldi	r19, 0x00	; 0
    1842:	80 91 c8 04 	lds	r24, 0x04C8	; 0x8004c8 <__data_end>
    1846:	48 2f       	mov	r20, r24
    1848:	50 e0       	ldi	r21, 0x00	; 0
    184a:	80 91 c9 04 	lds	r24, 0x04C9	; 0x8004c9 <__data_end+0x1>
    184e:	88 2f       	mov	r24, r24
    1850:	90 e0       	ldi	r25, 0x00	; 0
    1852:	84 0f       	add	r24, r20
    1854:	95 1f       	adc	r25, r21
    1856:	82 0f       	add	r24, r18
    1858:	93 1f       	adc	r25, r19
    185a:	88 97       	sbiw	r24, 0x28	; 40
    185c:	84 f1       	brlt	.+96     	; 0x18be <main+0x462>
                {
                    spielerInfo[spielerAmZug].geld += 200;
    185e:	8b 81       	ldd	r24, Y+3	; 0x03
    1860:	48 2f       	mov	r20, r24
    1862:	50 e0       	ldi	r21, 0x00	; 0
    1864:	8b 81       	ldd	r24, Y+3	; 0x03
    1866:	28 2f       	mov	r18, r24
    1868:	30 e0       	ldi	r19, 0x00	; 0
    186a:	65 e3       	ldi	r22, 0x35	; 53
    186c:	62 9f       	mul	r22, r18
    186e:	c0 01       	movw	r24, r0
    1870:	63 9f       	mul	r22, r19
    1872:	90 0d       	add	r25, r0
    1874:	11 24       	eor	r1, r1
    1876:	82 5d       	subi	r24, 0xD2	; 210
    1878:	99 4f       	sbci	r25, 0xF9	; 249
    187a:	fc 01       	movw	r30, r24
    187c:	80 81       	ld	r24, Z
    187e:	91 81       	ldd	r25, Z+1	; 0x01
    1880:	9c 01       	movw	r18, r24
    1882:	28 53       	subi	r18, 0x38	; 56
    1884:	3f 4f       	sbci	r19, 0xFF	; 255
    1886:	65 e3       	ldi	r22, 0x35	; 53
    1888:	64 9f       	mul	r22, r20
    188a:	c0 01       	movw	r24, r0
    188c:	65 9f       	mul	r22, r21
    188e:	90 0d       	add	r25, r0
    1890:	11 24       	eor	r1, r1
    1892:	82 5d       	subi	r24, 0xD2	; 210
    1894:	99 4f       	sbci	r25, 0xF9	; 249
    1896:	fc 01       	movw	r30, r24
    1898:	31 83       	std	Z+1, r19	; 0x01
    189a:	20 83       	st	Z, r18
                    setGeld(spielerInfo[spielerAmZug].geld,spielerAmZug);
    189c:	8b 81       	ldd	r24, Y+3	; 0x03
    189e:	28 2f       	mov	r18, r24
    18a0:	30 e0       	ldi	r19, 0x00	; 0
    18a2:	45 e3       	ldi	r20, 0x35	; 53
    18a4:	42 9f       	mul	r20, r18
    18a6:	c0 01       	movw	r24, r0
    18a8:	43 9f       	mul	r20, r19
    18aa:	90 0d       	add	r25, r0
    18ac:	11 24       	eor	r1, r1
    18ae:	82 5d       	subi	r24, 0xD2	; 210
    18b0:	99 4f       	sbci	r25, 0xF9	; 249
    18b2:	fc 01       	movw	r30, r24
    18b4:	80 81       	ld	r24, Z
    18b6:	91 81       	ldd	r25, Z+1	; 0x01
    18b8:	6b 81       	ldd	r22, Y+3	; 0x03
    18ba:	0e 94 65 16 	call	0x2cca	; 0x2cca <setGeld>
                }
                
                
                for (uint8_t i = spielerInfo[spielerAmZug].position; i < (spielerInfo[spielerAmZug].position + (wuerfelArray[0] + wuerfelArray[1])); i = i + 1)
    18be:	8b 81       	ldd	r24, Y+3	; 0x03
    18c0:	28 2f       	mov	r18, r24
    18c2:	30 e0       	ldi	r19, 0x00	; 0
    18c4:	45 e3       	ldi	r20, 0x35	; 53
    18c6:	42 9f       	mul	r20, r18
    18c8:	c0 01       	movw	r24, r0
    18ca:	43 9f       	mul	r20, r19
    18cc:	90 0d       	add	r25, r0
    18ce:	11 24       	eor	r1, r1
    18d0:	80 5d       	subi	r24, 0xD0	; 208
    18d2:	99 4f       	sbci	r25, 0xF9	; 249
    18d4:	fc 01       	movw	r30, r24
    18d6:	80 81       	ld	r24, Z
    18d8:	8f 83       	std	Y+7, r24	; 0x07
    18da:	86 c0       	rjmp	.+268    	; 0x19e8 <main+0x58c>
                {
                    setPlayerPosition(i % 40,spielerAmZug);
    18dc:	9f 81       	ldd	r25, Y+7	; 0x07
    18de:	8d ec       	ldi	r24, 0xCD	; 205
    18e0:	98 9f       	mul	r25, r24
    18e2:	81 2d       	mov	r24, r1
    18e4:	11 24       	eor	r1, r1
    18e6:	82 95       	swap	r24
    18e8:	86 95       	lsr	r24
    18ea:	87 70       	andi	r24, 0x07	; 7
    18ec:	28 e2       	ldi	r18, 0x28	; 40
    18ee:	82 9f       	mul	r24, r18
    18f0:	80 2d       	mov	r24, r0
    18f2:	11 24       	eor	r1, r1
    18f4:	f9 2f       	mov	r31, r25
    18f6:	f8 1b       	sub	r31, r24
    18f8:	8f 2f       	mov	r24, r31
    18fa:	6b 81       	ldd	r22, Y+3	; 0x03
    18fc:	68 d7       	rcall	.+3792   	; 0x27ce <setPlayerPosition>
    18fe:	80 e0       	ldi	r24, 0x00	; 0
    1900:	90 e0       	ldi	r25, 0x00	; 0
    1902:	a8 ec       	ldi	r26, 0xC8	; 200
    1904:	b2 e4       	ldi	r27, 0x42	; 66
    1906:	8e 87       	std	Y+14, r24	; 0x0e
    1908:	9f 87       	std	Y+15, r25	; 0x0f
    190a:	a8 8b       	std	Y+16, r26	; 0x10
    190c:	b9 8b       	std	Y+17, r27	; 0x11

	__builtin_avr_delay_cycles(__ticks_dc);

#else
	uint16_t __ticks;
	__tmp = ((F_CPU) / 4e3) * __ms;
    190e:	20 e0       	ldi	r18, 0x00	; 0
    1910:	30 e0       	ldi	r19, 0x00	; 0
    1912:	4a e7       	ldi	r20, 0x7A	; 122
    1914:	55 e4       	ldi	r21, 0x45	; 69
    1916:	6e 85       	ldd	r22, Y+14	; 0x0e
    1918:	7f 85       	ldd	r23, Y+15	; 0x0f
    191a:	88 89       	ldd	r24, Y+16	; 0x10
    191c:	99 89       	ldd	r25, Y+17	; 0x11
    191e:	0e 94 93 20 	call	0x4126	; 0x4126 <__mulsf3>
    1922:	dc 01       	movw	r26, r24
    1924:	cb 01       	movw	r24, r22
    1926:	8a 8b       	std	Y+18, r24	; 0x12
    1928:	9b 8b       	std	Y+19, r25	; 0x13
    192a:	ac 8b       	std	Y+20, r26	; 0x14
    192c:	bd 8b       	std	Y+21, r27	; 0x15
	if (__tmp < 1.0)
    192e:	20 e0       	ldi	r18, 0x00	; 0
    1930:	30 e0       	ldi	r19, 0x00	; 0
    1932:	40 e8       	ldi	r20, 0x80	; 128
    1934:	5f e3       	ldi	r21, 0x3F	; 63
    1936:	6a 89       	ldd	r22, Y+18	; 0x12
    1938:	7b 89       	ldd	r23, Y+19	; 0x13
    193a:	8c 89       	ldd	r24, Y+20	; 0x14
    193c:	9d 89       	ldd	r25, Y+21	; 0x15
    193e:	0e 94 45 1f 	call	0x3e8a	; 0x3e8a <__cmpsf2>
    1942:	88 23       	and	r24, r24
    1944:	2c f4       	brge	.+10     	; 0x1950 <main+0x4f4>
		__ticks = 1;
    1946:	81 e0       	ldi	r24, 0x01	; 1
    1948:	90 e0       	ldi	r25, 0x00	; 0
    194a:	9f 8b       	std	Y+23, r25	; 0x17
    194c:	8e 8b       	std	Y+22, r24	; 0x16
    194e:	3f c0       	rjmp	.+126    	; 0x19ce <main+0x572>
	else if (__tmp > 65535)
    1950:	20 e0       	ldi	r18, 0x00	; 0
    1952:	3f ef       	ldi	r19, 0xFF	; 255
    1954:	4f e7       	ldi	r20, 0x7F	; 127
    1956:	57 e4       	ldi	r21, 0x47	; 71
    1958:	6a 89       	ldd	r22, Y+18	; 0x12
    195a:	7b 89       	ldd	r23, Y+19	; 0x13
    195c:	8c 89       	ldd	r24, Y+20	; 0x14
    195e:	9d 89       	ldd	r25, Y+21	; 0x15
    1960:	0e 94 8f 20 	call	0x411e	; 0x411e <__gesf2>
    1964:	18 16       	cp	r1, r24
    1966:	4c f5       	brge	.+82     	; 0x19ba <main+0x55e>
	{
		//	__ticks = requested delay in 1/10 ms
		__ticks = (uint16_t) (__ms * 10.0);
    1968:	20 e0       	ldi	r18, 0x00	; 0
    196a:	30 e0       	ldi	r19, 0x00	; 0
    196c:	40 e2       	ldi	r20, 0x20	; 32
    196e:	51 e4       	ldi	r21, 0x41	; 65
    1970:	6e 85       	ldd	r22, Y+14	; 0x0e
    1972:	7f 85       	ldd	r23, Y+15	; 0x0f
    1974:	88 89       	ldd	r24, Y+16	; 0x10
    1976:	99 89       	ldd	r25, Y+17	; 0x11
    1978:	0e 94 93 20 	call	0x4126	; 0x4126 <__mulsf3>
    197c:	dc 01       	movw	r26, r24
    197e:	cb 01       	movw	r24, r22
    1980:	bc 01       	movw	r22, r24
    1982:	cd 01       	movw	r24, r26
    1984:	0e 94 b1 1f 	call	0x3f62	; 0x3f62 <__fixunssfsi>
    1988:	dc 01       	movw	r26, r24
    198a:	cb 01       	movw	r24, r22
    198c:	9f 8b       	std	Y+23, r25	; 0x17
    198e:	8e 8b       	std	Y+22, r24	; 0x16
    1990:	0f c0       	rjmp	.+30     	; 0x19b0 <main+0x554>
    1992:	80 e9       	ldi	r24, 0x90	; 144
    1994:	91 e0       	ldi	r25, 0x01	; 1
    1996:	99 8f       	std	Y+25, r25	; 0x19
    1998:	88 8f       	std	Y+24, r24	; 0x18
    milliseconds can be achieved.
 */
void
_delay_loop_2(uint16_t __count)
{
	__asm__ volatile (
    199a:	88 8d       	ldd	r24, Y+24	; 0x18
    199c:	99 8d       	ldd	r25, Y+25	; 0x19
    199e:	01 97       	sbiw	r24, 0x01	; 1
    19a0:	f1 f7       	brne	.-4      	; 0x199e <main+0x542>
    19a2:	99 8f       	std	Y+25, r25	; 0x19
    19a4:	88 8f       	std	Y+24, r24	; 0x18
		while(__ticks)
		{
			// wait 1/10 ms
			_delay_loop_2(((F_CPU) / 4e3) / 10);
			__ticks --;
    19a6:	8e 89       	ldd	r24, Y+22	; 0x16
    19a8:	9f 89       	ldd	r25, Y+23	; 0x17
    19aa:	01 97       	sbiw	r24, 0x01	; 1
    19ac:	9f 8b       	std	Y+23, r25	; 0x17
    19ae:	8e 8b       	std	Y+22, r24	; 0x16
		__ticks = 1;
	else if (__tmp > 65535)
	{
		//	__ticks = requested delay in 1/10 ms
		__ticks = (uint16_t) (__ms * 10.0);
		while(__ticks)
    19b0:	8e 89       	ldd	r24, Y+22	; 0x16
    19b2:	9f 89       	ldd	r25, Y+23	; 0x17
    19b4:	89 2b       	or	r24, r25
    19b6:	69 f7       	brne	.-38     	; 0x1992 <main+0x536>
    19b8:	14 c0       	rjmp	.+40     	; 0x19e2 <main+0x586>
			__ticks --;
		}
		return;
	}
	else
		__ticks = (uint16_t)__tmp;
    19ba:	6a 89       	ldd	r22, Y+18	; 0x12
    19bc:	7b 89       	ldd	r23, Y+19	; 0x13
    19be:	8c 89       	ldd	r24, Y+20	; 0x14
    19c0:	9d 89       	ldd	r25, Y+21	; 0x15
    19c2:	0e 94 b1 1f 	call	0x3f62	; 0x3f62 <__fixunssfsi>
    19c6:	dc 01       	movw	r26, r24
    19c8:	cb 01       	movw	r24, r22
    19ca:	9f 8b       	std	Y+23, r25	; 0x17
    19cc:	8e 8b       	std	Y+22, r24	; 0x16
    19ce:	8e 89       	ldd	r24, Y+22	; 0x16
    19d0:	9f 89       	ldd	r25, Y+23	; 0x17
    19d2:	9b 8f       	std	Y+27, r25	; 0x1b
    19d4:	8a 8f       	std	Y+26, r24	; 0x1a
    19d6:	8a 8d       	ldd	r24, Y+26	; 0x1a
    19d8:	9b 8d       	ldd	r25, Y+27	; 0x1b
    19da:	01 97       	sbiw	r24, 0x01	; 1
    19dc:	f1 f7       	brne	.-4      	; 0x19da <main+0x57e>
    19de:	9b 8f       	std	Y+27, r25	; 0x1b
    19e0:	8a 8f       	std	Y+26, r24	; 0x1a
                    spielerInfo[spielerAmZug].geld += 200;
                    setGeld(spielerInfo[spielerAmZug].geld,spielerAmZug);
                }
                
                
                for (uint8_t i = spielerInfo[spielerAmZug].position; i < (spielerInfo[spielerAmZug].position + (wuerfelArray[0] + wuerfelArray[1])); i = i + 1)
    19e2:	8f 81       	ldd	r24, Y+7	; 0x07
    19e4:	8f 5f       	subi	r24, 0xFF	; 255
    19e6:	8f 83       	std	Y+7, r24	; 0x07
    19e8:	8f 81       	ldd	r24, Y+7	; 0x07
    19ea:	28 2f       	mov	r18, r24
    19ec:	30 e0       	ldi	r19, 0x00	; 0
    19ee:	8b 81       	ldd	r24, Y+3	; 0x03
    19f0:	48 2f       	mov	r20, r24
    19f2:	50 e0       	ldi	r21, 0x00	; 0
    19f4:	65 e3       	ldi	r22, 0x35	; 53
    19f6:	64 9f       	mul	r22, r20
    19f8:	c0 01       	movw	r24, r0
    19fa:	65 9f       	mul	r22, r21
    19fc:	90 0d       	add	r25, r0
    19fe:	11 24       	eor	r1, r1
    1a00:	80 5d       	subi	r24, 0xD0	; 208
    1a02:	99 4f       	sbci	r25, 0xF9	; 249
    1a04:	fc 01       	movw	r30, r24
    1a06:	80 81       	ld	r24, Z
    1a08:	48 2f       	mov	r20, r24
    1a0a:	50 e0       	ldi	r21, 0x00	; 0
    1a0c:	80 91 c8 04 	lds	r24, 0x04C8	; 0x8004c8 <__data_end>
    1a10:	68 2f       	mov	r22, r24
    1a12:	70 e0       	ldi	r23, 0x00	; 0
    1a14:	80 91 c9 04 	lds	r24, 0x04C9	; 0x8004c9 <__data_end+0x1>
    1a18:	88 2f       	mov	r24, r24
    1a1a:	90 e0       	ldi	r25, 0x00	; 0
    1a1c:	86 0f       	add	r24, r22
    1a1e:	97 1f       	adc	r25, r23
    1a20:	84 0f       	add	r24, r20
    1a22:	95 1f       	adc	r25, r21
    1a24:	28 17       	cp	r18, r24
    1a26:	39 07       	cpc	r19, r25
    1a28:	0c f4       	brge	.+2      	; 0x1a2c <main+0x5d0>
    1a2a:	58 cf       	rjmp	.-336    	; 0x18dc <main+0x480>
                {
                    setPlayerPosition(i % 40,spielerAmZug);
                    _delay_ms(100);
                }
                spielerInfo[spielerAmZug].position = (spielerInfo[spielerAmZug].position + (wuerfelArray[0] + wuerfelArray[1])) % 40;
    1a2c:	8b 81       	ldd	r24, Y+3	; 0x03
    1a2e:	28 2f       	mov	r18, r24
    1a30:	30 e0       	ldi	r19, 0x00	; 0
    1a32:	8b 81       	ldd	r24, Y+3	; 0x03
    1a34:	48 2f       	mov	r20, r24
    1a36:	50 e0       	ldi	r21, 0x00	; 0
    1a38:	65 e3       	ldi	r22, 0x35	; 53
    1a3a:	64 9f       	mul	r22, r20
    1a3c:	c0 01       	movw	r24, r0
    1a3e:	65 9f       	mul	r22, r21
    1a40:	90 0d       	add	r25, r0
    1a42:	11 24       	eor	r1, r1
    1a44:	80 5d       	subi	r24, 0xD0	; 208
    1a46:	99 4f       	sbci	r25, 0xF9	; 249
    1a48:	fc 01       	movw	r30, r24
    1a4a:	80 81       	ld	r24, Z
    1a4c:	48 2f       	mov	r20, r24
    1a4e:	50 e0       	ldi	r21, 0x00	; 0
    1a50:	80 91 c8 04 	lds	r24, 0x04C8	; 0x8004c8 <__data_end>
    1a54:	68 2f       	mov	r22, r24
    1a56:	70 e0       	ldi	r23, 0x00	; 0
    1a58:	80 91 c9 04 	lds	r24, 0x04C9	; 0x8004c9 <__data_end+0x1>
    1a5c:	88 2f       	mov	r24, r24
    1a5e:	90 e0       	ldi	r25, 0x00	; 0
    1a60:	86 0f       	add	r24, r22
    1a62:	97 1f       	adc	r25, r23
    1a64:	84 0f       	add	r24, r20
    1a66:	95 1f       	adc	r25, r21
    1a68:	48 e2       	ldi	r20, 0x28	; 40
    1a6a:	50 e0       	ldi	r21, 0x00	; 0
    1a6c:	ba 01       	movw	r22, r20
    1a6e:	0e 94 f6 20 	call	0x41ec	; 0x41ec <__divmodhi4>
    1a72:	58 2f       	mov	r21, r24
    1a74:	45 e3       	ldi	r20, 0x35	; 53
    1a76:	42 9f       	mul	r20, r18
    1a78:	c0 01       	movw	r24, r0
    1a7a:	43 9f       	mul	r20, r19
    1a7c:	90 0d       	add	r25, r0
    1a7e:	11 24       	eor	r1, r1
    1a80:	80 5d       	subi	r24, 0xD0	; 208
    1a82:	99 4f       	sbci	r25, 0xF9	; 249
    1a84:	fc 01       	movw	r30, r24
    1a86:	50 83       	st	Z, r21
                setPlayerPosition(spielerInfo[spielerAmZug].position,spielerAmZug);
    1a88:	8b 81       	ldd	r24, Y+3	; 0x03
    1a8a:	28 2f       	mov	r18, r24
    1a8c:	30 e0       	ldi	r19, 0x00	; 0
    1a8e:	45 e3       	ldi	r20, 0x35	; 53
    1a90:	42 9f       	mul	r20, r18
    1a92:	c0 01       	movw	r24, r0
    1a94:	43 9f       	mul	r20, r19
    1a96:	90 0d       	add	r25, r0
    1a98:	11 24       	eor	r1, r1
    1a9a:	80 5d       	subi	r24, 0xD0	; 208
    1a9c:	99 4f       	sbci	r25, 0xF9	; 249
    1a9e:	fc 01       	movw	r30, r24
    1aa0:	80 81       	ld	r24, Z
    1aa2:	6b 81       	ldd	r22, Y+3	; 0x03
    1aa4:	94 d6       	rcall	.+3368   	; 0x27ce <setPlayerPosition>
                aktuellesFeld = spielfeld[spielerInfo[spielerAmZug].position].typ;
    1aa6:	8b 81       	ldd	r24, Y+3	; 0x03
    1aa8:	28 2f       	mov	r18, r24
    1aaa:	30 e0       	ldi	r19, 0x00	; 0
    1aac:	45 e3       	ldi	r20, 0x35	; 53
    1aae:	42 9f       	mul	r20, r18
    1ab0:	c0 01       	movw	r24, r0
    1ab2:	43 9f       	mul	r20, r19
    1ab4:	90 0d       	add	r25, r0
    1ab6:	11 24       	eor	r1, r1
    1ab8:	80 5d       	subi	r24, 0xD0	; 208
    1aba:	99 4f       	sbci	r25, 0xF9	; 249
    1abc:	fc 01       	movw	r30, r24
    1abe:	80 81       	ld	r24, Z
    1ac0:	28 2f       	mov	r18, r24
    1ac2:	30 e0       	ldi	r19, 0x00	; 0
    1ac4:	4b e3       	ldi	r20, 0x3B	; 59
    1ac6:	42 9f       	mul	r20, r18
    1ac8:	c0 01       	movw	r24, r0
    1aca:	43 9f       	mul	r20, r19
    1acc:	90 0d       	add	r25, r0
    1ace:	11 24       	eor	r1, r1
    1ad0:	9e 01       	movw	r18, r28
    1ad2:	2f 5f       	subi	r18, 0xFF	; 255
    1ad4:	3f 4f       	sbci	r19, 0xFF	; 255
    1ad6:	82 0f       	add	r24, r18
    1ad8:	93 1f       	adc	r25, r19
    1ada:	83 5b       	subi	r24, 0xB3	; 179
    1adc:	9f 4f       	sbci	r25, 0xFF	; 255
    1ade:	fc 01       	movw	r30, r24
    1ae0:	80 81       	ld	r24, Z
    1ae2:	8d 83       	std	Y+5, r24	; 0x05
                aktuellePosition = spielerInfo[spielerAmZug].position;
    1ae4:	8b 81       	ldd	r24, Y+3	; 0x03
    1ae6:	28 2f       	mov	r18, r24
    1ae8:	30 e0       	ldi	r19, 0x00	; 0
    1aea:	45 e3       	ldi	r20, 0x35	; 53
    1aec:	42 9f       	mul	r20, r18
    1aee:	c0 01       	movw	r24, r0
    1af0:	43 9f       	mul	r20, r19
    1af2:	90 0d       	add	r25, r0
    1af4:	11 24       	eor	r1, r1
    1af6:	80 5d       	subi	r24, 0xD0	; 208
    1af8:	99 4f       	sbci	r25, 0xF9	; 249
    1afa:	fc 01       	movw	r30, r24
    1afc:	80 81       	ld	r24, Z
    1afe:	8e 83       	std	Y+6, r24	; 0x06
                
                
                
            }
            
            setGeld(spielerInfo[1].geld,1);
    1b00:	80 91 63 06 	lds	r24, 0x0663	; 0x800663 <spielerInfo+0x67>
    1b04:	90 91 64 06 	lds	r25, 0x0664	; 0x800664 <spielerInfo+0x68>
    1b08:	61 e0       	ldi	r22, 0x01	; 1
    1b0a:	0e 94 65 16 	call	0x2cca	; 0x2cca <setGeld>
            setGeld(spielerInfo[2].geld,2);
    1b0e:	80 91 98 06 	lds	r24, 0x0698	; 0x800698 <spielerInfo+0x9c>
    1b12:	90 91 99 06 	lds	r25, 0x0699	; 0x800699 <spielerInfo+0x9d>
    1b16:	62 e0       	ldi	r22, 0x02	; 2
    1b18:	0e 94 65 16 	call	0x2cca	; 0x2cca <setGeld>
            setGeld(spielerInfo[3].geld,3);
    1b1c:	80 91 cd 06 	lds	r24, 0x06CD	; 0x8006cd <spielerInfo+0xd1>
    1b20:	90 91 ce 06 	lds	r25, 0x06CE	; 0x8006ce <spielerInfo+0xd2>
    1b24:	63 e0       	ldi	r22, 0x03	; 3
    1b26:	0e 94 65 16 	call	0x2cca	; 0x2cca <setGeld>
            setGeld(spielerInfo[4].geld,4);
    1b2a:	80 91 02 07 	lds	r24, 0x0702	; 0x800702 <spielerInfo+0x106>
    1b2e:	90 91 03 07 	lds	r25, 0x0703	; 0x800703 <spielerInfo+0x107>
    1b32:	64 e0       	ldi	r22, 0x04	; 4
    1b34:	0e 94 65 16 	call	0x2cca	; 0x2cca <setGeld>
        
        
        
        

        switch (aktuellesFeld)
    1b38:	8d 81       	ldd	r24, Y+5	; 0x05
    1b3a:	88 2f       	mov	r24, r24
    1b3c:	90 e0       	ldi	r25, 0x00	; 0
    1b3e:	09 2e       	mov	r0, r25
    1b40:	00 0c       	add	r0, r0
    1b42:	aa 0b       	sbc	r26, r26
    1b44:	bb 0b       	sbc	r27, r27
    1b46:	40 e0       	ldi	r20, 0x00	; 0
    1b48:	50 e0       	ldi	r21, 0x00	; 0
    1b4a:	27 e0       	ldi	r18, 0x07	; 7
    1b4c:	30 e0       	ldi	r19, 0x00	; 0
    1b4e:	84 1b       	sub	r24, r20
    1b50:	95 0b       	sbc	r25, r21
    1b52:	28 17       	cp	r18, r24
    1b54:	39 07       	cpc	r19, r25
    1b56:	08 f4       	brcc	.+2      	; 0x1b5a <main+0x6fe>
    1b58:	30 cd       	rjmp	.-1440   	; 0x15ba <main+0x15e>
    1b5a:	fc 01       	movw	r30, r24
    1b5c:	88 27       	eor	r24, r24
    1b5e:	ee 58       	subi	r30, 0x8E	; 142
    1b60:	ff 4f       	sbci	r31, 0xFF	; 255
    1b62:	8f 4f       	sbci	r24, 0xFF	; 255
    1b64:	0c 94 09 21 	jmp	0x4212	; 0x4212 <__tablejump2__>
        {
            case EREIGNISFELD:
            break;
            case STRASSE:
            if (positiveFlanke & TASTER9)
    1b68:	88 85       	ldd	r24, Y+8	; 0x08
    1b6a:	99 85       	ldd	r25, Y+9	; 0x09
    1b6c:	88 27       	eor	r24, r24
    1b6e:	91 70       	andi	r25, 0x01	; 1
    1b70:	89 2b       	or	r24, r25
    1b72:	09 f4       	brne	.+2      	; 0x1b76 <main+0x71a>
    1b74:	a5 c0       	rjmp	.+330    	; 0x1cc0 <main+0x864>
            {
                if((spielerInfo[spielerAmZug].geld >= (spielfeld[aktuellePosition].preis)) && (spielfeld[aktuellePosition].besitzer == 0))
    1b76:	8b 81       	ldd	r24, Y+3	; 0x03
    1b78:	28 2f       	mov	r18, r24
    1b7a:	30 e0       	ldi	r19, 0x00	; 0
    1b7c:	45 e3       	ldi	r20, 0x35	; 53
    1b7e:	42 9f       	mul	r20, r18
    1b80:	c0 01       	movw	r24, r0
    1b82:	43 9f       	mul	r20, r19
    1b84:	90 0d       	add	r25, r0
    1b86:	11 24       	eor	r1, r1
    1b88:	82 5d       	subi	r24, 0xD2	; 210
    1b8a:	99 4f       	sbci	r25, 0xF9	; 249
    1b8c:	fc 01       	movw	r30, r24
    1b8e:	20 81       	ld	r18, Z
    1b90:	31 81       	ldd	r19, Z+1	; 0x01
    1b92:	8e 81       	ldd	r24, Y+6	; 0x06
    1b94:	48 2f       	mov	r20, r24
    1b96:	50 e0       	ldi	r21, 0x00	; 0
    1b98:	6b e3       	ldi	r22, 0x3B	; 59
    1b9a:	64 9f       	mul	r22, r20
    1b9c:	c0 01       	movw	r24, r0
    1b9e:	65 9f       	mul	r22, r21
    1ba0:	90 0d       	add	r25, r0
    1ba2:	11 24       	eor	r1, r1
    1ba4:	ae 01       	movw	r20, r28
    1ba6:	4f 5f       	subi	r20, 0xFF	; 255
    1ba8:	5f 4f       	sbci	r21, 0xFF	; 255
    1baa:	84 0f       	add	r24, r20
    1bac:	95 1f       	adc	r25, r21
    1bae:	82 5b       	subi	r24, 0xB2	; 178
    1bb0:	9f 4f       	sbci	r25, 0xFF	; 255
    1bb2:	fc 01       	movw	r30, r24
    1bb4:	80 81       	ld	r24, Z
    1bb6:	88 2f       	mov	r24, r24
    1bb8:	90 e0       	ldi	r25, 0x00	; 0
    1bba:	28 17       	cp	r18, r24
    1bbc:	39 07       	cpc	r19, r25
    1bbe:	08 f4       	brcc	.+2      	; 0x1bc2 <main+0x766>
    1bc0:	7f c0       	rjmp	.+254    	; 0x1cc0 <main+0x864>
    1bc2:	8e 81       	ldd	r24, Y+6	; 0x06
    1bc4:	28 2f       	mov	r18, r24
    1bc6:	30 e0       	ldi	r19, 0x00	; 0
    1bc8:	4b e3       	ldi	r20, 0x3B	; 59
    1bca:	42 9f       	mul	r20, r18
    1bcc:	c0 01       	movw	r24, r0
    1bce:	43 9f       	mul	r20, r19
    1bd0:	90 0d       	add	r25, r0
    1bd2:	11 24       	eor	r1, r1
    1bd4:	9e 01       	movw	r18, r28
    1bd6:	2f 5f       	subi	r18, 0xFF	; 255
    1bd8:	3f 4f       	sbci	r19, 0xFF	; 255
    1bda:	82 0f       	add	r24, r18
    1bdc:	93 1f       	adc	r25, r19
    1bde:	8f 5a       	subi	r24, 0xAF	; 175
    1be0:	9f 4f       	sbci	r25, 0xFF	; 255
    1be2:	fc 01       	movw	r30, r24
    1be4:	80 81       	ld	r24, Z
    1be6:	88 23       	and	r24, r24
    1be8:	09 f0       	breq	.+2      	; 0x1bec <main+0x790>
    1bea:	6a c0       	rjmp	.+212    	; 0x1cc0 <main+0x864>
                {
                    spielerInfo[spielerAmZug].geld = spielerInfo[spielerAmZug].geld - spielfeld[aktuellePosition].preis;
    1bec:	8b 81       	ldd	r24, Y+3	; 0x03
    1bee:	48 2f       	mov	r20, r24
    1bf0:	50 e0       	ldi	r21, 0x00	; 0
    1bf2:	8b 81       	ldd	r24, Y+3	; 0x03
    1bf4:	28 2f       	mov	r18, r24
    1bf6:	30 e0       	ldi	r19, 0x00	; 0
    1bf8:	65 e3       	ldi	r22, 0x35	; 53
    1bfa:	62 9f       	mul	r22, r18
    1bfc:	c0 01       	movw	r24, r0
    1bfe:	63 9f       	mul	r22, r19
    1c00:	90 0d       	add	r25, r0
    1c02:	11 24       	eor	r1, r1
    1c04:	82 5d       	subi	r24, 0xD2	; 210
    1c06:	99 4f       	sbci	r25, 0xF9	; 249
    1c08:	fc 01       	movw	r30, r24
    1c0a:	20 81       	ld	r18, Z
    1c0c:	31 81       	ldd	r19, Z+1	; 0x01
    1c0e:	8e 81       	ldd	r24, Y+6	; 0x06
    1c10:	68 2f       	mov	r22, r24
    1c12:	70 e0       	ldi	r23, 0x00	; 0
    1c14:	eb e3       	ldi	r30, 0x3B	; 59
    1c16:	e6 9f       	mul	r30, r22
    1c18:	c0 01       	movw	r24, r0
    1c1a:	e7 9f       	mul	r30, r23
    1c1c:	90 0d       	add	r25, r0
    1c1e:	11 24       	eor	r1, r1
    1c20:	be 01       	movw	r22, r28
    1c22:	6f 5f       	subi	r22, 0xFF	; 255
    1c24:	7f 4f       	sbci	r23, 0xFF	; 255
    1c26:	86 0f       	add	r24, r22
    1c28:	97 1f       	adc	r25, r23
    1c2a:	82 5b       	subi	r24, 0xB2	; 178
    1c2c:	9f 4f       	sbci	r25, 0xFF	; 255
    1c2e:	fc 01       	movw	r30, r24
    1c30:	80 81       	ld	r24, Z
    1c32:	88 2f       	mov	r24, r24
    1c34:	90 e0       	ldi	r25, 0x00	; 0
    1c36:	28 1b       	sub	r18, r24
    1c38:	39 0b       	sbc	r19, r25
    1c3a:	65 e3       	ldi	r22, 0x35	; 53
    1c3c:	64 9f       	mul	r22, r20
    1c3e:	c0 01       	movw	r24, r0
    1c40:	65 9f       	mul	r22, r21
    1c42:	90 0d       	add	r25, r0
    1c44:	11 24       	eor	r1, r1
    1c46:	82 5d       	subi	r24, 0xD2	; 210
    1c48:	99 4f       	sbci	r25, 0xF9	; 249
    1c4a:	fc 01       	movw	r30, r24
    1c4c:	31 83       	std	Z+1, r19	; 0x01
    1c4e:	20 83       	st	Z, r18
                    spielfeld[aktuellePosition].besitzer = spielerAmZug;
    1c50:	8e 81       	ldd	r24, Y+6	; 0x06
    1c52:	28 2f       	mov	r18, r24
    1c54:	30 e0       	ldi	r19, 0x00	; 0
    1c56:	4b e3       	ldi	r20, 0x3B	; 59
    1c58:	42 9f       	mul	r20, r18
    1c5a:	c0 01       	movw	r24, r0
    1c5c:	43 9f       	mul	r20, r19
    1c5e:	90 0d       	add	r25, r0
    1c60:	11 24       	eor	r1, r1
    1c62:	9e 01       	movw	r18, r28
    1c64:	2f 5f       	subi	r18, 0xFF	; 255
    1c66:	3f 4f       	sbci	r19, 0xFF	; 255
    1c68:	82 0f       	add	r24, r18
    1c6a:	93 1f       	adc	r25, r19
    1c6c:	8f 5a       	subi	r24, 0xAF	; 175
    1c6e:	9f 4f       	sbci	r25, 0xFF	; 255
    1c70:	2b 81       	ldd	r18, Y+3	; 0x03
    1c72:	fc 01       	movw	r30, r24
    1c74:	20 83       	st	Z, r18
                    setPropertyRgb(spielfeld[aktuellePosition].rgbNummer,spielerAmZug);
    1c76:	8e 81       	ldd	r24, Y+6	; 0x06
    1c78:	28 2f       	mov	r18, r24
    1c7a:	30 e0       	ldi	r19, 0x00	; 0
    1c7c:	4b e3       	ldi	r20, 0x3B	; 59
    1c7e:	42 9f       	mul	r20, r18
    1c80:	c0 01       	movw	r24, r0
    1c82:	43 9f       	mul	r20, r19
    1c84:	90 0d       	add	r25, r0
    1c86:	11 24       	eor	r1, r1
    1c88:	9e 01       	movw	r18, r28
    1c8a:	2f 5f       	subi	r18, 0xFF	; 255
    1c8c:	3f 4f       	sbci	r19, 0xFF	; 255
    1c8e:	82 0f       	add	r24, r18
    1c90:	93 1f       	adc	r25, r19
    1c92:	8b 5a       	subi	r24, 0xAB	; 171
    1c94:	9f 4f       	sbci	r25, 0xFF	; 255
    1c96:	fc 01       	movw	r30, r24
    1c98:	80 81       	ld	r24, Z
    1c9a:	6b 81       	ldd	r22, Y+3	; 0x03
    1c9c:	28 d5       	rcall	.+2640   	; 0x26ee <setPropertyRgb>
                    setGeld(spielerInfo[spielerAmZug].geld,spielerAmZug);
    1c9e:	8b 81       	ldd	r24, Y+3	; 0x03
    1ca0:	28 2f       	mov	r18, r24
    1ca2:	30 e0       	ldi	r19, 0x00	; 0
    1ca4:	45 e3       	ldi	r20, 0x35	; 53
    1ca6:	42 9f       	mul	r20, r18
    1ca8:	c0 01       	movw	r24, r0
    1caa:	43 9f       	mul	r20, r19
    1cac:	90 0d       	add	r25, r0
    1cae:	11 24       	eor	r1, r1
    1cb0:	82 5d       	subi	r24, 0xD2	; 210
    1cb2:	99 4f       	sbci	r25, 0xF9	; 249
    1cb4:	fc 01       	movw	r30, r24
    1cb6:	80 81       	ld	r24, Z
    1cb8:	91 81       	ldd	r25, Z+1	; 0x01
    1cba:	6b 81       	ldd	r22, Y+3	; 0x03
    1cbc:	0e 94 65 16 	call	0x2cca	; 0x2cca <setGeld>
                }
            }
            if (positiveFlanke & TASTER12)
    1cc0:	88 85       	ldd	r24, Y+8	; 0x08
    1cc2:	99 85       	ldd	r25, Y+9	; 0x09
    1cc4:	88 27       	eor	r24, r24
    1cc6:	98 70       	andi	r25, 0x08	; 8
    1cc8:	89 2b       	or	r24, r25
    1cca:	a1 f0       	breq	.+40     	; 0x1cf4 <main+0x898>
            {
                setHouse(spielfeld[aktuellePosition].hausnummer,5);
    1ccc:	8e 81       	ldd	r24, Y+6	; 0x06
    1cce:	28 2f       	mov	r18, r24
    1cd0:	30 e0       	ldi	r19, 0x00	; 0
    1cd2:	4b e3       	ldi	r20, 0x3B	; 59
    1cd4:	42 9f       	mul	r20, r18
    1cd6:	c0 01       	movw	r24, r0
    1cd8:	43 9f       	mul	r20, r19
    1cda:	90 0d       	add	r25, r0
    1cdc:	11 24       	eor	r1, r1
    1cde:	9e 01       	movw	r18, r28
    1ce0:	2f 5f       	subi	r18, 0xFF	; 255
    1ce2:	3f 4f       	sbci	r19, 0xFF	; 255
    1ce4:	82 0f       	add	r24, r18
    1ce6:	93 1f       	adc	r25, r19
    1ce8:	8d 5a       	subi	r24, 0xAD	; 173
    1cea:	9f 4f       	sbci	r25, 0xFF	; 255
    1cec:	fc 01       	movw	r30, r24
    1cee:	80 81       	ld	r24, Z
    1cf0:	65 e0       	ldi	r22, 0x05	; 5
    1cf2:	e1 d2       	rcall	.+1474   	; 0x22b6 <setHouse>
            }
            if (positiveFlanke & TASTER16)
    1cf4:	88 85       	ldd	r24, Y+8	; 0x08
    1cf6:	99 85       	ldd	r25, Y+9	; 0x09
    1cf8:	99 23       	and	r25, r25
    1cfa:	0c f0       	brlt	.+2      	; 0x1cfe <main+0x8a2>
    1cfc:	72 c1       	rjmp	.+740    	; 0x1fe2 <main+0xb86>
            {
                setHouse(spielfeld[aktuellePosition].hausnummer,0);
    1cfe:	8e 81       	ldd	r24, Y+6	; 0x06
    1d00:	28 2f       	mov	r18, r24
    1d02:	30 e0       	ldi	r19, 0x00	; 0
    1d04:	4b e3       	ldi	r20, 0x3B	; 59
    1d06:	42 9f       	mul	r20, r18
    1d08:	c0 01       	movw	r24, r0
    1d0a:	43 9f       	mul	r20, r19
    1d0c:	90 0d       	add	r25, r0
    1d0e:	11 24       	eor	r1, r1
    1d10:	9e 01       	movw	r18, r28
    1d12:	2f 5f       	subi	r18, 0xFF	; 255
    1d14:	3f 4f       	sbci	r19, 0xFF	; 255
    1d16:	82 0f       	add	r24, r18
    1d18:	93 1f       	adc	r25, r19
    1d1a:	8d 5a       	subi	r24, 0xAD	; 173
    1d1c:	9f 4f       	sbci	r25, 0xFF	; 255
    1d1e:	fc 01       	movw	r30, r24
    1d20:	80 81       	ld	r24, Z
    1d22:	60 e0       	ldi	r22, 0x00	; 0
    1d24:	c8 d2       	rcall	.+1424   	; 0x22b6 <setHouse>
            }
            break;
    1d26:	5d c1       	rjmp	.+698    	; 0x1fe2 <main+0xb86>
            case STEUERFELD:
            break;
            case HALTESTELLE:
            if (positiveFlanke & TASTER9)
    1d28:	88 85       	ldd	r24, Y+8	; 0x08
    1d2a:	99 85       	ldd	r25, Y+9	; 0x09
    1d2c:	88 27       	eor	r24, r24
    1d2e:	91 70       	andi	r25, 0x01	; 1
    1d30:	89 2b       	or	r24, r25
    1d32:	09 f4       	brne	.+2      	; 0x1d36 <main+0x8da>
    1d34:	58 c1       	rjmp	.+688    	; 0x1fe6 <main+0xb8a>
            {
                if((spielerInfo[spielerAmZug].geld >= (spielfeld[aktuellePosition].preis)) && (spielfeld[aktuellePosition].besitzer == 0))
    1d36:	8b 81       	ldd	r24, Y+3	; 0x03
    1d38:	28 2f       	mov	r18, r24
    1d3a:	30 e0       	ldi	r19, 0x00	; 0
    1d3c:	45 e3       	ldi	r20, 0x35	; 53
    1d3e:	42 9f       	mul	r20, r18
    1d40:	c0 01       	movw	r24, r0
    1d42:	43 9f       	mul	r20, r19
    1d44:	90 0d       	add	r25, r0
    1d46:	11 24       	eor	r1, r1
    1d48:	82 5d       	subi	r24, 0xD2	; 210
    1d4a:	99 4f       	sbci	r25, 0xF9	; 249
    1d4c:	fc 01       	movw	r30, r24
    1d4e:	20 81       	ld	r18, Z
    1d50:	31 81       	ldd	r19, Z+1	; 0x01
    1d52:	8e 81       	ldd	r24, Y+6	; 0x06
    1d54:	48 2f       	mov	r20, r24
    1d56:	50 e0       	ldi	r21, 0x00	; 0
    1d58:	6b e3       	ldi	r22, 0x3B	; 59
    1d5a:	64 9f       	mul	r22, r20
    1d5c:	c0 01       	movw	r24, r0
    1d5e:	65 9f       	mul	r22, r21
    1d60:	90 0d       	add	r25, r0
    1d62:	11 24       	eor	r1, r1
    1d64:	ae 01       	movw	r20, r28
    1d66:	4f 5f       	subi	r20, 0xFF	; 255
    1d68:	5f 4f       	sbci	r21, 0xFF	; 255
    1d6a:	84 0f       	add	r24, r20
    1d6c:	95 1f       	adc	r25, r21
    1d6e:	82 5b       	subi	r24, 0xB2	; 178
    1d70:	9f 4f       	sbci	r25, 0xFF	; 255
    1d72:	fc 01       	movw	r30, r24
    1d74:	80 81       	ld	r24, Z
    1d76:	88 2f       	mov	r24, r24
    1d78:	90 e0       	ldi	r25, 0x00	; 0
    1d7a:	28 17       	cp	r18, r24
    1d7c:	39 07       	cpc	r19, r25
    1d7e:	08 f4       	brcc	.+2      	; 0x1d82 <main+0x926>
    1d80:	32 c1       	rjmp	.+612    	; 0x1fe6 <main+0xb8a>
    1d82:	8e 81       	ldd	r24, Y+6	; 0x06
    1d84:	28 2f       	mov	r18, r24
    1d86:	30 e0       	ldi	r19, 0x00	; 0
    1d88:	4b e3       	ldi	r20, 0x3B	; 59
    1d8a:	42 9f       	mul	r20, r18
    1d8c:	c0 01       	movw	r24, r0
    1d8e:	43 9f       	mul	r20, r19
    1d90:	90 0d       	add	r25, r0
    1d92:	11 24       	eor	r1, r1
    1d94:	9e 01       	movw	r18, r28
    1d96:	2f 5f       	subi	r18, 0xFF	; 255
    1d98:	3f 4f       	sbci	r19, 0xFF	; 255
    1d9a:	82 0f       	add	r24, r18
    1d9c:	93 1f       	adc	r25, r19
    1d9e:	8f 5a       	subi	r24, 0xAF	; 175
    1da0:	9f 4f       	sbci	r25, 0xFF	; 255
    1da2:	fc 01       	movw	r30, r24
    1da4:	80 81       	ld	r24, Z
    1da6:	88 23       	and	r24, r24
    1da8:	09 f0       	breq	.+2      	; 0x1dac <main+0x950>
    1daa:	1d c1       	rjmp	.+570    	; 0x1fe6 <main+0xb8a>
                {
                    spielerInfo[spielerAmZug].geld = spielerInfo[spielerAmZug].geld - spielfeld[aktuellePosition].preis;
    1dac:	8b 81       	ldd	r24, Y+3	; 0x03
    1dae:	48 2f       	mov	r20, r24
    1db0:	50 e0       	ldi	r21, 0x00	; 0
    1db2:	8b 81       	ldd	r24, Y+3	; 0x03
    1db4:	28 2f       	mov	r18, r24
    1db6:	30 e0       	ldi	r19, 0x00	; 0
    1db8:	65 e3       	ldi	r22, 0x35	; 53
    1dba:	62 9f       	mul	r22, r18
    1dbc:	c0 01       	movw	r24, r0
    1dbe:	63 9f       	mul	r22, r19
    1dc0:	90 0d       	add	r25, r0
    1dc2:	11 24       	eor	r1, r1
    1dc4:	82 5d       	subi	r24, 0xD2	; 210
    1dc6:	99 4f       	sbci	r25, 0xF9	; 249
    1dc8:	fc 01       	movw	r30, r24
    1dca:	20 81       	ld	r18, Z
    1dcc:	31 81       	ldd	r19, Z+1	; 0x01
    1dce:	8e 81       	ldd	r24, Y+6	; 0x06
    1dd0:	68 2f       	mov	r22, r24
    1dd2:	70 e0       	ldi	r23, 0x00	; 0
    1dd4:	eb e3       	ldi	r30, 0x3B	; 59
    1dd6:	e6 9f       	mul	r30, r22
    1dd8:	c0 01       	movw	r24, r0
    1dda:	e7 9f       	mul	r30, r23
    1ddc:	90 0d       	add	r25, r0
    1dde:	11 24       	eor	r1, r1
    1de0:	be 01       	movw	r22, r28
    1de2:	6f 5f       	subi	r22, 0xFF	; 255
    1de4:	7f 4f       	sbci	r23, 0xFF	; 255
    1de6:	86 0f       	add	r24, r22
    1de8:	97 1f       	adc	r25, r23
    1dea:	82 5b       	subi	r24, 0xB2	; 178
    1dec:	9f 4f       	sbci	r25, 0xFF	; 255
    1dee:	fc 01       	movw	r30, r24
    1df0:	80 81       	ld	r24, Z
    1df2:	88 2f       	mov	r24, r24
    1df4:	90 e0       	ldi	r25, 0x00	; 0
    1df6:	28 1b       	sub	r18, r24
    1df8:	39 0b       	sbc	r19, r25
    1dfa:	65 e3       	ldi	r22, 0x35	; 53
    1dfc:	64 9f       	mul	r22, r20
    1dfe:	c0 01       	movw	r24, r0
    1e00:	65 9f       	mul	r22, r21
    1e02:	90 0d       	add	r25, r0
    1e04:	11 24       	eor	r1, r1
    1e06:	82 5d       	subi	r24, 0xD2	; 210
    1e08:	99 4f       	sbci	r25, 0xF9	; 249
    1e0a:	fc 01       	movw	r30, r24
    1e0c:	31 83       	std	Z+1, r19	; 0x01
    1e0e:	20 83       	st	Z, r18
                    spielfeld[aktuellePosition].besitzer = spielerAmZug;
    1e10:	8e 81       	ldd	r24, Y+6	; 0x06
    1e12:	28 2f       	mov	r18, r24
    1e14:	30 e0       	ldi	r19, 0x00	; 0
    1e16:	4b e3       	ldi	r20, 0x3B	; 59
    1e18:	42 9f       	mul	r20, r18
    1e1a:	c0 01       	movw	r24, r0
    1e1c:	43 9f       	mul	r20, r19
    1e1e:	90 0d       	add	r25, r0
    1e20:	11 24       	eor	r1, r1
    1e22:	9e 01       	movw	r18, r28
    1e24:	2f 5f       	subi	r18, 0xFF	; 255
    1e26:	3f 4f       	sbci	r19, 0xFF	; 255
    1e28:	82 0f       	add	r24, r18
    1e2a:	93 1f       	adc	r25, r19
    1e2c:	8f 5a       	subi	r24, 0xAF	; 175
    1e2e:	9f 4f       	sbci	r25, 0xFF	; 255
    1e30:	2b 81       	ldd	r18, Y+3	; 0x03
    1e32:	fc 01       	movw	r30, r24
    1e34:	20 83       	st	Z, r18
                    setPropertyRgb(spielfeld[aktuellePosition].rgbNummer,spielerAmZug);
    1e36:	8e 81       	ldd	r24, Y+6	; 0x06
    1e38:	28 2f       	mov	r18, r24
    1e3a:	30 e0       	ldi	r19, 0x00	; 0
    1e3c:	4b e3       	ldi	r20, 0x3B	; 59
    1e3e:	42 9f       	mul	r20, r18
    1e40:	c0 01       	movw	r24, r0
    1e42:	43 9f       	mul	r20, r19
    1e44:	90 0d       	add	r25, r0
    1e46:	11 24       	eor	r1, r1
    1e48:	9e 01       	movw	r18, r28
    1e4a:	2f 5f       	subi	r18, 0xFF	; 255
    1e4c:	3f 4f       	sbci	r19, 0xFF	; 255
    1e4e:	82 0f       	add	r24, r18
    1e50:	93 1f       	adc	r25, r19
    1e52:	8b 5a       	subi	r24, 0xAB	; 171
    1e54:	9f 4f       	sbci	r25, 0xFF	; 255
    1e56:	fc 01       	movw	r30, r24
    1e58:	80 81       	ld	r24, Z
    1e5a:	6b 81       	ldd	r22, Y+3	; 0x03
    1e5c:	48 d4       	rcall	.+2192   	; 0x26ee <setPropertyRgb>
                    setGeld(spielerInfo[spielerAmZug].geld,spielerAmZug);
    1e5e:	8b 81       	ldd	r24, Y+3	; 0x03
    1e60:	28 2f       	mov	r18, r24
    1e62:	30 e0       	ldi	r19, 0x00	; 0
    1e64:	45 e3       	ldi	r20, 0x35	; 53
    1e66:	42 9f       	mul	r20, r18
    1e68:	c0 01       	movw	r24, r0
    1e6a:	43 9f       	mul	r20, r19
    1e6c:	90 0d       	add	r25, r0
    1e6e:	11 24       	eor	r1, r1
    1e70:	82 5d       	subi	r24, 0xD2	; 210
    1e72:	99 4f       	sbci	r25, 0xF9	; 249
    1e74:	fc 01       	movw	r30, r24
    1e76:	80 81       	ld	r24, Z
    1e78:	91 81       	ldd	r25, Z+1	; 0x01
    1e7a:	6b 81       	ldd	r22, Y+3	; 0x03
                }
            }
            break;
    1e7c:	26 d7       	rcall	.+3660   	; 0x2cca <setGeld>
            case GEFAENGNIS:
            //abInsGefaengnis(spielerAmZug);
            break;
            case GEH_INS_GEFAENGNIS:
            abInsGefaengnis(spielerAmZug);
    1e7e:	b3 c0       	rjmp	.+358    	; 0x1fe6 <main+0xb8a>
    1e80:	8b 81       	ldd	r24, Y+3	; 0x03
    1e82:	b5 d0       	rcall	.+362    	; 0x1fee <abInsGefaengnis>
            break;
    1e84:	b3 c0       	rjmp	.+358    	; 0x1fec <main+0xb90>
            case FREIPARKEN:
            break;
            case WERK:
            if (positiveFlanke & TASTER9)
    1e86:	88 85       	ldd	r24, Y+8	; 0x08
    1e88:	99 85       	ldd	r25, Y+9	; 0x09
    1e8a:	88 27       	eor	r24, r24
    1e8c:	91 70       	andi	r25, 0x01	; 1
    1e8e:	89 2b       	or	r24, r25
    1e90:	09 f4       	brne	.+2      	; 0x1e94 <main+0xa38>
    1e92:	ab c0       	rjmp	.+342    	; 0x1fea <main+0xb8e>
            {
                if((spielerInfo[spielerAmZug].geld >= (spielfeld[aktuellePosition].preis)) && (spielfeld[aktuellePosition].besitzer == 0))
    1e94:	8b 81       	ldd	r24, Y+3	; 0x03
    1e96:	28 2f       	mov	r18, r24
    1e98:	30 e0       	ldi	r19, 0x00	; 0
    1e9a:	45 e3       	ldi	r20, 0x35	; 53
    1e9c:	42 9f       	mul	r20, r18
    1e9e:	c0 01       	movw	r24, r0
    1ea0:	43 9f       	mul	r20, r19
    1ea2:	90 0d       	add	r25, r0
    1ea4:	11 24       	eor	r1, r1
    1ea6:	82 5d       	subi	r24, 0xD2	; 210
    1ea8:	99 4f       	sbci	r25, 0xF9	; 249
    1eaa:	fc 01       	movw	r30, r24
    1eac:	20 81       	ld	r18, Z
    1eae:	31 81       	ldd	r19, Z+1	; 0x01
    1eb0:	8e 81       	ldd	r24, Y+6	; 0x06
    1eb2:	48 2f       	mov	r20, r24
    1eb4:	50 e0       	ldi	r21, 0x00	; 0
    1eb6:	6b e3       	ldi	r22, 0x3B	; 59
    1eb8:	64 9f       	mul	r22, r20
    1eba:	c0 01       	movw	r24, r0
    1ebc:	65 9f       	mul	r22, r21
    1ebe:	90 0d       	add	r25, r0
    1ec0:	11 24       	eor	r1, r1
    1ec2:	ae 01       	movw	r20, r28
    1ec4:	4f 5f       	subi	r20, 0xFF	; 255
    1ec6:	5f 4f       	sbci	r21, 0xFF	; 255
    1ec8:	84 0f       	add	r24, r20
    1eca:	95 1f       	adc	r25, r21
    1ecc:	82 5b       	subi	r24, 0xB2	; 178
    1ece:	9f 4f       	sbci	r25, 0xFF	; 255
    1ed0:	fc 01       	movw	r30, r24
    1ed2:	80 81       	ld	r24, Z
    1ed4:	88 2f       	mov	r24, r24
    1ed6:	90 e0       	ldi	r25, 0x00	; 0
    1ed8:	28 17       	cp	r18, r24
    1eda:	39 07       	cpc	r19, r25
    1edc:	08 f4       	brcc	.+2      	; 0x1ee0 <main+0xa84>
    1ede:	85 c0       	rjmp	.+266    	; 0x1fea <main+0xb8e>
    1ee0:	8e 81       	ldd	r24, Y+6	; 0x06
    1ee2:	28 2f       	mov	r18, r24
    1ee4:	30 e0       	ldi	r19, 0x00	; 0
    1ee6:	4b e3       	ldi	r20, 0x3B	; 59
    1ee8:	42 9f       	mul	r20, r18
    1eea:	c0 01       	movw	r24, r0
    1eec:	43 9f       	mul	r20, r19
    1eee:	90 0d       	add	r25, r0
    1ef0:	11 24       	eor	r1, r1
    1ef2:	9e 01       	movw	r18, r28
    1ef4:	2f 5f       	subi	r18, 0xFF	; 255
    1ef6:	3f 4f       	sbci	r19, 0xFF	; 255
    1ef8:	82 0f       	add	r24, r18
    1efa:	93 1f       	adc	r25, r19
    1efc:	8f 5a       	subi	r24, 0xAF	; 175
    1efe:	9f 4f       	sbci	r25, 0xFF	; 255
    1f00:	fc 01       	movw	r30, r24
    1f02:	80 81       	ld	r24, Z
    1f04:	88 23       	and	r24, r24
    1f06:	09 f0       	breq	.+2      	; 0x1f0a <main+0xaae>
    1f08:	70 c0       	rjmp	.+224    	; 0x1fea <main+0xb8e>
                {
                    spielerInfo[spielerAmZug].geld = spielerInfo[spielerAmZug].geld - spielfeld[aktuellePosition].preis;
    1f0a:	8b 81       	ldd	r24, Y+3	; 0x03
    1f0c:	48 2f       	mov	r20, r24
    1f0e:	50 e0       	ldi	r21, 0x00	; 0
    1f10:	8b 81       	ldd	r24, Y+3	; 0x03
    1f12:	28 2f       	mov	r18, r24
    1f14:	30 e0       	ldi	r19, 0x00	; 0
    1f16:	65 e3       	ldi	r22, 0x35	; 53
    1f18:	62 9f       	mul	r22, r18
    1f1a:	c0 01       	movw	r24, r0
    1f1c:	63 9f       	mul	r22, r19
    1f1e:	90 0d       	add	r25, r0
    1f20:	11 24       	eor	r1, r1
    1f22:	82 5d       	subi	r24, 0xD2	; 210
    1f24:	99 4f       	sbci	r25, 0xF9	; 249
    1f26:	fc 01       	movw	r30, r24
    1f28:	20 81       	ld	r18, Z
    1f2a:	31 81       	ldd	r19, Z+1	; 0x01
    1f2c:	8e 81       	ldd	r24, Y+6	; 0x06
    1f2e:	68 2f       	mov	r22, r24
    1f30:	70 e0       	ldi	r23, 0x00	; 0
    1f32:	eb e3       	ldi	r30, 0x3B	; 59
    1f34:	e6 9f       	mul	r30, r22
    1f36:	c0 01       	movw	r24, r0
    1f38:	e7 9f       	mul	r30, r23
    1f3a:	90 0d       	add	r25, r0
    1f3c:	11 24       	eor	r1, r1
    1f3e:	be 01       	movw	r22, r28
    1f40:	6f 5f       	subi	r22, 0xFF	; 255
    1f42:	7f 4f       	sbci	r23, 0xFF	; 255
    1f44:	86 0f       	add	r24, r22
    1f46:	97 1f       	adc	r25, r23
    1f48:	82 5b       	subi	r24, 0xB2	; 178
    1f4a:	9f 4f       	sbci	r25, 0xFF	; 255
    1f4c:	fc 01       	movw	r30, r24
    1f4e:	80 81       	ld	r24, Z
    1f50:	88 2f       	mov	r24, r24
    1f52:	90 e0       	ldi	r25, 0x00	; 0
    1f54:	28 1b       	sub	r18, r24
    1f56:	39 0b       	sbc	r19, r25
    1f58:	65 e3       	ldi	r22, 0x35	; 53
    1f5a:	64 9f       	mul	r22, r20
    1f5c:	c0 01       	movw	r24, r0
    1f5e:	65 9f       	mul	r22, r21
    1f60:	90 0d       	add	r25, r0
    1f62:	11 24       	eor	r1, r1
    1f64:	82 5d       	subi	r24, 0xD2	; 210
    1f66:	99 4f       	sbci	r25, 0xF9	; 249
    1f68:	fc 01       	movw	r30, r24
    1f6a:	31 83       	std	Z+1, r19	; 0x01
    1f6c:	20 83       	st	Z, r18
                    spielfeld[aktuellePosition].besitzer = spielerAmZug;
    1f6e:	8e 81       	ldd	r24, Y+6	; 0x06
    1f70:	28 2f       	mov	r18, r24
    1f72:	30 e0       	ldi	r19, 0x00	; 0
    1f74:	4b e3       	ldi	r20, 0x3B	; 59
    1f76:	42 9f       	mul	r20, r18
    1f78:	c0 01       	movw	r24, r0
    1f7a:	43 9f       	mul	r20, r19
    1f7c:	90 0d       	add	r25, r0
    1f7e:	11 24       	eor	r1, r1
    1f80:	9e 01       	movw	r18, r28
    1f82:	2f 5f       	subi	r18, 0xFF	; 255
    1f84:	3f 4f       	sbci	r19, 0xFF	; 255
    1f86:	82 0f       	add	r24, r18
    1f88:	93 1f       	adc	r25, r19
    1f8a:	8f 5a       	subi	r24, 0xAF	; 175
    1f8c:	9f 4f       	sbci	r25, 0xFF	; 255
    1f8e:	2b 81       	ldd	r18, Y+3	; 0x03
    1f90:	fc 01       	movw	r30, r24
    1f92:	20 83       	st	Z, r18
                    setPropertyRgb(spielfeld[aktuellePosition].rgbNummer,spielerAmZug);
    1f94:	8e 81       	ldd	r24, Y+6	; 0x06
    1f96:	28 2f       	mov	r18, r24
    1f98:	30 e0       	ldi	r19, 0x00	; 0
    1f9a:	4b e3       	ldi	r20, 0x3B	; 59
    1f9c:	42 9f       	mul	r20, r18
    1f9e:	c0 01       	movw	r24, r0
    1fa0:	43 9f       	mul	r20, r19
    1fa2:	90 0d       	add	r25, r0
    1fa4:	11 24       	eor	r1, r1
    1fa6:	9e 01       	movw	r18, r28
    1fa8:	2f 5f       	subi	r18, 0xFF	; 255
    1faa:	3f 4f       	sbci	r19, 0xFF	; 255
    1fac:	82 0f       	add	r24, r18
    1fae:	93 1f       	adc	r25, r19
    1fb0:	8b 5a       	subi	r24, 0xAB	; 171
    1fb2:	9f 4f       	sbci	r25, 0xFF	; 255
    1fb4:	fc 01       	movw	r30, r24
    1fb6:	80 81       	ld	r24, Z
    1fb8:	6b 81       	ldd	r22, Y+3	; 0x03
    1fba:	99 d3       	rcall	.+1842   	; 0x26ee <setPropertyRgb>
                    setGeld(spielerInfo[spielerAmZug].geld,spielerAmZug);
    1fbc:	8b 81       	ldd	r24, Y+3	; 0x03
    1fbe:	28 2f       	mov	r18, r24
    1fc0:	30 e0       	ldi	r19, 0x00	; 0
    1fc2:	45 e3       	ldi	r20, 0x35	; 53
    1fc4:	42 9f       	mul	r20, r18
    1fc6:	c0 01       	movw	r24, r0
    1fc8:	43 9f       	mul	r20, r19
    1fca:	90 0d       	add	r25, r0
    1fcc:	11 24       	eor	r1, r1
    1fce:	82 5d       	subi	r24, 0xD2	; 210
    1fd0:	99 4f       	sbci	r25, 0xF9	; 249
    1fd2:	fc 01       	movw	r30, r24
    1fd4:	80 81       	ld	r24, Z
    1fd6:	91 81       	ldd	r25, Z+1	; 0x01
    1fd8:	6b 81       	ldd	r22, Y+3	; 0x03
    1fda:	77 d6       	rcall	.+3310   	; 0x2cca <setGeld>
                }
            }
            break;
    1fdc:	06 c0       	rjmp	.+12     	; 0x1fea <main+0xb8e>
        

        switch (aktuellesFeld)
        {
            case EREIGNISFELD:
            break;
    1fde:	00 00       	nop
    1fe0:	ec ca       	rjmp	.-2600   	; 0x15ba <main+0x15e>
            }
            if (positiveFlanke & TASTER16)
            {
                setHouse(spielfeld[aktuellePosition].hausnummer,0);
            }
            break;
    1fe2:	00 00       	nop
    1fe4:	ea ca       	rjmp	.-2604   	; 0x15ba <main+0x15e>
                    spielfeld[aktuellePosition].besitzer = spielerAmZug;
                    setPropertyRgb(spielfeld[aktuellePosition].rgbNummer,spielerAmZug);
                    setGeld(spielerInfo[spielerAmZug].geld,spielerAmZug);
                }
            }
            break;
    1fe6:	00 00       	nop
    1fe8:	e8 ca       	rjmp	.-2608   	; 0x15ba <main+0x15e>
                    spielfeld[aktuellePosition].besitzer = spielerAmZug;
                    setPropertyRgb(spielfeld[aktuellePosition].rgbNummer,spielerAmZug);
                    setGeld(spielerInfo[spielerAmZug].geld,spielerAmZug);
                }
            }
            break;
    1fea:	00 00       	nop
        }
        //_delay_ms(500);
    }
    1fec:	e6 ca       	rjmp	.-2612   	; 0x15ba <main+0x15e>

00001fee <abInsGefaengnis>:
}


void abInsGefaengnis(uint8_t spielerNr)
{
    1fee:	cf 93       	push	r28
    1ff0:	df 93       	push	r29
    1ff2:	cd b7       	in	r28, 0x3d	; 61
    1ff4:	de b7       	in	r29, 0x3e	; 62
    1ff6:	6e 97       	sbiw	r28, 0x1e	; 30
    1ff8:	0f b6       	in	r0, 0x3f	; 63
    1ffa:	f8 94       	cli
    1ffc:	de bf       	out	0x3e, r29	; 62
    1ffe:	0f be       	out	0x3f, r0	; 63
    2000:	cd bf       	out	0x3d, r28	; 61
    2002:	8e 8f       	std	Y+30, r24	; 0x1e
    for (uint8_t i = 0; i < 20; i = i + 1)
    2004:	19 82       	std	Y+1, r1	; 0x01
    2006:	0b c1       	rjmp	.+534    	; 0x221e <__stack+0x1f>
    {
        PORTC |=  0b10000000;
    2008:	88 e2       	ldi	r24, 0x28	; 40
    200a:	90 e0       	ldi	r25, 0x00	; 0
    200c:	28 e2       	ldi	r18, 0x28	; 40
    200e:	30 e0       	ldi	r19, 0x00	; 0
    2010:	f9 01       	movw	r30, r18
    2012:	20 81       	ld	r18, Z
    2014:	20 68       	ori	r18, 0x80	; 128
    2016:	fc 01       	movw	r30, r24
    2018:	20 83       	st	Z, r18
        PORTC &= ~0b01000000;
    201a:	88 e2       	ldi	r24, 0x28	; 40
    201c:	90 e0       	ldi	r25, 0x00	; 0
    201e:	28 e2       	ldi	r18, 0x28	; 40
    2020:	30 e0       	ldi	r19, 0x00	; 0
    2022:	f9 01       	movw	r30, r18
    2024:	20 81       	ld	r18, Z
    2026:	2f 7b       	andi	r18, 0xBF	; 191
    2028:	fc 01       	movw	r30, r24
    202a:	20 83       	st	Z, r18
    202c:	80 e0       	ldi	r24, 0x00	; 0
    202e:	90 e0       	ldi	r25, 0x00	; 0
    2030:	a8 ec       	ldi	r26, 0xC8	; 200
    2032:	b2 e4       	ldi	r27, 0x42	; 66
    2034:	8a 83       	std	Y+2, r24	; 0x02
    2036:	9b 83       	std	Y+3, r25	; 0x03
    2038:	ac 83       	std	Y+4, r26	; 0x04
    203a:	bd 83       	std	Y+5, r27	; 0x05

	__builtin_avr_delay_cycles(__ticks_dc);

#else
	uint16_t __ticks;
	__tmp = ((F_CPU) / 4e3) * __ms;
    203c:	20 e0       	ldi	r18, 0x00	; 0
    203e:	30 e0       	ldi	r19, 0x00	; 0
    2040:	4a e7       	ldi	r20, 0x7A	; 122
    2042:	55 e4       	ldi	r21, 0x45	; 69
    2044:	6a 81       	ldd	r22, Y+2	; 0x02
    2046:	7b 81       	ldd	r23, Y+3	; 0x03
    2048:	8c 81       	ldd	r24, Y+4	; 0x04
    204a:	9d 81       	ldd	r25, Y+5	; 0x05
    204c:	0e 94 93 20 	call	0x4126	; 0x4126 <__mulsf3>
    2050:	dc 01       	movw	r26, r24
    2052:	cb 01       	movw	r24, r22
    2054:	8c 8b       	std	Y+20, r24	; 0x14
    2056:	9d 8b       	std	Y+21, r25	; 0x15
    2058:	ae 8b       	std	Y+22, r26	; 0x16
    205a:	bf 8b       	std	Y+23, r27	; 0x17
	if (__tmp < 1.0)
    205c:	20 e0       	ldi	r18, 0x00	; 0
    205e:	30 e0       	ldi	r19, 0x00	; 0
    2060:	40 e8       	ldi	r20, 0x80	; 128
    2062:	5f e3       	ldi	r21, 0x3F	; 63
    2064:	6c 89       	ldd	r22, Y+20	; 0x14
    2066:	7d 89       	ldd	r23, Y+21	; 0x15
    2068:	8e 89       	ldd	r24, Y+22	; 0x16
    206a:	9f 89       	ldd	r25, Y+23	; 0x17
    206c:	0e 94 45 1f 	call	0x3e8a	; 0x3e8a <__cmpsf2>
    2070:	88 23       	and	r24, r24
    2072:	2c f4       	brge	.+10     	; 0x207e <__DATA_REGION_LENGTH__+0x7e>
		__ticks = 1;
    2074:	81 e0       	ldi	r24, 0x01	; 1
    2076:	90 e0       	ldi	r25, 0x00	; 0
    2078:	99 8f       	std	Y+25, r25	; 0x19
    207a:	88 8f       	std	Y+24, r24	; 0x18
    207c:	3f c0       	rjmp	.+126    	; 0x20fc <__DATA_REGION_LENGTH__+0xfc>
	else if (__tmp > 65535)
    207e:	20 e0       	ldi	r18, 0x00	; 0
    2080:	3f ef       	ldi	r19, 0xFF	; 255
    2082:	4f e7       	ldi	r20, 0x7F	; 127
    2084:	57 e4       	ldi	r21, 0x47	; 71
    2086:	6c 89       	ldd	r22, Y+20	; 0x14
    2088:	7d 89       	ldd	r23, Y+21	; 0x15
    208a:	8e 89       	ldd	r24, Y+22	; 0x16
    208c:	9f 89       	ldd	r25, Y+23	; 0x17
    208e:	0e 94 8f 20 	call	0x411e	; 0x411e <__gesf2>
    2092:	18 16       	cp	r1, r24
    2094:	4c f5       	brge	.+82     	; 0x20e8 <__DATA_REGION_LENGTH__+0xe8>
	{
		//	__ticks = requested delay in 1/10 ms
		__ticks = (uint16_t) (__ms * 10.0);
    2096:	20 e0       	ldi	r18, 0x00	; 0
    2098:	30 e0       	ldi	r19, 0x00	; 0
    209a:	40 e2       	ldi	r20, 0x20	; 32
    209c:	51 e4       	ldi	r21, 0x41	; 65
    209e:	6a 81       	ldd	r22, Y+2	; 0x02
    20a0:	7b 81       	ldd	r23, Y+3	; 0x03
    20a2:	8c 81       	ldd	r24, Y+4	; 0x04
    20a4:	9d 81       	ldd	r25, Y+5	; 0x05
    20a6:	0e 94 93 20 	call	0x4126	; 0x4126 <__mulsf3>
    20aa:	dc 01       	movw	r26, r24
    20ac:	cb 01       	movw	r24, r22
    20ae:	bc 01       	movw	r22, r24
    20b0:	cd 01       	movw	r24, r26
    20b2:	0e 94 b1 1f 	call	0x3f62	; 0x3f62 <__fixunssfsi>
    20b6:	dc 01       	movw	r26, r24
    20b8:	cb 01       	movw	r24, r22
    20ba:	99 8f       	std	Y+25, r25	; 0x19
    20bc:	88 8f       	std	Y+24, r24	; 0x18
    20be:	0f c0       	rjmp	.+30     	; 0x20de <__DATA_REGION_LENGTH__+0xde>
    20c0:	80 e9       	ldi	r24, 0x90	; 144
    20c2:	91 e0       	ldi	r25, 0x01	; 1
    20c4:	9b 8f       	std	Y+27, r25	; 0x1b
    20c6:	8a 8f       	std	Y+26, r24	; 0x1a
    20c8:	8a 8d       	ldd	r24, Y+26	; 0x1a
    20ca:	9b 8d       	ldd	r25, Y+27	; 0x1b
    20cc:	01 97       	sbiw	r24, 0x01	; 1
    20ce:	f1 f7       	brne	.-4      	; 0x20cc <__DATA_REGION_LENGTH__+0xcc>
    20d0:	9b 8f       	std	Y+27, r25	; 0x1b
    20d2:	8a 8f       	std	Y+26, r24	; 0x1a
		while(__ticks)
		{
			// wait 1/10 ms
			_delay_loop_2(((F_CPU) / 4e3) / 10);
			__ticks --;
    20d4:	88 8d       	ldd	r24, Y+24	; 0x18
    20d6:	99 8d       	ldd	r25, Y+25	; 0x19
    20d8:	01 97       	sbiw	r24, 0x01	; 1
    20da:	99 8f       	std	Y+25, r25	; 0x19
    20dc:	88 8f       	std	Y+24, r24	; 0x18
		__ticks = 1;
	else if (__tmp > 65535)
	{
		//	__ticks = requested delay in 1/10 ms
		__ticks = (uint16_t) (__ms * 10.0);
		while(__ticks)
    20de:	88 8d       	ldd	r24, Y+24	; 0x18
    20e0:	99 8d       	ldd	r25, Y+25	; 0x19
    20e2:	89 2b       	or	r24, r25
    20e4:	69 f7       	brne	.-38     	; 0x20c0 <__DATA_REGION_LENGTH__+0xc0>
    20e6:	14 c0       	rjmp	.+40     	; 0x2110 <__DATA_REGION_LENGTH__+0x110>
			__ticks --;
		}
		return;
	}
	else
		__ticks = (uint16_t)__tmp;
    20e8:	6c 89       	ldd	r22, Y+20	; 0x14
    20ea:	7d 89       	ldd	r23, Y+21	; 0x15
    20ec:	8e 89       	ldd	r24, Y+22	; 0x16
    20ee:	9f 89       	ldd	r25, Y+23	; 0x17
    20f0:	0e 94 b1 1f 	call	0x3f62	; 0x3f62 <__fixunssfsi>
    20f4:	dc 01       	movw	r26, r24
    20f6:	cb 01       	movw	r24, r22
    20f8:	99 8f       	std	Y+25, r25	; 0x19
    20fa:	88 8f       	std	Y+24, r24	; 0x18
    20fc:	88 8d       	ldd	r24, Y+24	; 0x18
    20fe:	99 8d       	ldd	r25, Y+25	; 0x19
    2100:	9d 8f       	std	Y+29, r25	; 0x1d
    2102:	8c 8f       	std	Y+28, r24	; 0x1c
    2104:	8c 8d       	ldd	r24, Y+28	; 0x1c
    2106:	9d 8d       	ldd	r25, Y+29	; 0x1d
    2108:	01 97       	sbiw	r24, 0x01	; 1
    210a:	f1 f7       	brne	.-4      	; 0x2108 <__DATA_REGION_LENGTH__+0x108>
    210c:	9d 8f       	std	Y+29, r25	; 0x1d
    210e:	8c 8f       	std	Y+28, r24	; 0x1c
        _delay_ms(100);
        PORTC |=  0b01000000;
    2110:	88 e2       	ldi	r24, 0x28	; 40
    2112:	90 e0       	ldi	r25, 0x00	; 0
    2114:	28 e2       	ldi	r18, 0x28	; 40
    2116:	30 e0       	ldi	r19, 0x00	; 0
    2118:	f9 01       	movw	r30, r18
    211a:	20 81       	ld	r18, Z
    211c:	20 64       	ori	r18, 0x40	; 64
    211e:	fc 01       	movw	r30, r24
    2120:	20 83       	st	Z, r18
        PORTC &= ~0b10000000;
    2122:	88 e2       	ldi	r24, 0x28	; 40
    2124:	90 e0       	ldi	r25, 0x00	; 0
    2126:	28 e2       	ldi	r18, 0x28	; 40
    2128:	30 e0       	ldi	r19, 0x00	; 0
    212a:	f9 01       	movw	r30, r18
    212c:	20 81       	ld	r18, Z
    212e:	2f 77       	andi	r18, 0x7F	; 127
    2130:	fc 01       	movw	r30, r24
    2132:	20 83       	st	Z, r18
    2134:	80 e0       	ldi	r24, 0x00	; 0
    2136:	90 e0       	ldi	r25, 0x00	; 0
    2138:	a8 ec       	ldi	r26, 0xC8	; 200
    213a:	b2 e4       	ldi	r27, 0x42	; 66
    213c:	8e 83       	std	Y+6, r24	; 0x06
    213e:	9f 83       	std	Y+7, r25	; 0x07
    2140:	a8 87       	std	Y+8, r26	; 0x08
    2142:	b9 87       	std	Y+9, r27	; 0x09

	__builtin_avr_delay_cycles(__ticks_dc);

#else
	uint16_t __ticks;
	__tmp = ((F_CPU) / 4e3) * __ms;
    2144:	20 e0       	ldi	r18, 0x00	; 0
    2146:	30 e0       	ldi	r19, 0x00	; 0
    2148:	4a e7       	ldi	r20, 0x7A	; 122
    214a:	55 e4       	ldi	r21, 0x45	; 69
    214c:	6e 81       	ldd	r22, Y+6	; 0x06
    214e:	7f 81       	ldd	r23, Y+7	; 0x07
    2150:	88 85       	ldd	r24, Y+8	; 0x08
    2152:	99 85       	ldd	r25, Y+9	; 0x09
    2154:	0e 94 93 20 	call	0x4126	; 0x4126 <__mulsf3>
    2158:	dc 01       	movw	r26, r24
    215a:	cb 01       	movw	r24, r22
    215c:	8a 87       	std	Y+10, r24	; 0x0a
    215e:	9b 87       	std	Y+11, r25	; 0x0b
    2160:	ac 87       	std	Y+12, r26	; 0x0c
    2162:	bd 87       	std	Y+13, r27	; 0x0d
	if (__tmp < 1.0)
    2164:	20 e0       	ldi	r18, 0x00	; 0
    2166:	30 e0       	ldi	r19, 0x00	; 0
    2168:	40 e8       	ldi	r20, 0x80	; 128
    216a:	5f e3       	ldi	r21, 0x3F	; 63
    216c:	6a 85       	ldd	r22, Y+10	; 0x0a
    216e:	7b 85       	ldd	r23, Y+11	; 0x0b
    2170:	8c 85       	ldd	r24, Y+12	; 0x0c
    2172:	9d 85       	ldd	r25, Y+13	; 0x0d
    2174:	0e 94 45 1f 	call	0x3e8a	; 0x3e8a <__cmpsf2>
    2178:	88 23       	and	r24, r24
    217a:	2c f4       	brge	.+10     	; 0x2186 <__DATA_REGION_LENGTH__+0x186>
		__ticks = 1;
    217c:	81 e0       	ldi	r24, 0x01	; 1
    217e:	90 e0       	ldi	r25, 0x00	; 0
    2180:	9f 87       	std	Y+15, r25	; 0x0f
    2182:	8e 87       	std	Y+14, r24	; 0x0e
    2184:	3f c0       	rjmp	.+126    	; 0x2204 <__stack+0x5>
	else if (__tmp > 65535)
    2186:	20 e0       	ldi	r18, 0x00	; 0
    2188:	3f ef       	ldi	r19, 0xFF	; 255
    218a:	4f e7       	ldi	r20, 0x7F	; 127
    218c:	57 e4       	ldi	r21, 0x47	; 71
    218e:	6a 85       	ldd	r22, Y+10	; 0x0a
    2190:	7b 85       	ldd	r23, Y+11	; 0x0b
    2192:	8c 85       	ldd	r24, Y+12	; 0x0c
    2194:	9d 85       	ldd	r25, Y+13	; 0x0d
    2196:	0e 94 8f 20 	call	0x411e	; 0x411e <__gesf2>
    219a:	18 16       	cp	r1, r24
    219c:	4c f5       	brge	.+82     	; 0x21f0 <__DATA_REGION_LENGTH__+0x1f0>
	{
		//	__ticks = requested delay in 1/10 ms
		__ticks = (uint16_t) (__ms * 10.0);
    219e:	20 e0       	ldi	r18, 0x00	; 0
    21a0:	30 e0       	ldi	r19, 0x00	; 0
    21a2:	40 e2       	ldi	r20, 0x20	; 32
    21a4:	51 e4       	ldi	r21, 0x41	; 65
    21a6:	6e 81       	ldd	r22, Y+6	; 0x06
    21a8:	7f 81       	ldd	r23, Y+7	; 0x07
    21aa:	88 85       	ldd	r24, Y+8	; 0x08
    21ac:	99 85       	ldd	r25, Y+9	; 0x09
    21ae:	0e 94 93 20 	call	0x4126	; 0x4126 <__mulsf3>
    21b2:	dc 01       	movw	r26, r24
    21b4:	cb 01       	movw	r24, r22
    21b6:	bc 01       	movw	r22, r24
    21b8:	cd 01       	movw	r24, r26
    21ba:	0e 94 b1 1f 	call	0x3f62	; 0x3f62 <__fixunssfsi>
    21be:	dc 01       	movw	r26, r24
    21c0:	cb 01       	movw	r24, r22
    21c2:	9f 87       	std	Y+15, r25	; 0x0f
    21c4:	8e 87       	std	Y+14, r24	; 0x0e
    21c6:	0f c0       	rjmp	.+30     	; 0x21e6 <__DATA_REGION_LENGTH__+0x1e6>
    21c8:	80 e9       	ldi	r24, 0x90	; 144
    21ca:	91 e0       	ldi	r25, 0x01	; 1
    21cc:	99 8b       	std	Y+17, r25	; 0x11
    21ce:	88 8b       	std	Y+16, r24	; 0x10
    21d0:	88 89       	ldd	r24, Y+16	; 0x10
    21d2:	99 89       	ldd	r25, Y+17	; 0x11
    21d4:	01 97       	sbiw	r24, 0x01	; 1
    21d6:	f1 f7       	brne	.-4      	; 0x21d4 <__DATA_REGION_LENGTH__+0x1d4>
    21d8:	99 8b       	std	Y+17, r25	; 0x11
    21da:	88 8b       	std	Y+16, r24	; 0x10
		while(__ticks)
		{
			// wait 1/10 ms
			_delay_loop_2(((F_CPU) / 4e3) / 10);
			__ticks --;
    21dc:	8e 85       	ldd	r24, Y+14	; 0x0e
    21de:	9f 85       	ldd	r25, Y+15	; 0x0f
    21e0:	01 97       	sbiw	r24, 0x01	; 1
    21e2:	9f 87       	std	Y+15, r25	; 0x0f
    21e4:	8e 87       	std	Y+14, r24	; 0x0e
		__ticks = 1;
	else if (__tmp > 65535)
	{
		//	__ticks = requested delay in 1/10 ms
		__ticks = (uint16_t) (__ms * 10.0);
		while(__ticks)
    21e6:	8e 85       	ldd	r24, Y+14	; 0x0e
    21e8:	9f 85       	ldd	r25, Y+15	; 0x0f
    21ea:	89 2b       	or	r24, r25
    21ec:	69 f7       	brne	.-38     	; 0x21c8 <__DATA_REGION_LENGTH__+0x1c8>
    21ee:	14 c0       	rjmp	.+40     	; 0x2218 <__stack+0x19>
			__ticks --;
		}
		return;
	}
	else
		__ticks = (uint16_t)__tmp;
    21f0:	6a 85       	ldd	r22, Y+10	; 0x0a
    21f2:	7b 85       	ldd	r23, Y+11	; 0x0b
    21f4:	8c 85       	ldd	r24, Y+12	; 0x0c
    21f6:	9d 85       	ldd	r25, Y+13	; 0x0d
    21f8:	0e 94 b1 1f 	call	0x3f62	; 0x3f62 <__fixunssfsi>
    21fc:	dc 01       	movw	r26, r24
    21fe:	cb 01       	movw	r24, r22
    2200:	9f 87       	std	Y+15, r25	; 0x0f
    2202:	8e 87       	std	Y+14, r24	; 0x0e
    2204:	8e 85       	ldd	r24, Y+14	; 0x0e
    2206:	9f 85       	ldd	r25, Y+15	; 0x0f
    2208:	9b 8b       	std	Y+19, r25	; 0x13
    220a:	8a 8b       	std	Y+18, r24	; 0x12
    220c:	8a 89       	ldd	r24, Y+18	; 0x12
    220e:	9b 89       	ldd	r25, Y+19	; 0x13
    2210:	01 97       	sbiw	r24, 0x01	; 1
    2212:	f1 f7       	brne	.-4      	; 0x2210 <__stack+0x11>
    2214:	9b 8b       	std	Y+19, r25	; 0x13
    2216:	8a 8b       	std	Y+18, r24	; 0x12
}


void abInsGefaengnis(uint8_t spielerNr)
{
    for (uint8_t i = 0; i < 20; i = i + 1)
    2218:	89 81       	ldd	r24, Y+1	; 0x01
    221a:	8f 5f       	subi	r24, 0xFF	; 255
    221c:	89 83       	std	Y+1, r24	; 0x01
    221e:	89 81       	ldd	r24, Y+1	; 0x01
    2220:	84 31       	cpi	r24, 0x14	; 20
    2222:	08 f4       	brcc	.+2      	; 0x2226 <__stack+0x27>
    2224:	f1 ce       	rjmp	.-542    	; 0x2008 <__DATA_REGION_LENGTH__+0x8>
        _delay_ms(100);
        PORTC |=  0b01000000;
        PORTC &= ~0b10000000;
        _delay_ms(100);
    }
    PORTC &= ~11000000;
    2226:	88 e2       	ldi	r24, 0x28	; 40
    2228:	90 e0       	ldi	r25, 0x00	; 0
    222a:	28 e2       	ldi	r18, 0x28	; 40
    222c:	30 e0       	ldi	r19, 0x00	; 0
    222e:	f9 01       	movw	r30, r18
    2230:	20 81       	ld	r18, Z
    2232:	2f 73       	andi	r18, 0x3F	; 63
    2234:	fc 01       	movw	r30, r24
    2236:	20 83       	st	Z, r18
    spielerInfo[spielerNr].position = 10;
    2238:	8e 8d       	ldd	r24, Y+30	; 0x1e
    223a:	28 2f       	mov	r18, r24
    223c:	30 e0       	ldi	r19, 0x00	; 0
    223e:	45 e3       	ldi	r20, 0x35	; 53
    2240:	42 9f       	mul	r20, r18
    2242:	c0 01       	movw	r24, r0
    2244:	43 9f       	mul	r20, r19
    2246:	90 0d       	add	r25, r0
    2248:	11 24       	eor	r1, r1
    224a:	80 5d       	subi	r24, 0xD0	; 208
    224c:	99 4f       	sbci	r25, 0xF9	; 249
    224e:	2a e0       	ldi	r18, 0x0A	; 10
    2250:	fc 01       	movw	r30, r24
    2252:	20 83       	st	Z, r18
    setPlayerPosition(10,spielerNr);
    2254:	6e 8d       	ldd	r22, Y+30	; 0x1e
    2256:	8a e0       	ldi	r24, 0x0A	; 10
    2258:	ba d2       	rcall	.+1396   	; 0x27ce <setPlayerPosition>
    225a:	00 00       	nop
    225c:	6e 96       	adiw	r28, 0x1e	; 30
    225e:	0f b6       	in	r0, 0x3f	; 63
    2260:	f8 94       	cli
    2262:	de bf       	out	0x3e, r29	; 62
    2264:	0f be       	out	0x3f, r0	; 63
    2266:	cd bf       	out	0x3d, r28	; 61
    2268:	df 91       	pop	r29
    226a:	cf 91       	pop	r28
    226c:	08 95       	ret

0000226e <resetMonopoly>:
#include "SPI.h"
#include "ws2812.h"
rgb_color leds[LED_COUNT];
#pragma GCC optimize 0
void resetMonopoly(void)
{
    226e:	cf 93       	push	r28
    2270:	df 93       	push	r29
    2272:	1f 92       	push	r1
    2274:	cd b7       	in	r28, 0x3d	; 61
    2276:	de b7       	in	r29, 0x3e	; 62
    writeHouse(houses);
    2278:	8a ec       	ldi	r24, 0xCA	; 202
    227a:	94 e0       	ldi	r25, 0x04	; 4
    227c:	0d d1       	rcall	.+538    	; 0x2498 <writeHouse>
    setPlayerPosition(0,1);
    227e:	61 e0       	ldi	r22, 0x01	; 1
    2280:	80 e0       	ldi	r24, 0x00	; 0
    2282:	a5 d2       	rcall	.+1354   	; 0x27ce <setPlayerPosition>
    setPlayerPosition(0,2);
    2284:	62 e0       	ldi	r22, 0x02	; 2
    2286:	80 e0       	ldi	r24, 0x00	; 0
    2288:	a2 d2       	rcall	.+1348   	; 0x27ce <setPlayerPosition>
    setPlayerPosition(0,3);
    228a:	63 e0       	ldi	r22, 0x03	; 3
    228c:	80 e0       	ldi	r24, 0x00	; 0
    228e:	9f d2       	rcall	.+1342   	; 0x27ce <setPlayerPosition>
    setPlayerPosition(0,4);
    2290:	64 e0       	ldi	r22, 0x04	; 4
    2292:	80 e0       	ldi	r24, 0x00	; 0
    2294:	9c d2       	rcall	.+1336   	; 0x27ce <setPlayerPosition>
    for (uint8_t i = 0; i < 28; i = i + 1)
    2296:	19 82       	std	Y+1, r1	; 0x01
    2298:	06 c0       	rjmp	.+12     	; 0x22a6 <resetMonopoly+0x38>
    {
        setPropertyRgb(i,0);
    229a:	60 e0       	ldi	r22, 0x00	; 0
    229c:	89 81       	ldd	r24, Y+1	; 0x01
    229e:	27 d2       	rcall	.+1102   	; 0x26ee <setPropertyRgb>
    22a0:	89 81       	ldd	r24, Y+1	; 0x01
    writeHouse(houses);
    setPlayerPosition(0,1);
    setPlayerPosition(0,2);
    setPlayerPosition(0,3);
    setPlayerPosition(0,4);
    for (uint8_t i = 0; i < 28; i = i + 1)
    22a2:	8f 5f       	subi	r24, 0xFF	; 255
    22a4:	89 83       	std	Y+1, r24	; 0x01
    22a6:	89 81       	ldd	r24, Y+1	; 0x01
    22a8:	8c 31       	cpi	r24, 0x1C	; 28
    22aa:	b8 f3       	brcs	.-18     	; 0x229a <resetMonopoly+0x2c>
    22ac:	00 00       	nop
    {
        setPropertyRgb(i,0);
    }
}
    22ae:	0f 90       	pop	r0
    22b0:	df 91       	pop	r29
    22b2:	cf 91       	pop	r28
    22b4:	08 95       	ret

000022b6 <setHouse>:
    22b6:	cf 93       	push	r28
    
    writeHouse(houses);
    
}*/
void setHouse(uint8_t FeldNr, uint8_t anzahlHaus)
{
    22b8:	df 93       	push	r29
    22ba:	00 d0       	rcall	.+0      	; 0x22bc <setHouse+0x6>
    22bc:	00 d0       	rcall	.+0      	; 0x22be <setHouse+0x8>
    22be:	cd b7       	in	r28, 0x3d	; 61
    22c0:	de b7       	in	r29, 0x3e	; 62
    22c2:	8d 83       	std	Y+5, r24	; 0x05
    22c4:	6e 83       	std	Y+6, r22	; 0x06
    uint8_t anzahlLeds,startRegister,startLed = 0; // initialisierung der Variablen
    22c6:	1a 82       	std	Y+2, r1	; 0x02
    uint8_t hausWert = 0;
    22c8:	19 82       	std	Y+1, r1	; 0x01
    anzahlLeds = FeldNr * 5;    //Berechnet wie viele leds/Bit bis zum gewünschten feld kommen
    22ca:	9d 81       	ldd	r25, Y+5	; 0x05
    22cc:	89 2f       	mov	r24, r25
    22ce:	88 0f       	add	r24, r24
    22d0:	88 0f       	add	r24, r24
    22d2:	89 0f       	add	r24, r25
    22d4:	8b 83       	std	Y+3, r24	; 0x03
    startRegister = anzahlLeds / 8;  //Berechnet über welches Schieberegister die Leds angesteuert werden
    22d6:	8b 81       	ldd	r24, Y+3	; 0x03
    22d8:	86 95       	lsr	r24
    22da:	86 95       	lsr	r24
    22dc:	86 95       	lsr	r24
    22de:	8c 83       	std	Y+4, r24	; 0x04
    startLed = (anzahlLeds % 8);    //Berechnet welches bit im Schieberegister das erste Haus auf dem Feld ist
    22e0:	8b 81       	ldd	r24, Y+3	; 0x03
    22e2:	87 70       	andi	r24, 0x07	; 7
    22e4:	8a 83       	std	Y+2, r24	; 0x02
    if (anzahlHaus == 5)
    22e6:	8e 81       	ldd	r24, Y+6	; 0x06
    22e8:	85 30       	cpi	r24, 0x05	; 5
    22ea:	19 f4       	brne	.+6      	; 0x22f2 <setHouse+0x3c>
    {
        hausWert = 0x10;
    22ec:	80 e1       	ldi	r24, 0x10	; 16
    22ee:	89 83       	std	Y+1, r24	; 0x01
    22f0:	10 c0       	rjmp	.+32     	; 0x2312 <setHouse+0x5c>
    }
    else
    {
        hausWert = ~(0xFFE0 >> (5-anzahlHaus));
    22f2:	8e 81       	ldd	r24, Y+6	; 0x06
    22f4:	88 2f       	mov	r24, r24
    22f6:	90 e0       	ldi	r25, 0x00	; 0
    22f8:	25 e0       	ldi	r18, 0x05	; 5
    22fa:	30 e0       	ldi	r19, 0x00	; 0
    22fc:	28 1b       	sub	r18, r24
    22fe:	39 0b       	sbc	r19, r25
    2300:	80 ee       	ldi	r24, 0xE0	; 224
    2302:	9f ef       	ldi	r25, 0xFF	; 255
    2304:	02 c0       	rjmp	.+4      	; 0x230a <setHouse+0x54>
    2306:	96 95       	lsr	r25
    2308:	87 95       	ror	r24
    230a:	2a 95       	dec	r18
    230c:	e2 f7       	brpl	.-8      	; 0x2306 <setHouse+0x50>
    230e:	80 95       	com	r24
    2310:	89 83       	std	Y+1, r24	; 0x01
    }
    
    if (startLed > 3)
    2312:	8a 81       	ldd	r24, Y+2	; 0x02
    2314:	84 30       	cpi	r24, 0x04	; 4
    2316:	08 f4       	brcc	.+2      	; 0x231a <setHouse+0x64>
    2318:	7c c0       	rjmp	.+248    	; 0x2412 <setHouse+0x15c>
    {
        hausRegister[startRegister] &= (~(0x1F << startLed));
    231a:	8c 81       	ldd	r24, Y+4	; 0x04
    231c:	88 2f       	mov	r24, r24
    231e:	90 e0       	ldi	r25, 0x00	; 0
    2320:	2c 81       	ldd	r18, Y+4	; 0x04
    2322:	22 2f       	mov	r18, r18
    2324:	30 e0       	ldi	r19, 0x00	; 0
    2326:	26 5c       	subi	r18, 0xC6	; 198
    2328:	3a 4f       	sbci	r19, 0xFA	; 250
    232a:	d9 01       	movw	r26, r18
    232c:	2c 91       	ld	r18, X
    232e:	62 2f       	mov	r22, r18
    2330:	2a 81       	ldd	r18, Y+2	; 0x02
    2332:	42 2f       	mov	r20, r18
    2334:	50 e0       	ldi	r21, 0x00	; 0
    2336:	2f e1       	ldi	r18, 0x1F	; 31
    2338:	30 e0       	ldi	r19, 0x00	; 0
    233a:	02 c0       	rjmp	.+4      	; 0x2340 <setHouse+0x8a>
    233c:	22 0f       	add	r18, r18
    233e:	33 1f       	adc	r19, r19
    2340:	4a 95       	dec	r20
    2342:	e2 f7       	brpl	.-8      	; 0x233c <setHouse+0x86>
    2344:	20 95       	com	r18
    2346:	26 23       	and	r18, r22
    2348:	86 5c       	subi	r24, 0xC6	; 198
    234a:	9a 4f       	sbci	r25, 0xFA	; 250
    234c:	fc 01       	movw	r30, r24
    234e:	20 83       	st	Z, r18
        hausRegister[startRegister + 1] &= ~0x1F >> (8 - startLed);
    2350:	8c 81       	ldd	r24, Y+4	; 0x04
    2352:	88 2f       	mov	r24, r24
    2354:	90 e0       	ldi	r25, 0x00	; 0
    2356:	01 96       	adiw	r24, 0x01	; 1
    2358:	2c 81       	ldd	r18, Y+4	; 0x04
    235a:	22 2f       	mov	r18, r18
    235c:	30 e0       	ldi	r19, 0x00	; 0
    235e:	2f 5f       	subi	r18, 0xFF	; 255
    2360:	3f 4f       	sbci	r19, 0xFF	; 255
    2362:	26 5c       	subi	r18, 0xC6	; 198
    2364:	3a 4f       	sbci	r19, 0xFA	; 250
    2366:	d9 01       	movw	r26, r18
    2368:	2c 91       	ld	r18, X
    236a:	62 2f       	mov	r22, r18
    236c:	2a 81       	ldd	r18, Y+2	; 0x02
    236e:	22 2f       	mov	r18, r18
    2370:	30 e0       	ldi	r19, 0x00	; 0
    2372:	48 e0       	ldi	r20, 0x08	; 8
    2374:	50 e0       	ldi	r21, 0x00	; 0
    2376:	42 1b       	sub	r20, r18
    2378:	53 0b       	sbc	r21, r19
    237a:	20 ee       	ldi	r18, 0xE0	; 224
    237c:	3f ef       	ldi	r19, 0xFF	; 255
    237e:	02 c0       	rjmp	.+4      	; 0x2384 <setHouse+0xce>
    2380:	35 95       	asr	r19
    2382:	27 95       	ror	r18
    2384:	4a 95       	dec	r20
    2386:	e2 f7       	brpl	.-8      	; 0x2380 <setHouse+0xca>
    2388:	26 23       	and	r18, r22
    238a:	86 5c       	subi	r24, 0xC6	; 198
    238c:	9a 4f       	sbci	r25, 0xFA	; 250
    238e:	fc 01       	movw	r30, r24
    2390:	20 83       	st	Z, r18
        
        hausRegister[startRegister] |= (uint8_t)(hausWert << startLed);
    2392:	8c 81       	ldd	r24, Y+4	; 0x04
    2394:	88 2f       	mov	r24, r24
    2396:	90 e0       	ldi	r25, 0x00	; 0
    2398:	2c 81       	ldd	r18, Y+4	; 0x04
    239a:	22 2f       	mov	r18, r18
    239c:	30 e0       	ldi	r19, 0x00	; 0
    239e:	26 5c       	subi	r18, 0xC6	; 198
    23a0:	3a 4f       	sbci	r19, 0xFA	; 250
    23a2:	d9 01       	movw	r26, r18
    23a4:	2c 91       	ld	r18, X
    23a6:	62 2f       	mov	r22, r18
    23a8:	29 81       	ldd	r18, Y+1	; 0x01
    23aa:	22 2f       	mov	r18, r18
    23ac:	30 e0       	ldi	r19, 0x00	; 0
    23ae:	4a 81       	ldd	r20, Y+2	; 0x02
    23b0:	44 2f       	mov	r20, r20
    23b2:	50 e0       	ldi	r21, 0x00	; 0
    23b4:	02 c0       	rjmp	.+4      	; 0x23ba <setHouse+0x104>
    23b6:	22 0f       	add	r18, r18
    23b8:	33 1f       	adc	r19, r19
    23ba:	4a 95       	dec	r20
    23bc:	e2 f7       	brpl	.-8      	; 0x23b6 <setHouse+0x100>
    23be:	26 2b       	or	r18, r22
    23c0:	86 5c       	subi	r24, 0xC6	; 198
    23c2:	9a 4f       	sbci	r25, 0xFA	; 250
    23c4:	fc 01       	movw	r30, r24
    23c6:	20 83       	st	Z, r18
        hausRegister[startRegister + 1] |= (uint8_t)(hausWert >> (8 - startLed));
    23c8:	8c 81       	ldd	r24, Y+4	; 0x04
    23ca:	88 2f       	mov	r24, r24
    23cc:	90 e0       	ldi	r25, 0x00	; 0
    23ce:	01 96       	adiw	r24, 0x01	; 1
    23d0:	2c 81       	ldd	r18, Y+4	; 0x04
    23d2:	22 2f       	mov	r18, r18
    23d4:	30 e0       	ldi	r19, 0x00	; 0
    23d6:	2f 5f       	subi	r18, 0xFF	; 255
    23d8:	3f 4f       	sbci	r19, 0xFF	; 255
    23da:	26 5c       	subi	r18, 0xC6	; 198
    23dc:	3a 4f       	sbci	r19, 0xFA	; 250
    23de:	d9 01       	movw	r26, r18
    23e0:	2c 91       	ld	r18, X
    23e2:	e2 2f       	mov	r30, r18
    23e4:	29 81       	ldd	r18, Y+1	; 0x01
    23e6:	22 2f       	mov	r18, r18
    23e8:	30 e0       	ldi	r19, 0x00	; 0
    23ea:	4a 81       	ldd	r20, Y+2	; 0x02
    23ec:	44 2f       	mov	r20, r20
    23ee:	50 e0       	ldi	r21, 0x00	; 0
    23f0:	68 e0       	ldi	r22, 0x08	; 8
    23f2:	70 e0       	ldi	r23, 0x00	; 0
    23f4:	db 01       	movw	r26, r22
    23f6:	a4 1b       	sub	r26, r20
    23f8:	b5 0b       	sbc	r27, r21
    23fa:	ad 01       	movw	r20, r26
    23fc:	02 c0       	rjmp	.+4      	; 0x2402 <setHouse+0x14c>
    23fe:	35 95       	asr	r19
    2400:	27 95       	ror	r18
    2402:	4a 95       	dec	r20
    2404:	e2 f7       	brpl	.-8      	; 0x23fe <setHouse+0x148>
    2406:	2e 2b       	or	r18, r30
    2408:	86 5c       	subi	r24, 0xC6	; 198
    240a:	9a 4f       	sbci	r25, 0xFA	; 250
    240c:	fc 01       	movw	r30, r24
    240e:	20 83       	st	Z, r18
    2410:	36 c0       	rjmp	.+108    	; 0x247e <setHouse+0x1c8>
    }
    else
    {
        hausRegister[startRegister] &= (~(0x1F << startLed));
    2412:	8c 81       	ldd	r24, Y+4	; 0x04
    2414:	88 2f       	mov	r24, r24
    2416:	90 e0       	ldi	r25, 0x00	; 0
    2418:	2c 81       	ldd	r18, Y+4	; 0x04
    241a:	22 2f       	mov	r18, r18
    241c:	30 e0       	ldi	r19, 0x00	; 0
    241e:	26 5c       	subi	r18, 0xC6	; 198
    2420:	3a 4f       	sbci	r19, 0xFA	; 250
    2422:	d9 01       	movw	r26, r18
    2424:	2c 91       	ld	r18, X
    2426:	62 2f       	mov	r22, r18
    2428:	2a 81       	ldd	r18, Y+2	; 0x02
    242a:	42 2f       	mov	r20, r18
    242c:	50 e0       	ldi	r21, 0x00	; 0
    242e:	2f e1       	ldi	r18, 0x1F	; 31
    2430:	30 e0       	ldi	r19, 0x00	; 0
    2432:	02 c0       	rjmp	.+4      	; 0x2438 <setHouse+0x182>
    2434:	22 0f       	add	r18, r18
    2436:	33 1f       	adc	r19, r19
    2438:	4a 95       	dec	r20
    243a:	e2 f7       	brpl	.-8      	; 0x2434 <setHouse+0x17e>
    243c:	20 95       	com	r18
    243e:	26 23       	and	r18, r22
    2440:	86 5c       	subi	r24, 0xC6	; 198
    2442:	9a 4f       	sbci	r25, 0xFA	; 250
    2444:	fc 01       	movw	r30, r24
    2446:	20 83       	st	Z, r18
        hausRegister[startRegister] |= (uint8_t)(hausWert << startLed);
    2448:	8c 81       	ldd	r24, Y+4	; 0x04
    244a:	88 2f       	mov	r24, r24
    244c:	90 e0       	ldi	r25, 0x00	; 0
    244e:	2c 81       	ldd	r18, Y+4	; 0x04
    2450:	22 2f       	mov	r18, r18
    2452:	30 e0       	ldi	r19, 0x00	; 0
    2454:	26 5c       	subi	r18, 0xC6	; 198
    2456:	3a 4f       	sbci	r19, 0xFA	; 250
    2458:	d9 01       	movw	r26, r18
    245a:	2c 91       	ld	r18, X
    245c:	62 2f       	mov	r22, r18
    245e:	29 81       	ldd	r18, Y+1	; 0x01
    2460:	22 2f       	mov	r18, r18
    2462:	30 e0       	ldi	r19, 0x00	; 0
    2464:	4a 81       	ldd	r20, Y+2	; 0x02
    2466:	44 2f       	mov	r20, r20
    2468:	50 e0       	ldi	r21, 0x00	; 0
    246a:	02 c0       	rjmp	.+4      	; 0x2470 <setHouse+0x1ba>
    246c:	22 0f       	add	r18, r18
    246e:	33 1f       	adc	r19, r19
    2470:	4a 95       	dec	r20
    2472:	e2 f7       	brpl	.-8      	; 0x246c <setHouse+0x1b6>
    2474:	26 2b       	or	r18, r22
    2476:	86 5c       	subi	r24, 0xC6	; 198
    2478:	9a 4f       	sbci	r25, 0xFA	; 250
    247a:	fc 01       	movw	r30, r24
    247c:	20 83       	st	Z, r18
    }
    writeHouse(hausRegister);
    247e:	8a e3       	ldi	r24, 0x3A	; 58
    2480:	95 e0       	ldi	r25, 0x05	; 5
    2482:	0a d0       	rcall	.+20     	; 0x2498 <writeHouse>
    
}
    2484:	00 00       	nop
    2486:	26 96       	adiw	r28, 0x06	; 6
    2488:	0f b6       	in	r0, 0x3f	; 63
    248a:	f8 94       	cli
    248c:	de bf       	out	0x3e, r29	; 62
    248e:	0f be       	out	0x3f, r0	; 63
    2490:	cd bf       	out	0x3d, r28	; 61
    2492:	df 91       	pop	r29
    2494:	cf 91       	pop	r28
    2496:	08 95       	ret

00002498 <writeHouse>:
void writeHouse(uint8_t data[14])
{
    2498:	cf 92       	push	r12
    249a:	df 92       	push	r13
    249c:	ef 92       	push	r14
    249e:	ff 92       	push	r15
    24a0:	cf 93       	push	r28
    24a2:	df 93       	push	r29
    24a4:	cd b7       	in	r28, 0x3d	; 61
    24a6:	de b7       	in	r29, 0x3e	; 62
    24a8:	a0 97       	sbiw	r28, 0x20	; 32
    24aa:	0f b6       	in	r0, 0x3f	; 63
    24ac:	f8 94       	cli
    24ae:	de bf       	out	0x3e, r29	; 62
    24b0:	0f be       	out	0x3f, r0	; 63
    24b2:	cd bf       	out	0x3d, r28	; 61
    24b4:	98 a3       	std	Y+32, r25	; 0x20
    24b6:	8f 8f       	std	Y+31, r24	; 0x1f
    //initialisierung der VAriablen
    uint8_t transmitdata = 0;
    24b8:	1a 82       	std	Y+2, r1	; 0x02
    //im for loop werden jeweils 8 Bit aus dem array gesendet
    for(uint8_t i = 0; i < 15; i = i + 1)
    24ba:	19 82       	std	Y+1, r1	; 0x01
    24bc:	f4 c0       	rjmp	.+488    	; 0x26a6 <writeHouse+0x20e>
    {
        transmitdata = data[14-i];
    24be:	89 81       	ldd	r24, Y+1	; 0x01
    24c0:	88 2f       	mov	r24, r24
    24c2:	90 e0       	ldi	r25, 0x00	; 0
    24c4:	2e e0       	ldi	r18, 0x0E	; 14
    24c6:	30 e0       	ldi	r19, 0x00	; 0
    24c8:	a9 01       	movw	r20, r18
    24ca:	48 1b       	sub	r20, r24
    24cc:	59 0b       	sbc	r21, r25
    24ce:	ca 01       	movw	r24, r20
    24d0:	9c 01       	movw	r18, r24
    24d2:	8f 8d       	ldd	r24, Y+31	; 0x1f
    24d4:	98 a1       	ldd	r25, Y+32	; 0x20
    24d6:	82 0f       	add	r24, r18
    24d8:	93 1f       	adc	r25, r19
    24da:	fc 01       	movw	r30, r24
    24dc:	80 81       	ld	r24, Z
    24de:	8a 83       	std	Y+2, r24	; 0x02
        USART_Transmit(0,transmitdata);
    24e0:	6a 81       	ldd	r22, Y+2	; 0x02
    24e2:	80 e0       	ldi	r24, 0x00	; 0
    24e4:	0e 94 f9 1e 	call	0x3df2	; 0x3df2 <USART_Transmit>
    24e8:	80 e0       	ldi	r24, 0x00	; 0
    24ea:	90 e0       	ldi	r25, 0x00	; 0
    24ec:	aa ef       	ldi	r26, 0xFA	; 250
    24ee:	b3 e4       	ldi	r27, 0x43	; 67
    24f0:	8b 83       	std	Y+3, r24	; 0x03
    24f2:	9c 83       	std	Y+4, r25	; 0x04
    24f4:	ad 83       	std	Y+5, r26	; 0x05
    24f6:	be 83       	std	Y+6, r27	; 0x06
	__builtin_avr_delay_cycles(__ticks_dc);

#else
	uint8_t __ticks;
	double __tmp2 ;
	__tmp = ((F_CPU) / 3e6) * __us;
    24f8:	2b ea       	ldi	r18, 0xAB	; 171
    24fa:	3a ea       	ldi	r19, 0xAA	; 170
    24fc:	4a ea       	ldi	r20, 0xAA	; 170
    24fe:	50 e4       	ldi	r21, 0x40	; 64
    2500:	6b 81       	ldd	r22, Y+3	; 0x03
    2502:	7c 81       	ldd	r23, Y+4	; 0x04
    2504:	8d 81       	ldd	r24, Y+5	; 0x05
    2506:	9e 81       	ldd	r25, Y+6	; 0x06
    2508:	0e 94 93 20 	call	0x4126	; 0x4126 <__mulsf3>
    250c:	dc 01       	movw	r26, r24
    250e:	cb 01       	movw	r24, r22
    2510:	8f 83       	std	Y+7, r24	; 0x07
    2512:	98 87       	std	Y+8, r25	; 0x08
    2514:	a9 87       	std	Y+9, r26	; 0x09
    2516:	ba 87       	std	Y+10, r27	; 0x0a
	__tmp2 = ((F_CPU) / 4e6) * __us;
    2518:	20 e0       	ldi	r18, 0x00	; 0
    251a:	30 e0       	ldi	r19, 0x00	; 0
    251c:	40 e8       	ldi	r20, 0x80	; 128
    251e:	50 e4       	ldi	r21, 0x40	; 64
    2520:	6b 81       	ldd	r22, Y+3	; 0x03
    2522:	7c 81       	ldd	r23, Y+4	; 0x04
    2524:	8d 81       	ldd	r24, Y+5	; 0x05
    2526:	9e 81       	ldd	r25, Y+6	; 0x06
    2528:	0e 94 93 20 	call	0x4126	; 0x4126 <__mulsf3>
    252c:	dc 01       	movw	r26, r24
    252e:	cb 01       	movw	r24, r22
    2530:	8b 87       	std	Y+11, r24	; 0x0b
    2532:	9c 87       	std	Y+12, r25	; 0x0c
    2534:	ad 87       	std	Y+13, r26	; 0x0d
    2536:	be 87       	std	Y+14, r27	; 0x0e
	if (__tmp < 1.0)
    2538:	20 e0       	ldi	r18, 0x00	; 0
    253a:	30 e0       	ldi	r19, 0x00	; 0
    253c:	40 e8       	ldi	r20, 0x80	; 128
    253e:	5f e3       	ldi	r21, 0x3F	; 63
    2540:	6f 81       	ldd	r22, Y+7	; 0x07
    2542:	78 85       	ldd	r23, Y+8	; 0x08
    2544:	89 85       	ldd	r24, Y+9	; 0x09
    2546:	9a 85       	ldd	r25, Y+10	; 0x0a
    2548:	0e 94 45 1f 	call	0x3e8a	; 0x3e8a <__cmpsf2>
    254c:	88 23       	and	r24, r24
    254e:	0c f4       	brge	.+2      	; 0x2552 <writeHouse+0xba>
    2550:	a1 c0       	rjmp	.+322    	; 0x2694 <writeHouse+0x1fc>
		__ticks = 1;
	else if (__tmp2 > 65535)
    2552:	20 e0       	ldi	r18, 0x00	; 0
    2554:	3f ef       	ldi	r19, 0xFF	; 255
    2556:	4f e7       	ldi	r20, 0x7F	; 127
    2558:	57 e4       	ldi	r21, 0x47	; 71
    255a:	6b 85       	ldd	r22, Y+11	; 0x0b
    255c:	7c 85       	ldd	r23, Y+12	; 0x0c
    255e:	8d 85       	ldd	r24, Y+13	; 0x0d
    2560:	9e 85       	ldd	r25, Y+14	; 0x0e
    2562:	0e 94 8f 20 	call	0x411e	; 0x411e <__gesf2>
    2566:	18 16       	cp	r1, r24
    2568:	0c f0       	brlt	.+2      	; 0x256c <writeHouse+0xd4>
    256a:	6d c0       	rjmp	.+218    	; 0x2646 <writeHouse+0x1ae>
	{
		_delay_ms(__us / 1000.0);
    256c:	20 e0       	ldi	r18, 0x00	; 0
    256e:	30 e0       	ldi	r19, 0x00	; 0
    2570:	4a e7       	ldi	r20, 0x7A	; 122
    2572:	54 e4       	ldi	r21, 0x44	; 68
    2574:	6b 81       	ldd	r22, Y+3	; 0x03
    2576:	7c 81       	ldd	r23, Y+4	; 0x04
    2578:	8d 81       	ldd	r24, Y+5	; 0x05
    257a:	9e 81       	ldd	r25, Y+6	; 0x06
    257c:	0e 94 49 1f 	call	0x3e92	; 0x3e92 <__divsf3>
    2580:	dc 01       	movw	r26, r24
    2582:	cb 01       	movw	r24, r22
    2584:	6c 01       	movw	r12, r24
    2586:	7d 01       	movw	r14, r26

	__builtin_avr_delay_cycles(__ticks_dc);

#else
	uint16_t __ticks;
	__tmp = ((F_CPU) / 4e3) * __ms;
    2588:	20 e0       	ldi	r18, 0x00	; 0
    258a:	30 e0       	ldi	r19, 0x00	; 0
    258c:	4a e7       	ldi	r20, 0x7A	; 122
    258e:	55 e4       	ldi	r21, 0x45	; 69
    2590:	c7 01       	movw	r24, r14
    2592:	b6 01       	movw	r22, r12
    2594:	0e 94 93 20 	call	0x4126	; 0x4126 <__mulsf3>
    2598:	dc 01       	movw	r26, r24
    259a:	cb 01       	movw	r24, r22
    259c:	8f 87       	std	Y+15, r24	; 0x0f
    259e:	98 8b       	std	Y+16, r25	; 0x10
    25a0:	a9 8b       	std	Y+17, r26	; 0x11
    25a2:	ba 8b       	std	Y+18, r27	; 0x12
	if (__tmp < 1.0)
    25a4:	20 e0       	ldi	r18, 0x00	; 0
    25a6:	30 e0       	ldi	r19, 0x00	; 0
    25a8:	40 e8       	ldi	r20, 0x80	; 128
    25aa:	5f e3       	ldi	r21, 0x3F	; 63
    25ac:	6f 85       	ldd	r22, Y+15	; 0x0f
    25ae:	78 89       	ldd	r23, Y+16	; 0x10
    25b0:	89 89       	ldd	r24, Y+17	; 0x11
    25b2:	9a 89       	ldd	r25, Y+18	; 0x12
    25b4:	0e 94 45 1f 	call	0x3e8a	; 0x3e8a <__cmpsf2>
    25b8:	88 23       	and	r24, r24
    25ba:	d4 f1       	brlt	.+116    	; 0x2630 <writeHouse+0x198>
		__ticks = 1;
	else if (__tmp > 65535)
    25bc:	20 e0       	ldi	r18, 0x00	; 0
    25be:	3f ef       	ldi	r19, 0xFF	; 255
    25c0:	4f e7       	ldi	r20, 0x7F	; 127
    25c2:	57 e4       	ldi	r21, 0x47	; 71
    25c4:	6f 85       	ldd	r22, Y+15	; 0x0f
    25c6:	78 89       	ldd	r23, Y+16	; 0x10
    25c8:	89 89       	ldd	r24, Y+17	; 0x11
    25ca:	9a 89       	ldd	r25, Y+18	; 0x12
    25cc:	0e 94 8f 20 	call	0x411e	; 0x411e <__gesf2>
    25d0:	18 16       	cp	r1, r24
    25d2:	1c f5       	brge	.+70     	; 0x261a <writeHouse+0x182>
	{
		//	__ticks = requested delay in 1/10 ms
		__ticks = (uint16_t) (__ms * 10.0);
    25d4:	20 e0       	ldi	r18, 0x00	; 0
    25d6:	30 e0       	ldi	r19, 0x00	; 0
    25d8:	40 e2       	ldi	r20, 0x20	; 32
    25da:	51 e4       	ldi	r21, 0x41	; 65
    25dc:	c7 01       	movw	r24, r14
    25de:	b6 01       	movw	r22, r12
    25e0:	0e 94 93 20 	call	0x4126	; 0x4126 <__mulsf3>
    25e4:	dc 01       	movw	r26, r24
    25e6:	cb 01       	movw	r24, r22
    25e8:	bc 01       	movw	r22, r24
    25ea:	cd 01       	movw	r24, r26
    25ec:	0e 94 b1 1f 	call	0x3f62	; 0x3f62 <__fixunssfsi>
    25f0:	dc 01       	movw	r26, r24
    25f2:	cb 01       	movw	r24, r22
    25f4:	9c 8b       	std	Y+20, r25	; 0x14
    25f6:	8b 8b       	std	Y+19, r24	; 0x13
    25f8:	0b c0       	rjmp	.+22     	; 0x2610 <writeHouse+0x178>
    25fa:	80 e9       	ldi	r24, 0x90	; 144
    25fc:	91 e0       	ldi	r25, 0x01	; 1
    25fe:	01 97       	sbiw	r24, 0x01	; 1
    2600:	f1 f7       	brne	.-4      	; 0x25fe <writeHouse+0x166>
    2602:	9e 8b       	std	Y+22, r25	; 0x16
    2604:	8d 8b       	std	Y+21, r24	; 0x15
		while(__ticks)
		{
			// wait 1/10 ms
			_delay_loop_2(((F_CPU) / 4e3) / 10);
			__ticks --;
    2606:	8b 89       	ldd	r24, Y+19	; 0x13
    2608:	9c 89       	ldd	r25, Y+20	; 0x14
    260a:	01 97       	sbiw	r24, 0x01	; 1
    260c:	9c 8b       	std	Y+20, r25	; 0x14
    260e:	8b 8b       	std	Y+19, r24	; 0x13
		__ticks = 1;
	else if (__tmp > 65535)
	{
		//	__ticks = requested delay in 1/10 ms
		__ticks = (uint16_t) (__ms * 10.0);
		while(__ticks)
    2610:	8b 89       	ldd	r24, Y+19	; 0x13
    2612:	9c 89       	ldd	r25, Y+20	; 0x14
    2614:	89 2b       	or	r24, r25
    2616:	89 f7       	brne	.-30     	; 0x25fa <writeHouse+0x162>
    2618:	3f c0       	rjmp	.+126    	; 0x2698 <writeHouse+0x200>
			__ticks --;
		}
		return;
	}
	else
		__ticks = (uint16_t)__tmp;
    261a:	6f 85       	ldd	r22, Y+15	; 0x0f
    261c:	78 89       	ldd	r23, Y+16	; 0x10
    261e:	89 89       	ldd	r24, Y+17	; 0x11
    2620:	9a 89       	ldd	r25, Y+18	; 0x12
    2622:	0e 94 b1 1f 	call	0x3f62	; 0x3f62 <__fixunssfsi>
    2626:	dc 01       	movw	r26, r24
    2628:	cb 01       	movw	r24, r22
    262a:	9c 8b       	std	Y+20, r25	; 0x14
    262c:	8b 8b       	std	Y+19, r24	; 0x13
    262e:	04 c0       	rjmp	.+8      	; 0x2638 <writeHouse+0x1a0>

#else
	uint16_t __ticks;
	__tmp = ((F_CPU) / 4e3) * __ms;
	if (__tmp < 1.0)
		__ticks = 1;
    2630:	81 e0       	ldi	r24, 0x01	; 1
    2632:	90 e0       	ldi	r25, 0x00	; 0
    2634:	9c 8b       	std	Y+20, r25	; 0x14
    2636:	8b 8b       	std	Y+19, r24	; 0x13
    2638:	8b 89       	ldd	r24, Y+19	; 0x13
    263a:	9c 89       	ldd	r25, Y+20	; 0x14
    263c:	01 97       	sbiw	r24, 0x01	; 1
    263e:	f1 f7       	brne	.-4      	; 0x263c <writeHouse+0x1a4>
    2640:	98 8f       	std	Y+24, r25	; 0x18
    2642:	8f 8b       	std	Y+23, r24	; 0x17
    2644:	29 c0       	rjmp	.+82     	; 0x2698 <writeHouse+0x200>
		__ticks = 1;
	else if (__tmp2 > 65535)
	{
		_delay_ms(__us / 1000.0);
	}
	else if (__tmp > 255)
    2646:	20 e0       	ldi	r18, 0x00	; 0
    2648:	30 e0       	ldi	r19, 0x00	; 0
    264a:	4f e7       	ldi	r20, 0x7F	; 127
    264c:	53 e4       	ldi	r21, 0x43	; 67
    264e:	6f 81       	ldd	r22, Y+7	; 0x07
    2650:	78 85       	ldd	r23, Y+8	; 0x08
    2652:	89 85       	ldd	r24, Y+9	; 0x09
    2654:	9a 85       	ldd	r25, Y+10	; 0x0a
    2656:	0e 94 8f 20 	call	0x411e	; 0x411e <__gesf2>
    265a:	18 16       	cp	r1, r24
    265c:	8c f4       	brge	.+34     	; 0x2680 <writeHouse+0x1e8>
	{
		uint16_t __ticks=(uint16_t)__tmp2;
    265e:	6b 85       	ldd	r22, Y+11	; 0x0b
    2660:	7c 85       	ldd	r23, Y+12	; 0x0c
    2662:	8d 85       	ldd	r24, Y+13	; 0x0d
    2664:	9e 85       	ldd	r25, Y+14	; 0x0e
    2666:	0e 94 b1 1f 	call	0x3f62	; 0x3f62 <__fixunssfsi>
    266a:	dc 01       	movw	r26, r24
    266c:	cb 01       	movw	r24, r22
    266e:	9a 8f       	std	Y+26, r25	; 0x1a
    2670:	89 8f       	std	Y+25, r24	; 0x19
    2672:	89 8d       	ldd	r24, Y+25	; 0x19
    2674:	9a 8d       	ldd	r25, Y+26	; 0x1a
    2676:	01 97       	sbiw	r24, 0x01	; 1
    2678:	f1 f7       	brne	.-4      	; 0x2676 <writeHouse+0x1de>
    267a:	9c 8f       	std	Y+28, r25	; 0x1c
    267c:	8b 8f       	std	Y+27, r24	; 0x1b
    267e:	10 c0       	rjmp	.+32     	; 0x26a0 <writeHouse+0x208>
		_delay_loop_2(__ticks);
		return;
	}
	else
		__ticks = (uint8_t)__tmp;
    2680:	6f 81       	ldd	r22, Y+7	; 0x07
    2682:	78 85       	ldd	r23, Y+8	; 0x08
    2684:	89 85       	ldd	r24, Y+9	; 0x09
    2686:	9a 85       	ldd	r25, Y+10	; 0x0a
    2688:	0e 94 b1 1f 	call	0x3f62	; 0x3f62 <__fixunssfsi>
    268c:	dc 01       	movw	r26, r24
    268e:	cb 01       	movw	r24, r22
    2690:	8d 8f       	std	Y+29, r24	; 0x1d
    2692:	02 c0       	rjmp	.+4      	; 0x2698 <writeHouse+0x200>
	uint8_t __ticks;
	double __tmp2 ;
	__tmp = ((F_CPU) / 3e6) * __us;
	__tmp2 = ((F_CPU) / 4e6) * __us;
	if (__tmp < 1.0)
		__ticks = 1;
    2694:	81 e0       	ldi	r24, 0x01	; 1
    2696:	8d 8f       	std	Y+29, r24	; 0x1d
    can be achieved.
*/
void
_delay_loop_1(uint8_t __count)
{
	__asm__ volatile (
    2698:	8d 8d       	ldd	r24, Y+29	; 0x1d
    269a:	8a 95       	dec	r24
    269c:	f1 f7       	brne	.-4      	; 0x269a <writeHouse+0x202>
    269e:	8e 8f       	std	Y+30, r24	; 0x1e
void writeHouse(uint8_t data[14])
{
    //initialisierung der VAriablen
    uint8_t transmitdata = 0;
    //im for loop werden jeweils 8 Bit aus dem array gesendet
    for(uint8_t i = 0; i < 15; i = i + 1)
    26a0:	89 81       	ldd	r24, Y+1	; 0x01
    26a2:	8f 5f       	subi	r24, 0xFF	; 255
    26a4:	89 83       	std	Y+1, r24	; 0x01
    26a6:	89 81       	ldd	r24, Y+1	; 0x01
    26a8:	8f 30       	cpi	r24, 0x0F	; 15
    26aa:	08 f4       	brcc	.+2      	; 0x26ae <writeHouse+0x216>
    26ac:	08 cf       	rjmp	.-496    	; 0x24be <writeHouse+0x26>
        USART_Transmit(0,transmitdata);
        //delay damit SPI funktiuniert
        _delay_us(500);
    }
    //latch
    PORTE = PORTE | 0b00001000;
    26ae:	8e e2       	ldi	r24, 0x2E	; 46
    26b0:	90 e0       	ldi	r25, 0x00	; 0
    26b2:	2e e2       	ldi	r18, 0x2E	; 46
    26b4:	30 e0       	ldi	r19, 0x00	; 0
    26b6:	f9 01       	movw	r30, r18
    26b8:	20 81       	ld	r18, Z
    26ba:	28 60       	ori	r18, 0x08	; 8
    26bc:	fc 01       	movw	r30, r24
    26be:	20 83       	st	Z, r18
    PORTE = PORTE & ~0b00001000;
    26c0:	8e e2       	ldi	r24, 0x2E	; 46
    26c2:	90 e0       	ldi	r25, 0x00	; 0
    26c4:	2e e2       	ldi	r18, 0x2E	; 46
    26c6:	30 e0       	ldi	r19, 0x00	; 0
    26c8:	f9 01       	movw	r30, r18
    26ca:	20 81       	ld	r18, Z
    26cc:	27 7f       	andi	r18, 0xF7	; 247
    26ce:	fc 01       	movw	r30, r24
    26d0:	20 83       	st	Z, r18
}
    26d2:	00 00       	nop
    26d4:	a0 96       	adiw	r28, 0x20	; 32
    26d6:	0f b6       	in	r0, 0x3f	; 63
    26d8:	f8 94       	cli
    26da:	de bf       	out	0x3e, r29	; 62
    26dc:	0f be       	out	0x3f, r0	; 63
    26de:	cd bf       	out	0x3d, r28	; 61
    26e0:	df 91       	pop	r29
    26e2:	cf 91       	pop	r28
    26e4:	ff 90       	pop	r15
    26e6:	ef 90       	pop	r14
    26e8:	df 90       	pop	r13
    26ea:	cf 90       	pop	r12
    26ec:	08 95       	ret

000026ee <setPropertyRgb>:
//funktion um die RGB zu setzen um anzuzeigen wem die Immobilien gehören
void setPropertyRgb(uint8_t FeldNummer, uint8_t spielerNr)
{
    26ee:	cf 93       	push	r28
    26f0:	df 93       	push	r29
    26f2:	00 d0       	rcall	.+0      	; 0x26f4 <setPropertyRgb+0x6>
    26f4:	00 d0       	rcall	.+0      	; 0x26f6 <setPropertyRgb+0x8>
    26f6:	cd b7       	in	r28, 0x3d	; 61
    26f8:	de b7       	in	r29, 0x3e	; 62
    26fa:	8d 83       	std	Y+5, r24	; 0x05
    26fc:	6e 83       	std	Y+6, r22	; 0x06
    uint8_t rot,gruen,blau = 0;
    26fe:	1b 82       	std	Y+3, r1	; 0x03
    switch (spielerNr)
    2700:	8e 81       	ldd	r24, Y+6	; 0x06
    2702:	88 2f       	mov	r24, r24
    2704:	90 e0       	ldi	r25, 0x00	; 0
    2706:	82 30       	cpi	r24, 0x02	; 2
    2708:	91 05       	cpc	r25, r1
    270a:	b9 f0       	breq	.+46     	; 0x273a <setPropertyRgb+0x4c>
    270c:	83 30       	cpi	r24, 0x03	; 3
    270e:	91 05       	cpc	r25, r1
    2710:	2c f4       	brge	.+10     	; 0x271c <setPropertyRgb+0x2e>
    2712:	00 97       	sbiw	r24, 0x00	; 0
    2714:	49 f0       	breq	.+18     	; 0x2728 <setPropertyRgb+0x3a>
    2716:	01 97       	sbiw	r24, 0x01	; 1
    2718:	59 f0       	breq	.+22     	; 0x2730 <setPropertyRgb+0x42>
    271a:	21 c0       	rjmp	.+66     	; 0x275e <setPropertyRgb+0x70>
    271c:	83 30       	cpi	r24, 0x03	; 3
    271e:	91 05       	cpc	r25, r1
    2720:	99 f0       	breq	.+38     	; 0x2748 <setPropertyRgb+0x5a>
    2722:	04 97       	sbiw	r24, 0x04	; 4
    2724:	b9 f0       	breq	.+46     	; 0x2754 <setPropertyRgb+0x66>
    2726:	1b c0       	rjmp	.+54     	; 0x275e <setPropertyRgb+0x70>
    {
        case 0:
        rot = 0;
    2728:	19 82       	std	Y+1, r1	; 0x01
        gruen = 0;
    272a:	1a 82       	std	Y+2, r1	; 0x02
        blau = 0;
    272c:	1b 82       	std	Y+3, r1	; 0x03
        break;
    272e:	17 c0       	rjmp	.+46     	; 0x275e <setPropertyRgb+0x70>
        case 1:
        rot = 50;
    2730:	82 e3       	ldi	r24, 0x32	; 50
    2732:	89 83       	std	Y+1, r24	; 0x01
        gruen = 0;
    2734:	1a 82       	std	Y+2, r1	; 0x02
        blau = 0;
    2736:	1b 82       	std	Y+3, r1	; 0x03
    	break;
    2738:	12 c0       	rjmp	.+36     	; 0x275e <setPropertyRgb+0x70>
        case 2:
        rot = 30;
    273a:	8e e1       	ldi	r24, 0x1E	; 30
    273c:	89 83       	std	Y+1, r24	; 0x01
        gruen = 50;
    273e:	82 e3       	ldi	r24, 0x32	; 50
    2740:	8a 83       	std	Y+2, r24	; 0x02
        blau = 3;
    2742:	83 e0       	ldi	r24, 0x03	; 3
    2744:	8b 83       	std	Y+3, r24	; 0x03
        break;
    2746:	0b c0       	rjmp	.+22     	; 0x275e <setPropertyRgb+0x70>
        case 3:
        rot = 50;
    2748:	82 e3       	ldi	r24, 0x32	; 50
    274a:	89 83       	std	Y+1, r24	; 0x01
        gruen = 20;
    274c:	84 e1       	ldi	r24, 0x14	; 20
    274e:	8a 83       	std	Y+2, r24	; 0x02
        blau = 0;
    2750:	1b 82       	std	Y+3, r1	; 0x03
        break;
    2752:	05 c0       	rjmp	.+10     	; 0x275e <setPropertyRgb+0x70>
        case 4:
        rot = 0;
    2754:	19 82       	std	Y+1, r1	; 0x01
        gruen = 0;
    2756:	1a 82       	std	Y+2, r1	; 0x02
        blau = 50;
    2758:	82 e3       	ldi	r24, 0x32	; 50
    275a:	8b 83       	std	Y+3, r24	; 0x03
        break;
    275c:	00 00       	nop
    }
    leds[FeldNummer] = (rgb_color){rot,gruen,blau}; //Setzt die RGB werte im leds Array
    275e:	8d 81       	ldd	r24, Y+5	; 0x05
    2760:	88 2f       	mov	r24, r24
    2762:	90 e0       	ldi	r25, 0x00	; 0
    2764:	9c 01       	movw	r18, r24
    2766:	22 0f       	add	r18, r18
    2768:	33 1f       	adc	r19, r19
    276a:	28 0f       	add	r18, r24
    276c:	39 1f       	adc	r19, r25
    276e:	2b 5f       	subi	r18, 0xFB	; 251
    2770:	38 4f       	sbci	r19, 0xF8	; 248
    2772:	49 81       	ldd	r20, Y+1	; 0x01
    2774:	f9 01       	movw	r30, r18
    2776:	40 83       	st	Z, r20
    2778:	9c 01       	movw	r18, r24
    277a:	22 0f       	add	r18, r18
    277c:	33 1f       	adc	r19, r19
    277e:	28 0f       	add	r18, r24
    2780:	39 1f       	adc	r19, r25
    2782:	2a 5f       	subi	r18, 0xFA	; 250
    2784:	38 4f       	sbci	r19, 0xF8	; 248
    2786:	4a 81       	ldd	r20, Y+2	; 0x02
    2788:	f9 01       	movw	r30, r18
    278a:	40 83       	st	Z, r20
    278c:	9c 01       	movw	r18, r24
    278e:	22 0f       	add	r18, r18
    2790:	33 1f       	adc	r19, r19
    2792:	28 0f       	add	r18, r24
    2794:	39 1f       	adc	r19, r25
    2796:	c9 01       	movw	r24, r18
    2798:	89 5f       	subi	r24, 0xF9	; 249
    279a:	98 4f       	sbci	r25, 0xF8	; 248
    279c:	2b 81       	ldd	r18, Y+3	; 0x03
    279e:	fc 01       	movw	r30, r24
    27a0:	20 83       	st	Z, r18
    for (uint8_t i = 0; i < LED_COUNT; i = i + 1)   //die for loop übermittelt die Daten an die WS2812 RGB Leds
    27a2:	1c 82       	std	Y+4, r1	; 0x04
    27a4:	07 c0       	rjmp	.+14     	; 0x27b4 <setPropertyRgb+0xc6>
    {
        led_strip_write(leds);
    27a6:	85 e0       	ldi	r24, 0x05	; 5
    27a8:	97 e0       	ldi	r25, 0x07	; 7
    27aa:	0e 94 0d 1f 	call	0x3e1a	; 0x3e1a <led_strip_write>
        gruen = 0;
        blau = 50;
        break;
    }
    leds[FeldNummer] = (rgb_color){rot,gruen,blau}; //Setzt die RGB werte im leds Array
    for (uint8_t i = 0; i < LED_COUNT; i = i + 1)   //die for loop übermittelt die Daten an die WS2812 RGB Leds
    27ae:	8c 81       	ldd	r24, Y+4	; 0x04
    27b0:	8f 5f       	subi	r24, 0xFF	; 255
    27b2:	8c 83       	std	Y+4, r24	; 0x04
    27b4:	8c 81       	ldd	r24, Y+4	; 0x04
    27b6:	8c 31       	cpi	r24, 0x1C	; 28
    27b8:	b0 f3       	brcs	.-20     	; 0x27a6 <setPropertyRgb+0xb8>
    {
        led_strip_write(leds);
    }
    
}
    27ba:	00 00       	nop
    27bc:	26 96       	adiw	r28, 0x06	; 6
    27be:	0f b6       	in	r0, 0x3f	; 63
    27c0:	f8 94       	cli
    27c2:	de bf       	out	0x3e, r29	; 62
    27c4:	0f be       	out	0x3f, r0	; 63
    27c6:	cd bf       	out	0x3d, r28	; 61
    27c8:	df 91       	pop	r29
    27ca:	cf 91       	pop	r28
    27cc:	08 95       	ret

000027ce <setPlayerPosition>:

void setPlayerPosition(uint8_t feld, uint8_t spielerNummer)
{
    27ce:	cf 92       	push	r12
    27d0:	df 92       	push	r13
    27d2:	ef 92       	push	r14
    27d4:	ff 92       	push	r15
    27d6:	cf 93       	push	r28
    27d8:	df 93       	push	r29
    27da:	cd b7       	in	r28, 0x3d	; 61
    27dc:	de b7       	in	r29, 0x3e	; 62
    27de:	a5 97       	sbiw	r28, 0x25	; 37
    27e0:	0f b6       	in	r0, 0x3f	; 63
    27e2:	f8 94       	cli
    27e4:	de bf       	out	0x3e, r29	; 62
    27e6:	0f be       	out	0x3f, r0	; 63
    27e8:	cd bf       	out	0x3d, r28	; 61
    27ea:	8c a3       	std	Y+36, r24	; 0x24
    27ec:	6d a3       	std	Y+37, r22	; 0x25
    uint8_t spielerRegister, startLed, spielerPositionAlt = 0;
    27ee:	1c 82       	std	Y+4, r1	; 0x04
    int8_t fehlerausgleich = 0;
    27f0:	1d 82       	std	Y+5, r1	; 0x05
    
    //schaltet die led der alten position aus
    spielerRegister = (spielerPos[spielerNummer - 1] * 4) / 8;
    27f2:	8d a1       	ldd	r24, Y+37	; 0x25
    27f4:	88 2f       	mov	r24, r24
    27f6:	90 e0       	ldi	r25, 0x00	; 0
    27f8:	01 97       	sbiw	r24, 0x01	; 1
    27fa:	88 51       	subi	r24, 0x18	; 24
    27fc:	9a 4f       	sbci	r25, 0xFA	; 250
    27fe:	fc 01       	movw	r30, r24
    2800:	80 81       	ld	r24, Z
    2802:	88 2f       	mov	r24, r24
    2804:	90 e0       	ldi	r25, 0x00	; 0
    2806:	88 0f       	add	r24, r24
    2808:	99 1f       	adc	r25, r25
    280a:	88 0f       	add	r24, r24
    280c:	99 1f       	adc	r25, r25
    280e:	99 23       	and	r25, r25
    2810:	0c f4       	brge	.+2      	; 0x2814 <setPlayerPosition+0x46>
    2812:	07 96       	adiw	r24, 0x07	; 7
    2814:	95 95       	asr	r25
    2816:	87 95       	ror	r24
    2818:	95 95       	asr	r25
    281a:	87 95       	ror	r24
    281c:	95 95       	asr	r25
    281e:	87 95       	ror	r24
    2820:	8e 83       	std	Y+6, r24	; 0x06
    startLed = (spielerPos[spielerNummer - 1] * 4) % 8;
    2822:	8d a1       	ldd	r24, Y+37	; 0x25
    2824:	88 2f       	mov	r24, r24
    2826:	90 e0       	ldi	r25, 0x00	; 0
    2828:	01 97       	sbiw	r24, 0x01	; 1
    282a:	88 51       	subi	r24, 0x18	; 24
    282c:	9a 4f       	sbci	r25, 0xFA	; 250
    282e:	fc 01       	movw	r30, r24
    2830:	80 81       	ld	r24, Z
    2832:	88 0f       	add	r24, r24
    2834:	88 0f       	add	r24, r24
    2836:	84 70       	andi	r24, 0x04	; 4
    2838:	8f 83       	std	Y+7, r24	; 0x07
    fehlerausgleich = spielerPosFehlerAusgleich(spielerNummer);
    283a:	8d a1       	ldd	r24, Y+37	; 0x25
    283c:	94 d1       	rcall	.+808    	; 0x2b66 <spielerPosFehlerAusgleich>
    283e:	8d 83       	std	Y+5, r24	; 0x05
    spieler[spielerRegister][startLed + (spielerNummer - 1)+fehlerausgleich] = 0;
    2840:	8e 81       	ldd	r24, Y+6	; 0x06
    2842:	28 2f       	mov	r18, r24
    2844:	30 e0       	ldi	r19, 0x00	; 0
    2846:	8f 81       	ldd	r24, Y+7	; 0x07
    2848:	48 2f       	mov	r20, r24
    284a:	50 e0       	ldi	r21, 0x00	; 0
    284c:	8d a1       	ldd	r24, Y+37	; 0x25
    284e:	88 2f       	mov	r24, r24
    2850:	90 e0       	ldi	r25, 0x00	; 0
    2852:	01 97       	sbiw	r24, 0x01	; 1
    2854:	48 0f       	add	r20, r24
    2856:	59 1f       	adc	r21, r25
    2858:	8d 81       	ldd	r24, Y+5	; 0x05
    285a:	08 2e       	mov	r0, r24
    285c:	00 0c       	add	r0, r0
    285e:	99 0b       	sbc	r25, r25
    2860:	84 0f       	add	r24, r20
    2862:	95 1f       	adc	r25, r21
    2864:	22 0f       	add	r18, r18
    2866:	33 1f       	adc	r19, r19
    2868:	22 0f       	add	r18, r18
    286a:	33 1f       	adc	r19, r19
    286c:	22 0f       	add	r18, r18
    286e:	33 1f       	adc	r19, r19
    2870:	82 0f       	add	r24, r18
    2872:	93 1f       	adc	r25, r19
    2874:	88 5b       	subi	r24, 0xB8	; 184
    2876:	9a 4f       	sbci	r25, 0xFA	; 250
    2878:	fc 01       	movw	r30, r24
    287a:	10 82       	st	Z, r1
    
    //Speichert die neue Spielerposition
    spielerPos[spielerNummer - 1] = feld;
    287c:	8d a1       	ldd	r24, Y+37	; 0x25
    287e:	88 2f       	mov	r24, r24
    2880:	90 e0       	ldi	r25, 0x00	; 0
    2882:	01 97       	sbiw	r24, 0x01	; 1
    2884:	88 51       	subi	r24, 0x18	; 24
    2886:	9a 4f       	sbci	r25, 0xFA	; 250
    2888:	2c a1       	ldd	r18, Y+36	; 0x24
    288a:	fc 01       	movw	r30, r24
    288c:	20 83       	st	Z, r18
    //fehlerausgleich = spielerPosFehlerAusgleich(spielerNummer);
    //fehlerausgleich = spielerPosFehlerAusgleich(spielerNummer);
    
    //schaltet die LED der Neuen Position ein
    spielerRegister = (feld * 4) / 8;
    288e:	8c a1       	ldd	r24, Y+36	; 0x24
    2890:	88 2f       	mov	r24, r24
    2892:	90 e0       	ldi	r25, 0x00	; 0
    2894:	88 0f       	add	r24, r24
    2896:	99 1f       	adc	r25, r25
    2898:	88 0f       	add	r24, r24
    289a:	99 1f       	adc	r25, r25
    289c:	99 23       	and	r25, r25
    289e:	0c f4       	brge	.+2      	; 0x28a2 <setPlayerPosition+0xd4>
    28a0:	07 96       	adiw	r24, 0x07	; 7
    28a2:	95 95       	asr	r25
    28a4:	87 95       	ror	r24
    28a6:	95 95       	asr	r25
    28a8:	87 95       	ror	r24
    28aa:	95 95       	asr	r25
    28ac:	87 95       	ror	r24
    28ae:	8e 83       	std	Y+6, r24	; 0x06
    startLed = (feld * 4) % 8;
    28b0:	8c a1       	ldd	r24, Y+36	; 0x24
    28b2:	88 0f       	add	r24, r24
    28b4:	88 0f       	add	r24, r24
    28b6:	84 70       	andi	r24, 0x04	; 4
    28b8:	8f 83       	std	Y+7, r24	; 0x07
    fehlerausgleich = spielerPosFehlerAusgleich(spielerNummer);
    28ba:	8d a1       	ldd	r24, Y+37	; 0x25
    28bc:	54 d1       	rcall	.+680    	; 0x2b66 <spielerPosFehlerAusgleich>
    28be:	8d 83       	std	Y+5, r24	; 0x05
    spieler[spielerRegister][startLed + (spielerNummer - 1)+fehlerausgleich] = 1;
    28c0:	8e 81       	ldd	r24, Y+6	; 0x06
    28c2:	28 2f       	mov	r18, r24
    28c4:	30 e0       	ldi	r19, 0x00	; 0
    28c6:	8f 81       	ldd	r24, Y+7	; 0x07
    28c8:	48 2f       	mov	r20, r24
    28ca:	50 e0       	ldi	r21, 0x00	; 0
    28cc:	8d a1       	ldd	r24, Y+37	; 0x25
    28ce:	88 2f       	mov	r24, r24
    28d0:	90 e0       	ldi	r25, 0x00	; 0
    28d2:	01 97       	sbiw	r24, 0x01	; 1
    28d4:	48 0f       	add	r20, r24
    28d6:	59 1f       	adc	r21, r25
    28d8:	8d 81       	ldd	r24, Y+5	; 0x05
    28da:	08 2e       	mov	r0, r24
    28dc:	00 0c       	add	r0, r0
    28de:	99 0b       	sbc	r25, r25
    28e0:	84 0f       	add	r24, r20
    28e2:	95 1f       	adc	r25, r21
    28e4:	22 0f       	add	r18, r18
    28e6:	33 1f       	adc	r19, r19
    28e8:	22 0f       	add	r18, r18
    28ea:	33 1f       	adc	r19, r19
    28ec:	22 0f       	add	r18, r18
    28ee:	33 1f       	adc	r19, r19
    28f0:	82 0f       	add	r24, r18
    28f2:	93 1f       	adc	r25, r19
    28f4:	88 5b       	subi	r24, 0xB8	; 184
    28f6:	9a 4f       	sbci	r25, 0xFA	; 250
    28f8:	21 e0       	ldi	r18, 0x01	; 1
    28fa:	fc 01       	movw	r30, r24
    28fc:	20 83       	st	Z, r18
    //initialisierung der VAriablen
    uint8_t transmitdata = 0;
    28fe:	19 82       	std	Y+1, r1	; 0x01
    //im for loop werden jeweils 8 Bit aus dem array gesendet
    for(uint8_t i = 0; i < 21; i = i + 1)
    2900:	1a 82       	std	Y+2, r1	; 0x02
    2902:	0d c1       	rjmp	.+538    	; 0x2b1e <setPlayerPosition+0x350>
    {
        transmitdata = 0;
    2904:	19 82       	std	Y+1, r1	; 0x01
        for (uint8_t j = 0; j < 8; j = j + 1)
    2906:	1b 82       	std	Y+3, r1	; 0x03
    2908:	25 c0       	rjmp	.+74     	; 0x2954 <setPlayerPosition+0x186>
        {
            transmitdata = transmitdata << 1;
    290a:	89 81       	ldd	r24, Y+1	; 0x01
    290c:	88 0f       	add	r24, r24
    290e:	89 83       	std	Y+1, r24	; 0x01
            transmitdata = (transmitdata | spieler[20-i][7-j]);
    2910:	8a 81       	ldd	r24, Y+2	; 0x02
    2912:	88 2f       	mov	r24, r24
    2914:	90 e0       	ldi	r25, 0x00	; 0
    2916:	24 e1       	ldi	r18, 0x14	; 20
    2918:	30 e0       	ldi	r19, 0x00	; 0
    291a:	28 1b       	sub	r18, r24
    291c:	39 0b       	sbc	r19, r25
    291e:	8b 81       	ldd	r24, Y+3	; 0x03
    2920:	88 2f       	mov	r24, r24
    2922:	90 e0       	ldi	r25, 0x00	; 0
    2924:	47 e0       	ldi	r20, 0x07	; 7
    2926:	50 e0       	ldi	r21, 0x00	; 0
    2928:	ba 01       	movw	r22, r20
    292a:	68 1b       	sub	r22, r24
    292c:	79 0b       	sbc	r23, r25
    292e:	cb 01       	movw	r24, r22
    2930:	22 0f       	add	r18, r18
    2932:	33 1f       	adc	r19, r19
    2934:	22 0f       	add	r18, r18
    2936:	33 1f       	adc	r19, r19
    2938:	22 0f       	add	r18, r18
    293a:	33 1f       	adc	r19, r19
    293c:	82 0f       	add	r24, r18
    293e:	93 1f       	adc	r25, r19
    2940:	88 5b       	subi	r24, 0xB8	; 184
    2942:	9a 4f       	sbci	r25, 0xFA	; 250
    2944:	fc 01       	movw	r30, r24
    2946:	80 81       	ld	r24, Z
    2948:	99 81       	ldd	r25, Y+1	; 0x01
    294a:	89 2b       	or	r24, r25
    294c:	89 83       	std	Y+1, r24	; 0x01
    uint8_t transmitdata = 0;
    //im for loop werden jeweils 8 Bit aus dem array gesendet
    for(uint8_t i = 0; i < 21; i = i + 1)
    {
        transmitdata = 0;
        for (uint8_t j = 0; j < 8; j = j + 1)
    294e:	8b 81       	ldd	r24, Y+3	; 0x03
    2950:	8f 5f       	subi	r24, 0xFF	; 255
    2952:	8b 83       	std	Y+3, r24	; 0x03
    2954:	8b 81       	ldd	r24, Y+3	; 0x03
    2956:	88 30       	cpi	r24, 0x08	; 8
    2958:	c0 f2       	brcs	.-80     	; 0x290a <setPlayerPosition+0x13c>
        {
            transmitdata = transmitdata << 1;
            transmitdata = (transmitdata | spieler[20-i][7-j]);
        }
        Send2SPI(transmitdata);
    295a:	89 81       	ldd	r24, Y+1	; 0x01
    295c:	0e 94 c8 1e 	call	0x3d90	; 0x3d90 <Send2SPI>
    2960:	80 e0       	ldi	r24, 0x00	; 0
    2962:	90 e0       	ldi	r25, 0x00	; 0
    2964:	aa ef       	ldi	r26, 0xFA	; 250
    2966:	b3 e4       	ldi	r27, 0x43	; 67
    2968:	88 87       	std	Y+8, r24	; 0x08
    296a:	99 87       	std	Y+9, r25	; 0x09
    296c:	aa 87       	std	Y+10, r26	; 0x0a
    296e:	bb 87       	std	Y+11, r27	; 0x0b
	__builtin_avr_delay_cycles(__ticks_dc);

#else
	uint8_t __ticks;
	double __tmp2 ;
	__tmp = ((F_CPU) / 3e6) * __us;
    2970:	2b ea       	ldi	r18, 0xAB	; 171
    2972:	3a ea       	ldi	r19, 0xAA	; 170
    2974:	4a ea       	ldi	r20, 0xAA	; 170
    2976:	50 e4       	ldi	r21, 0x40	; 64
    2978:	68 85       	ldd	r22, Y+8	; 0x08
    297a:	79 85       	ldd	r23, Y+9	; 0x09
    297c:	8a 85       	ldd	r24, Y+10	; 0x0a
    297e:	9b 85       	ldd	r25, Y+11	; 0x0b
    2980:	0e 94 93 20 	call	0x4126	; 0x4126 <__mulsf3>
    2984:	dc 01       	movw	r26, r24
    2986:	cb 01       	movw	r24, r22
    2988:	8c 87       	std	Y+12, r24	; 0x0c
    298a:	9d 87       	std	Y+13, r25	; 0x0d
    298c:	ae 87       	std	Y+14, r26	; 0x0e
    298e:	bf 87       	std	Y+15, r27	; 0x0f
	__tmp2 = ((F_CPU) / 4e6) * __us;
    2990:	20 e0       	ldi	r18, 0x00	; 0
    2992:	30 e0       	ldi	r19, 0x00	; 0
    2994:	40 e8       	ldi	r20, 0x80	; 128
    2996:	50 e4       	ldi	r21, 0x40	; 64
    2998:	68 85       	ldd	r22, Y+8	; 0x08
    299a:	79 85       	ldd	r23, Y+9	; 0x09
    299c:	8a 85       	ldd	r24, Y+10	; 0x0a
    299e:	9b 85       	ldd	r25, Y+11	; 0x0b
    29a0:	0e 94 93 20 	call	0x4126	; 0x4126 <__mulsf3>
    29a4:	dc 01       	movw	r26, r24
    29a6:	cb 01       	movw	r24, r22
    29a8:	88 8b       	std	Y+16, r24	; 0x10
    29aa:	99 8b       	std	Y+17, r25	; 0x11
    29ac:	aa 8b       	std	Y+18, r26	; 0x12
    29ae:	bb 8b       	std	Y+19, r27	; 0x13
	if (__tmp < 1.0)
    29b0:	20 e0       	ldi	r18, 0x00	; 0
    29b2:	30 e0       	ldi	r19, 0x00	; 0
    29b4:	40 e8       	ldi	r20, 0x80	; 128
    29b6:	5f e3       	ldi	r21, 0x3F	; 63
    29b8:	6c 85       	ldd	r22, Y+12	; 0x0c
    29ba:	7d 85       	ldd	r23, Y+13	; 0x0d
    29bc:	8e 85       	ldd	r24, Y+14	; 0x0e
    29be:	9f 85       	ldd	r25, Y+15	; 0x0f
    29c0:	0e 94 45 1f 	call	0x3e8a	; 0x3e8a <__cmpsf2>
    29c4:	88 23       	and	r24, r24
    29c6:	0c f4       	brge	.+2      	; 0x29ca <setPlayerPosition+0x1fc>
    29c8:	a1 c0       	rjmp	.+322    	; 0x2b0c <setPlayerPosition+0x33e>
		__ticks = 1;
	else if (__tmp2 > 65535)
    29ca:	20 e0       	ldi	r18, 0x00	; 0
    29cc:	3f ef       	ldi	r19, 0xFF	; 255
    29ce:	4f e7       	ldi	r20, 0x7F	; 127
    29d0:	57 e4       	ldi	r21, 0x47	; 71
    29d2:	68 89       	ldd	r22, Y+16	; 0x10
    29d4:	79 89       	ldd	r23, Y+17	; 0x11
    29d6:	8a 89       	ldd	r24, Y+18	; 0x12
    29d8:	9b 89       	ldd	r25, Y+19	; 0x13
    29da:	0e 94 8f 20 	call	0x411e	; 0x411e <__gesf2>
    29de:	18 16       	cp	r1, r24
    29e0:	0c f0       	brlt	.+2      	; 0x29e4 <setPlayerPosition+0x216>
    29e2:	6d c0       	rjmp	.+218    	; 0x2abe <setPlayerPosition+0x2f0>
	{
		_delay_ms(__us / 1000.0);
    29e4:	20 e0       	ldi	r18, 0x00	; 0
    29e6:	30 e0       	ldi	r19, 0x00	; 0
    29e8:	4a e7       	ldi	r20, 0x7A	; 122
    29ea:	54 e4       	ldi	r21, 0x44	; 68
    29ec:	68 85       	ldd	r22, Y+8	; 0x08
    29ee:	79 85       	ldd	r23, Y+9	; 0x09
    29f0:	8a 85       	ldd	r24, Y+10	; 0x0a
    29f2:	9b 85       	ldd	r25, Y+11	; 0x0b
    29f4:	0e 94 49 1f 	call	0x3e92	; 0x3e92 <__divsf3>
    29f8:	dc 01       	movw	r26, r24
    29fa:	cb 01       	movw	r24, r22
    29fc:	6c 01       	movw	r12, r24
    29fe:	7d 01       	movw	r14, r26

	__builtin_avr_delay_cycles(__ticks_dc);

#else
	uint16_t __ticks;
	__tmp = ((F_CPU) / 4e3) * __ms;
    2a00:	20 e0       	ldi	r18, 0x00	; 0
    2a02:	30 e0       	ldi	r19, 0x00	; 0
    2a04:	4a e7       	ldi	r20, 0x7A	; 122
    2a06:	55 e4       	ldi	r21, 0x45	; 69
    2a08:	c7 01       	movw	r24, r14
    2a0a:	b6 01       	movw	r22, r12
    2a0c:	0e 94 93 20 	call	0x4126	; 0x4126 <__mulsf3>
    2a10:	dc 01       	movw	r26, r24
    2a12:	cb 01       	movw	r24, r22
    2a14:	8c 8b       	std	Y+20, r24	; 0x14
    2a16:	9d 8b       	std	Y+21, r25	; 0x15
    2a18:	ae 8b       	std	Y+22, r26	; 0x16
    2a1a:	bf 8b       	std	Y+23, r27	; 0x17
	if (__tmp < 1.0)
    2a1c:	20 e0       	ldi	r18, 0x00	; 0
    2a1e:	30 e0       	ldi	r19, 0x00	; 0
    2a20:	40 e8       	ldi	r20, 0x80	; 128
    2a22:	5f e3       	ldi	r21, 0x3F	; 63
    2a24:	6c 89       	ldd	r22, Y+20	; 0x14
    2a26:	7d 89       	ldd	r23, Y+21	; 0x15
    2a28:	8e 89       	ldd	r24, Y+22	; 0x16
    2a2a:	9f 89       	ldd	r25, Y+23	; 0x17
    2a2c:	0e 94 45 1f 	call	0x3e8a	; 0x3e8a <__cmpsf2>
    2a30:	88 23       	and	r24, r24
    2a32:	d4 f1       	brlt	.+116    	; 0x2aa8 <setPlayerPosition+0x2da>
		__ticks = 1;
	else if (__tmp > 65535)
    2a34:	20 e0       	ldi	r18, 0x00	; 0
    2a36:	3f ef       	ldi	r19, 0xFF	; 255
    2a38:	4f e7       	ldi	r20, 0x7F	; 127
    2a3a:	57 e4       	ldi	r21, 0x47	; 71
    2a3c:	6c 89       	ldd	r22, Y+20	; 0x14
    2a3e:	7d 89       	ldd	r23, Y+21	; 0x15
    2a40:	8e 89       	ldd	r24, Y+22	; 0x16
    2a42:	9f 89       	ldd	r25, Y+23	; 0x17
    2a44:	0e 94 8f 20 	call	0x411e	; 0x411e <__gesf2>
    2a48:	18 16       	cp	r1, r24
    2a4a:	1c f5       	brge	.+70     	; 0x2a92 <setPlayerPosition+0x2c4>
	{
		//	__ticks = requested delay in 1/10 ms
		__ticks = (uint16_t) (__ms * 10.0);
    2a4c:	20 e0       	ldi	r18, 0x00	; 0
    2a4e:	30 e0       	ldi	r19, 0x00	; 0
    2a50:	40 e2       	ldi	r20, 0x20	; 32
    2a52:	51 e4       	ldi	r21, 0x41	; 65
    2a54:	c7 01       	movw	r24, r14
    2a56:	b6 01       	movw	r22, r12
    2a58:	0e 94 93 20 	call	0x4126	; 0x4126 <__mulsf3>
    2a5c:	dc 01       	movw	r26, r24
    2a5e:	cb 01       	movw	r24, r22
    2a60:	bc 01       	movw	r22, r24
    2a62:	cd 01       	movw	r24, r26
    2a64:	0e 94 b1 1f 	call	0x3f62	; 0x3f62 <__fixunssfsi>
    2a68:	dc 01       	movw	r26, r24
    2a6a:	cb 01       	movw	r24, r22
    2a6c:	99 8f       	std	Y+25, r25	; 0x19
    2a6e:	88 8f       	std	Y+24, r24	; 0x18
    2a70:	0b c0       	rjmp	.+22     	; 0x2a88 <setPlayerPosition+0x2ba>
    milliseconds can be achieved.
 */
void
_delay_loop_2(uint16_t __count)
{
	__asm__ volatile (
    2a72:	80 e9       	ldi	r24, 0x90	; 144
    2a74:	91 e0       	ldi	r25, 0x01	; 1
    2a76:	01 97       	sbiw	r24, 0x01	; 1
    2a78:	f1 f7       	brne	.-4      	; 0x2a76 <setPlayerPosition+0x2a8>
    2a7a:	9b 8f       	std	Y+27, r25	; 0x1b
    2a7c:	8a 8f       	std	Y+26, r24	; 0x1a
		while(__ticks)
		{
			// wait 1/10 ms
			_delay_loop_2(((F_CPU) / 4e3) / 10);
			__ticks --;
    2a7e:	88 8d       	ldd	r24, Y+24	; 0x18
    2a80:	99 8d       	ldd	r25, Y+25	; 0x19
    2a82:	01 97       	sbiw	r24, 0x01	; 1
    2a84:	99 8f       	std	Y+25, r25	; 0x19
    2a86:	88 8f       	std	Y+24, r24	; 0x18
		__ticks = 1;
	else if (__tmp > 65535)
	{
		//	__ticks = requested delay in 1/10 ms
		__ticks = (uint16_t) (__ms * 10.0);
		while(__ticks)
    2a88:	88 8d       	ldd	r24, Y+24	; 0x18
    2a8a:	99 8d       	ldd	r25, Y+25	; 0x19
    2a8c:	89 2b       	or	r24, r25
    2a8e:	89 f7       	brne	.-30     	; 0x2a72 <setPlayerPosition+0x2a4>
    2a90:	3f c0       	rjmp	.+126    	; 0x2b10 <setPlayerPosition+0x342>
			__ticks --;
		}
		return;
	}
	else
		__ticks = (uint16_t)__tmp;
    2a92:	6c 89       	ldd	r22, Y+20	; 0x14
    2a94:	7d 89       	ldd	r23, Y+21	; 0x15
    2a96:	8e 89       	ldd	r24, Y+22	; 0x16
    2a98:	9f 89       	ldd	r25, Y+23	; 0x17
    2a9a:	0e 94 b1 1f 	call	0x3f62	; 0x3f62 <__fixunssfsi>
    2a9e:	dc 01       	movw	r26, r24
    2aa0:	cb 01       	movw	r24, r22
    2aa2:	99 8f       	std	Y+25, r25	; 0x19
    2aa4:	88 8f       	std	Y+24, r24	; 0x18
    2aa6:	04 c0       	rjmp	.+8      	; 0x2ab0 <setPlayerPosition+0x2e2>

#else
	uint16_t __ticks;
	__tmp = ((F_CPU) / 4e3) * __ms;
	if (__tmp < 1.0)
		__ticks = 1;
    2aa8:	81 e0       	ldi	r24, 0x01	; 1
    2aaa:	90 e0       	ldi	r25, 0x00	; 0
    2aac:	99 8f       	std	Y+25, r25	; 0x19
    2aae:	88 8f       	std	Y+24, r24	; 0x18
    2ab0:	88 8d       	ldd	r24, Y+24	; 0x18
    2ab2:	99 8d       	ldd	r25, Y+25	; 0x19
    2ab4:	01 97       	sbiw	r24, 0x01	; 1
    2ab6:	f1 f7       	brne	.-4      	; 0x2ab4 <setPlayerPosition+0x2e6>
    2ab8:	9d 8f       	std	Y+29, r25	; 0x1d
    2aba:	8c 8f       	std	Y+28, r24	; 0x1c
    2abc:	29 c0       	rjmp	.+82     	; 0x2b10 <setPlayerPosition+0x342>
		__ticks = 1;
	else if (__tmp2 > 65535)
	{
		_delay_ms(__us / 1000.0);
	}
	else if (__tmp > 255)
    2abe:	20 e0       	ldi	r18, 0x00	; 0
    2ac0:	30 e0       	ldi	r19, 0x00	; 0
    2ac2:	4f e7       	ldi	r20, 0x7F	; 127
    2ac4:	53 e4       	ldi	r21, 0x43	; 67
    2ac6:	6c 85       	ldd	r22, Y+12	; 0x0c
    2ac8:	7d 85       	ldd	r23, Y+13	; 0x0d
    2aca:	8e 85       	ldd	r24, Y+14	; 0x0e
    2acc:	9f 85       	ldd	r25, Y+15	; 0x0f
    2ace:	0e 94 8f 20 	call	0x411e	; 0x411e <__gesf2>
    2ad2:	18 16       	cp	r1, r24
    2ad4:	8c f4       	brge	.+34     	; 0x2af8 <setPlayerPosition+0x32a>
	{
		uint16_t __ticks=(uint16_t)__tmp2;
    2ad6:	68 89       	ldd	r22, Y+16	; 0x10
    2ad8:	79 89       	ldd	r23, Y+17	; 0x11
    2ada:	8a 89       	ldd	r24, Y+18	; 0x12
    2adc:	9b 89       	ldd	r25, Y+19	; 0x13
    2ade:	0e 94 b1 1f 	call	0x3f62	; 0x3f62 <__fixunssfsi>
    2ae2:	dc 01       	movw	r26, r24
    2ae4:	cb 01       	movw	r24, r22
    2ae6:	9f 8f       	std	Y+31, r25	; 0x1f
    2ae8:	8e 8f       	std	Y+30, r24	; 0x1e
    2aea:	8e 8d       	ldd	r24, Y+30	; 0x1e
    2aec:	9f 8d       	ldd	r25, Y+31	; 0x1f
    2aee:	01 97       	sbiw	r24, 0x01	; 1
    2af0:	f1 f7       	brne	.-4      	; 0x2aee <setPlayerPosition+0x320>
    2af2:	99 a3       	std	Y+33, r25	; 0x21
    2af4:	88 a3       	std	Y+32, r24	; 0x20
    2af6:	10 c0       	rjmp	.+32     	; 0x2b18 <setPlayerPosition+0x34a>
		_delay_loop_2(__ticks);
		return;
	}
	else
		__ticks = (uint8_t)__tmp;
    2af8:	6c 85       	ldd	r22, Y+12	; 0x0c
    2afa:	7d 85       	ldd	r23, Y+13	; 0x0d
    2afc:	8e 85       	ldd	r24, Y+14	; 0x0e
    2afe:	9f 85       	ldd	r25, Y+15	; 0x0f
    2b00:	0e 94 b1 1f 	call	0x3f62	; 0x3f62 <__fixunssfsi>
    2b04:	dc 01       	movw	r26, r24
    2b06:	cb 01       	movw	r24, r22
    2b08:	8a a3       	std	Y+34, r24	; 0x22
    2b0a:	02 c0       	rjmp	.+4      	; 0x2b10 <setPlayerPosition+0x342>
	uint8_t __ticks;
	double __tmp2 ;
	__tmp = ((F_CPU) / 3e6) * __us;
	__tmp2 = ((F_CPU) / 4e6) * __us;
	if (__tmp < 1.0)
		__ticks = 1;
    2b0c:	81 e0       	ldi	r24, 0x01	; 1
    2b0e:	8a a3       	std	Y+34, r24	; 0x22
    can be achieved.
*/
void
_delay_loop_1(uint8_t __count)
{
	__asm__ volatile (
    2b10:	8a a1       	ldd	r24, Y+34	; 0x22
    2b12:	8a 95       	dec	r24
    2b14:	f1 f7       	brne	.-4      	; 0x2b12 <setPlayerPosition+0x344>
    2b16:	8b a3       	std	Y+35, r24	; 0x23
    fehlerausgleich = spielerPosFehlerAusgleich(spielerNummer);
    spieler[spielerRegister][startLed + (spielerNummer - 1)+fehlerausgleich] = 1;
    //initialisierung der VAriablen
    uint8_t transmitdata = 0;
    //im for loop werden jeweils 8 Bit aus dem array gesendet
    for(uint8_t i = 0; i < 21; i = i + 1)
    2b18:	8a 81       	ldd	r24, Y+2	; 0x02
    2b1a:	8f 5f       	subi	r24, 0xFF	; 255
    2b1c:	8a 83       	std	Y+2, r24	; 0x02
    2b1e:	8a 81       	ldd	r24, Y+2	; 0x02
    2b20:	85 31       	cpi	r24, 0x15	; 21
    2b22:	08 f4       	brcc	.+2      	; 0x2b26 <setPlayerPosition+0x358>
    2b24:	ef ce       	rjmp	.-546    	; 0x2904 <setPlayerPosition+0x136>
        Send2SPI(transmitdata);
        //delay damit SPI funktiuniert
        _delay_us(500);
    }
    //latch
    PORTB = PORTB | 0x10;
    2b26:	85 e2       	ldi	r24, 0x25	; 37
    2b28:	90 e0       	ldi	r25, 0x00	; 0
    2b2a:	25 e2       	ldi	r18, 0x25	; 37
    2b2c:	30 e0       	ldi	r19, 0x00	; 0
    2b2e:	f9 01       	movw	r30, r18
    2b30:	20 81       	ld	r18, Z
    2b32:	20 61       	ori	r18, 0x10	; 16
    2b34:	fc 01       	movw	r30, r24
    2b36:	20 83       	st	Z, r18
    PORTB = PORTB & ~0x10;
    2b38:	85 e2       	ldi	r24, 0x25	; 37
    2b3a:	90 e0       	ldi	r25, 0x00	; 0
    2b3c:	25 e2       	ldi	r18, 0x25	; 37
    2b3e:	30 e0       	ldi	r19, 0x00	; 0
    2b40:	f9 01       	movw	r30, r18
    2b42:	20 81       	ld	r18, Z
    2b44:	2f 7e       	andi	r18, 0xEF	; 239
    2b46:	fc 01       	movw	r30, r24
    2b48:	20 83       	st	Z, r18
}
    2b4a:	00 00       	nop
    2b4c:	a5 96       	adiw	r28, 0x25	; 37
    2b4e:	0f b6       	in	r0, 0x3f	; 63
    2b50:	f8 94       	cli
    2b52:	de bf       	out	0x3e, r29	; 62
    2b54:	0f be       	out	0x3f, r0	; 63
    2b56:	cd bf       	out	0x3d, r28	; 61
    2b58:	df 91       	pop	r29
    2b5a:	cf 91       	pop	r28
    2b5c:	ff 90       	pop	r15
    2b5e:	ef 90       	pop	r14
    2b60:	df 90       	pop	r13
    2b62:	cf 90       	pop	r12
    2b64:	08 95       	ret

00002b66 <spielerPosFehlerAusgleich>:

//funktion zur Korrektur von Hardwarefehler
int8_t spielerPosFehlerAusgleich(uint8_t spielerNummer)
{
    2b66:	cf 93       	push	r28
    2b68:	df 93       	push	r29
    2b6a:	1f 92       	push	r1
    2b6c:	1f 92       	push	r1
    2b6e:	cd b7       	in	r28, 0x3d	; 61
    2b70:	de b7       	in	r29, 0x3e	; 62
    2b72:	8a 83       	std	Y+2, r24	; 0x02
    int8_t fehlerausgleich = 0;
    2b74:	19 82       	std	Y+1, r1	; 0x01
    //in den Feldern 0 - 9 muss nichts korrigiert werden
    if(spielerPos[spielerNummer - 1] < 10)
    2b76:	8a 81       	ldd	r24, Y+2	; 0x02
    2b78:	88 2f       	mov	r24, r24
    2b7a:	90 e0       	ldi	r25, 0x00	; 0
    2b7c:	01 97       	sbiw	r24, 0x01	; 1
    2b7e:	88 51       	subi	r24, 0x18	; 24
    2b80:	9a 4f       	sbci	r25, 0xFA	; 250
    2b82:	fc 01       	movw	r30, r24
    2b84:	80 81       	ld	r24, Z
    2b86:	8a 30       	cpi	r24, 0x0A	; 10
    2b88:	10 f4       	brcc	.+4      	; 0x2b8e <spielerPosFehlerAusgleich+0x28>
    {
        fehlerausgleich = 0;
    2b8a:	19 82       	std	Y+1, r1	; 0x01
    2b8c:	98 c0       	rjmp	.+304    	; 0x2cbe <spielerPosFehlerAusgleich+0x158>
    }
    //Korrektur der felder 10-19
    else if((spielerPos[spielerNummer - 1] > 9) && (spielerPos[spielerNummer - 1] < 20))
    2b8e:	8a 81       	ldd	r24, Y+2	; 0x02
    2b90:	88 2f       	mov	r24, r24
    2b92:	90 e0       	ldi	r25, 0x00	; 0
    2b94:	01 97       	sbiw	r24, 0x01	; 1
    2b96:	88 51       	subi	r24, 0x18	; 24
    2b98:	9a 4f       	sbci	r25, 0xFA	; 250
    2b9a:	fc 01       	movw	r30, r24
    2b9c:	80 81       	ld	r24, Z
    2b9e:	8a 30       	cpi	r24, 0x0A	; 10
    2ba0:	48 f1       	brcs	.+82     	; 0x2bf4 <spielerPosFehlerAusgleich+0x8e>
    2ba2:	8a 81       	ldd	r24, Y+2	; 0x02
    2ba4:	88 2f       	mov	r24, r24
    2ba6:	90 e0       	ldi	r25, 0x00	; 0
    2ba8:	01 97       	sbiw	r24, 0x01	; 1
    2baa:	88 51       	subi	r24, 0x18	; 24
    2bac:	9a 4f       	sbci	r25, 0xFA	; 250
    2bae:	fc 01       	movw	r30, r24
    2bb0:	80 81       	ld	r24, Z
    2bb2:	84 31       	cpi	r24, 0x14	; 20
    2bb4:	f8 f4       	brcc	.+62     	; 0x2bf4 <spielerPosFehlerAusgleich+0x8e>
    {
        switch (spielerNummer)
    2bb6:	8a 81       	ldd	r24, Y+2	; 0x02
    2bb8:	88 2f       	mov	r24, r24
    2bba:	90 e0       	ldi	r25, 0x00	; 0
    2bbc:	82 30       	cpi	r24, 0x02	; 2
    2bbe:	91 05       	cpc	r25, r1
    2bc0:	79 f0       	breq	.+30     	; 0x2be0 <spielerPosFehlerAusgleich+0x7a>
    2bc2:	83 30       	cpi	r24, 0x03	; 3
    2bc4:	91 05       	cpc	r25, r1
    2bc6:	1c f4       	brge	.+6      	; 0x2bce <spielerPosFehlerAusgleich+0x68>
    2bc8:	01 97       	sbiw	r24, 0x01	; 1
    2bca:	39 f0       	breq	.+14     	; 0x2bda <spielerPosFehlerAusgleich+0x74>
            break;
            case 4:
            fehlerausgleich = -1;
            break;
        }
    }
    2bcc:	78 c0       	rjmp	.+240    	; 0x2cbe <spielerPosFehlerAusgleich+0x158>
        fehlerausgleich = 0;
    }
    //Korrektur der felder 10-19
    else if((spielerPos[spielerNummer - 1] > 9) && (spielerPos[spielerNummer - 1] < 20))
    {
        switch (spielerNummer)
    2bce:	83 30       	cpi	r24, 0x03	; 3
    2bd0:	91 05       	cpc	r25, r1
    2bd2:	49 f0       	breq	.+18     	; 0x2be6 <spielerPosFehlerAusgleich+0x80>
    2bd4:	04 97       	sbiw	r24, 0x04	; 4
    2bd6:	51 f0       	breq	.+20     	; 0x2bec <spielerPosFehlerAusgleich+0x86>
            break;
            case 4:
            fehlerausgleich = -1;
            break;
        }
    }
    2bd8:	72 c0       	rjmp	.+228    	; 0x2cbe <spielerPosFehlerAusgleich+0x158>
    else if((spielerPos[spielerNummer - 1] > 9) && (spielerPos[spielerNummer - 1] < 20))
    {
        switch (spielerNummer)
        {
            case 1:
            fehlerausgleich = 1;
    2bda:	81 e0       	ldi	r24, 0x01	; 1
    2bdc:	89 83       	std	Y+1, r24	; 0x01
            break;
    2bde:	09 c0       	rjmp	.+18     	; 0x2bf2 <spielerPosFehlerAusgleich+0x8c>
            case 2:
            fehlerausgleich = 2;
    2be0:	82 e0       	ldi	r24, 0x02	; 2
    2be2:	89 83       	std	Y+1, r24	; 0x01
            break;
    2be4:	06 c0       	rjmp	.+12     	; 0x2bf2 <spielerPosFehlerAusgleich+0x8c>
            case 3:
            fehlerausgleich = -2;
    2be6:	8e ef       	ldi	r24, 0xFE	; 254
    2be8:	89 83       	std	Y+1, r24	; 0x01
            break;
    2bea:	03 c0       	rjmp	.+6      	; 0x2bf2 <spielerPosFehlerAusgleich+0x8c>
            case 4:
            fehlerausgleich = -1;
    2bec:	8f ef       	ldi	r24, 0xFF	; 255
    2bee:	89 83       	std	Y+1, r24	; 0x01
            break;
    2bf0:	00 00       	nop
        }
    }
    2bf2:	65 c0       	rjmp	.+202    	; 0x2cbe <spielerPosFehlerAusgleich+0x158>
    //Korrektur der felder 20-29
    else if((spielerPos[spielerNummer - 1] > 19) && (spielerPos[spielerNummer - 1] < 30))
    2bf4:	8a 81       	ldd	r24, Y+2	; 0x02
    2bf6:	88 2f       	mov	r24, r24
    2bf8:	90 e0       	ldi	r25, 0x00	; 0
    2bfa:	01 97       	sbiw	r24, 0x01	; 1
    2bfc:	88 51       	subi	r24, 0x18	; 24
    2bfe:	9a 4f       	sbci	r25, 0xFA	; 250
    2c00:	fc 01       	movw	r30, r24
    2c02:	80 81       	ld	r24, Z
    2c04:	84 31       	cpi	r24, 0x14	; 20
    2c06:	48 f1       	brcs	.+82     	; 0x2c5a <spielerPosFehlerAusgleich+0xf4>
    2c08:	8a 81       	ldd	r24, Y+2	; 0x02
    2c0a:	88 2f       	mov	r24, r24
    2c0c:	90 e0       	ldi	r25, 0x00	; 0
    2c0e:	01 97       	sbiw	r24, 0x01	; 1
    2c10:	88 51       	subi	r24, 0x18	; 24
    2c12:	9a 4f       	sbci	r25, 0xFA	; 250
    2c14:	fc 01       	movw	r30, r24
    2c16:	80 81       	ld	r24, Z
    2c18:	8e 31       	cpi	r24, 0x1E	; 30
    2c1a:	f8 f4       	brcc	.+62     	; 0x2c5a <spielerPosFehlerAusgleich+0xf4>
    {
        
        switch (spielerNummer)
    2c1c:	8a 81       	ldd	r24, Y+2	; 0x02
    2c1e:	88 2f       	mov	r24, r24
    2c20:	90 e0       	ldi	r25, 0x00	; 0
    2c22:	82 30       	cpi	r24, 0x02	; 2
    2c24:	91 05       	cpc	r25, r1
    2c26:	79 f0       	breq	.+30     	; 0x2c46 <spielerPosFehlerAusgleich+0xe0>
    2c28:	83 30       	cpi	r24, 0x03	; 3
    2c2a:	91 05       	cpc	r25, r1
    2c2c:	1c f4       	brge	.+6      	; 0x2c34 <spielerPosFehlerAusgleich+0xce>
    2c2e:	01 97       	sbiw	r24, 0x01	; 1
    2c30:	39 f0       	breq	.+14     	; 0x2c40 <spielerPosFehlerAusgleich+0xda>
            break;
            case 4:
            fehlerausgleich = -3;
            break;
        }
    }
    2c32:	45 c0       	rjmp	.+138    	; 0x2cbe <spielerPosFehlerAusgleich+0x158>
    }
    //Korrektur der felder 20-29
    else if((spielerPos[spielerNummer - 1] > 19) && (spielerPos[spielerNummer - 1] < 30))
    {
        
        switch (spielerNummer)
    2c34:	83 30       	cpi	r24, 0x03	; 3
    2c36:	91 05       	cpc	r25, r1
    2c38:	49 f0       	breq	.+18     	; 0x2c4c <spielerPosFehlerAusgleich+0xe6>
    2c3a:	04 97       	sbiw	r24, 0x04	; 4
    2c3c:	51 f0       	breq	.+20     	; 0x2c52 <spielerPosFehlerAusgleich+0xec>
            break;
            case 4:
            fehlerausgleich = -3;
            break;
        }
    }
    2c3e:	3f c0       	rjmp	.+126    	; 0x2cbe <spielerPosFehlerAusgleich+0x158>
    {
        
        switch (spielerNummer)
        {
            case 1:
            fehlerausgleich = 3;
    2c40:	83 e0       	ldi	r24, 0x03	; 3
    2c42:	89 83       	std	Y+1, r24	; 0x01
            break;
    2c44:	09 c0       	rjmp	.+18     	; 0x2c58 <spielerPosFehlerAusgleich+0xf2>
            case 2:
            fehlerausgleich = 1;
    2c46:	81 e0       	ldi	r24, 0x01	; 1
    2c48:	89 83       	std	Y+1, r24	; 0x01
            break;
    2c4a:	06 c0       	rjmp	.+12     	; 0x2c58 <spielerPosFehlerAusgleich+0xf2>
            case 3:
            fehlerausgleich = -1;
    2c4c:	8f ef       	ldi	r24, 0xFF	; 255
    2c4e:	89 83       	std	Y+1, r24	; 0x01
            break;
    2c50:	03 c0       	rjmp	.+6      	; 0x2c58 <spielerPosFehlerAusgleich+0xf2>
            case 4:
            fehlerausgleich = -3;
    2c52:	8d ef       	ldi	r24, 0xFD	; 253
    2c54:	89 83       	std	Y+1, r24	; 0x01
            break;
    2c56:	00 00       	nop
        }
    }
    2c58:	32 c0       	rjmp	.+100    	; 0x2cbe <spielerPosFehlerAusgleich+0x158>
    //Korrektur der felder 30-39
    else if((spielerPos[spielerNummer - 1] > 29) && (spielerPos[spielerNummer - 1] < 40))
    2c5a:	8a 81       	ldd	r24, Y+2	; 0x02
    2c5c:	88 2f       	mov	r24, r24
    2c5e:	90 e0       	ldi	r25, 0x00	; 0
    2c60:	01 97       	sbiw	r24, 0x01	; 1
    2c62:	88 51       	subi	r24, 0x18	; 24
    2c64:	9a 4f       	sbci	r25, 0xFA	; 250
    2c66:	fc 01       	movw	r30, r24
    2c68:	80 81       	ld	r24, Z
    2c6a:	8e 31       	cpi	r24, 0x1E	; 30
    2c6c:	40 f1       	brcs	.+80     	; 0x2cbe <spielerPosFehlerAusgleich+0x158>
    2c6e:	8a 81       	ldd	r24, Y+2	; 0x02
    2c70:	88 2f       	mov	r24, r24
    2c72:	90 e0       	ldi	r25, 0x00	; 0
    2c74:	01 97       	sbiw	r24, 0x01	; 1
    2c76:	88 51       	subi	r24, 0x18	; 24
    2c78:	9a 4f       	sbci	r25, 0xFA	; 250
    2c7a:	fc 01       	movw	r30, r24
    2c7c:	80 81       	ld	r24, Z
    2c7e:	88 32       	cpi	r24, 0x28	; 40
    2c80:	f0 f4       	brcc	.+60     	; 0x2cbe <spielerPosFehlerAusgleich+0x158>
    {
        
        switch (spielerNummer)
    2c82:	8a 81       	ldd	r24, Y+2	; 0x02
    2c84:	88 2f       	mov	r24, r24
    2c86:	90 e0       	ldi	r25, 0x00	; 0
    2c88:	82 30       	cpi	r24, 0x02	; 2
    2c8a:	91 05       	cpc	r25, r1
    2c8c:	79 f0       	breq	.+30     	; 0x2cac <spielerPosFehlerAusgleich+0x146>
    2c8e:	83 30       	cpi	r24, 0x03	; 3
    2c90:	91 05       	cpc	r25, r1
    2c92:	1c f4       	brge	.+6      	; 0x2c9a <spielerPosFehlerAusgleich+0x134>
    2c94:	01 97       	sbiw	r24, 0x01	; 1
    2c96:	39 f0       	breq	.+14     	; 0x2ca6 <spielerPosFehlerAusgleich+0x140>
    2c98:	12 c0       	rjmp	.+36     	; 0x2cbe <spielerPosFehlerAusgleich+0x158>
    2c9a:	83 30       	cpi	r24, 0x03	; 3
    2c9c:	91 05       	cpc	r25, r1
    2c9e:	49 f0       	breq	.+18     	; 0x2cb2 <spielerPosFehlerAusgleich+0x14c>
    2ca0:	04 97       	sbiw	r24, 0x04	; 4
    2ca2:	51 f0       	breq	.+20     	; 0x2cb8 <spielerPosFehlerAusgleich+0x152>
    2ca4:	0c c0       	rjmp	.+24     	; 0x2cbe <spielerPosFehlerAusgleich+0x158>
        {
            case 1:
            fehlerausgleich = 2;
    2ca6:	82 e0       	ldi	r24, 0x02	; 2
    2ca8:	89 83       	std	Y+1, r24	; 0x01
            break;
    2caa:	09 c0       	rjmp	.+18     	; 0x2cbe <spielerPosFehlerAusgleich+0x158>
            case 2:
            fehlerausgleich = -1;
    2cac:	8f ef       	ldi	r24, 0xFF	; 255
    2cae:	89 83       	std	Y+1, r24	; 0x01
            break;
    2cb0:	06 c0       	rjmp	.+12     	; 0x2cbe <spielerPosFehlerAusgleich+0x158>
            case 3:
            fehlerausgleich = 1;
    2cb2:	81 e0       	ldi	r24, 0x01	; 1
    2cb4:	89 83       	std	Y+1, r24	; 0x01
            break;
    2cb6:	03 c0       	rjmp	.+6      	; 0x2cbe <spielerPosFehlerAusgleich+0x158>
            case 4:
            fehlerausgleich = -2;
    2cb8:	8e ef       	ldi	r24, 0xFE	; 254
    2cba:	89 83       	std	Y+1, r24	; 0x01
            break;
    2cbc:	00 00       	nop
        }
    }
    //gibt den korrektur Wert zurück
    return fehlerausgleich;
    2cbe:	89 81       	ldd	r24, Y+1	; 0x01
}
    2cc0:	0f 90       	pop	r0
    2cc2:	0f 90       	pop	r0
    2cc4:	df 91       	pop	r29
    2cc6:	cf 91       	pop	r28
    2cc8:	08 95       	ret

00002cca <setGeld>:
    (SEG_A | SEG_B | SEG_C | SEG_F | SEG_G | SEG_D)                             //9
};


void setGeld(uint16_t geld, uint8_t spieler)
{
    2cca:	cf 92       	push	r12
    2ccc:	df 92       	push	r13
    2cce:	ef 92       	push	r14
    2cd0:	ff 92       	push	r15
    2cd2:	cf 93       	push	r28
    2cd4:	df 93       	push	r29
    2cd6:	cd b7       	in	r28, 0x3d	; 61
    2cd8:	de b7       	in	r29, 0x3e	; 62
    2cda:	a5 97       	sbiw	r28, 0x25	; 37
    2cdc:	0f b6       	in	r0, 0x3f	; 63
    2cde:	f8 94       	cli
    2ce0:	de bf       	out	0x3e, r29	; 62
    2ce2:	0f be       	out	0x3f, r0	; 63
    2ce4:	cd bf       	out	0x3d, r28	; 61
    2ce6:	9c a3       	std	Y+36, r25	; 0x24
    2ce8:	8b a3       	std	Y+35, r24	; 0x23
    2cea:	6d a3       	std	Y+37, r22	; 0x25
    uint8_t tausender,hunderter,zehner,einer,transmitdata = 0;
    2cec:	1a 82       	std	Y+2, r1	; 0x02
    tausender   = (geld / 1000) % 10;
    2cee:	8b a1       	ldd	r24, Y+35	; 0x23
    2cf0:	9c a1       	ldd	r25, Y+36	; 0x24
    2cf2:	96 95       	lsr	r25
    2cf4:	87 95       	ror	r24
    2cf6:	96 95       	lsr	r25
    2cf8:	87 95       	ror	r24
    2cfa:	96 95       	lsr	r25
    2cfc:	87 95       	ror	r24
    2cfe:	9c 01       	movw	r18, r24
    2d00:	a5 ec       	ldi	r26, 0xC5	; 197
    2d02:	b0 e2       	ldi	r27, 0x20	; 32
    2d04:	0e 94 11 21 	call	0x4222	; 0x4222 <__umulhisi3>
    2d08:	ac 01       	movw	r20, r24
    2d0a:	52 95       	swap	r21
    2d0c:	42 95       	swap	r20
    2d0e:	4f 70       	andi	r20, 0x0F	; 15
    2d10:	45 27       	eor	r20, r21
    2d12:	5f 70       	andi	r21, 0x0F	; 15
    2d14:	45 27       	eor	r20, r21
    2d16:	9a 01       	movw	r18, r20
    2d18:	ad ec       	ldi	r26, 0xCD	; 205
    2d1a:	bc ec       	ldi	r27, 0xCC	; 204
    2d1c:	0e 94 11 21 	call	0x4222	; 0x4222 <__umulhisi3>
    2d20:	96 95       	lsr	r25
    2d22:	87 95       	ror	r24
    2d24:	96 95       	lsr	r25
    2d26:	87 95       	ror	r24
    2d28:	96 95       	lsr	r25
    2d2a:	87 95       	ror	r24
    2d2c:	88 0f       	add	r24, r24
    2d2e:	99 1f       	adc	r25, r25
    2d30:	9c 01       	movw	r18, r24
    2d32:	22 0f       	add	r18, r18
    2d34:	33 1f       	adc	r19, r19
    2d36:	22 0f       	add	r18, r18
    2d38:	33 1f       	adc	r19, r19
    2d3a:	82 0f       	add	r24, r18
    2d3c:	93 1f       	adc	r25, r19
    2d3e:	9a 01       	movw	r18, r20
    2d40:	28 1b       	sub	r18, r24
    2d42:	39 0b       	sbc	r19, r25
    2d44:	c9 01       	movw	r24, r18
    2d46:	8b 83       	std	Y+3, r24	; 0x03
    hunderter   = (geld / 100)  % 10;
    2d48:	8b a1       	ldd	r24, Y+35	; 0x23
    2d4a:	9c a1       	ldd	r25, Y+36	; 0x24
    2d4c:	96 95       	lsr	r25
    2d4e:	87 95       	ror	r24
    2d50:	96 95       	lsr	r25
    2d52:	87 95       	ror	r24
    2d54:	9c 01       	movw	r18, r24
    2d56:	ab e7       	ldi	r26, 0x7B	; 123
    2d58:	b4 e1       	ldi	r27, 0x14	; 20
    2d5a:	0e 94 11 21 	call	0x4222	; 0x4222 <__umulhisi3>
    2d5e:	ac 01       	movw	r20, r24
    2d60:	56 95       	lsr	r21
    2d62:	47 95       	ror	r20
    2d64:	9a 01       	movw	r18, r20
    2d66:	ad ec       	ldi	r26, 0xCD	; 205
    2d68:	bc ec       	ldi	r27, 0xCC	; 204
    2d6a:	0e 94 11 21 	call	0x4222	; 0x4222 <__umulhisi3>
    2d6e:	96 95       	lsr	r25
    2d70:	87 95       	ror	r24
    2d72:	96 95       	lsr	r25
    2d74:	87 95       	ror	r24
    2d76:	96 95       	lsr	r25
    2d78:	87 95       	ror	r24
    2d7a:	88 0f       	add	r24, r24
    2d7c:	99 1f       	adc	r25, r25
    2d7e:	9c 01       	movw	r18, r24
    2d80:	22 0f       	add	r18, r18
    2d82:	33 1f       	adc	r19, r19
    2d84:	22 0f       	add	r18, r18
    2d86:	33 1f       	adc	r19, r19
    2d88:	82 0f       	add	r24, r18
    2d8a:	93 1f       	adc	r25, r19
    2d8c:	fa 01       	movw	r30, r20
    2d8e:	e8 1b       	sub	r30, r24
    2d90:	f9 0b       	sbc	r31, r25
    2d92:	cf 01       	movw	r24, r30
    2d94:	8c 83       	std	Y+4, r24	; 0x04
    zehner      = (geld / 10)   % 10;
    2d96:	8b a1       	ldd	r24, Y+35	; 0x23
    2d98:	9c a1       	ldd	r25, Y+36	; 0x24
    2d9a:	9c 01       	movw	r18, r24
    2d9c:	ad ec       	ldi	r26, 0xCD	; 205
    2d9e:	bc ec       	ldi	r27, 0xCC	; 204
    2da0:	0e 94 11 21 	call	0x4222	; 0x4222 <__umulhisi3>
    2da4:	ac 01       	movw	r20, r24
    2da6:	56 95       	lsr	r21
    2da8:	47 95       	ror	r20
    2daa:	56 95       	lsr	r21
    2dac:	47 95       	ror	r20
    2dae:	56 95       	lsr	r21
    2db0:	47 95       	ror	r20
    2db2:	9a 01       	movw	r18, r20
    2db4:	ad ec       	ldi	r26, 0xCD	; 205
    2db6:	bc ec       	ldi	r27, 0xCC	; 204
    2db8:	0e 94 11 21 	call	0x4222	; 0x4222 <__umulhisi3>
    2dbc:	96 95       	lsr	r25
    2dbe:	87 95       	ror	r24
    2dc0:	96 95       	lsr	r25
    2dc2:	87 95       	ror	r24
    2dc4:	96 95       	lsr	r25
    2dc6:	87 95       	ror	r24
    2dc8:	88 0f       	add	r24, r24
    2dca:	99 1f       	adc	r25, r25
    2dcc:	9c 01       	movw	r18, r24
    2dce:	22 0f       	add	r18, r18
    2dd0:	33 1f       	adc	r19, r19
    2dd2:	22 0f       	add	r18, r18
    2dd4:	33 1f       	adc	r19, r19
    2dd6:	82 0f       	add	r24, r18
    2dd8:	93 1f       	adc	r25, r19
    2dda:	9a 01       	movw	r18, r20
    2ddc:	28 1b       	sub	r18, r24
    2dde:	39 0b       	sbc	r19, r25
    2de0:	c9 01       	movw	r24, r18
    2de2:	8d 83       	std	Y+5, r24	; 0x05
    einer       =  geld         % 10;
    2de4:	4b a1       	ldd	r20, Y+35	; 0x23
    2de6:	5c a1       	ldd	r21, Y+36	; 0x24
    2de8:	9a 01       	movw	r18, r20
    2dea:	ad ec       	ldi	r26, 0xCD	; 205
    2dec:	bc ec       	ldi	r27, 0xCC	; 204
    2dee:	0e 94 11 21 	call	0x4222	; 0x4222 <__umulhisi3>
    2df2:	96 95       	lsr	r25
    2df4:	87 95       	ror	r24
    2df6:	96 95       	lsr	r25
    2df8:	87 95       	ror	r24
    2dfa:	96 95       	lsr	r25
    2dfc:	87 95       	ror	r24
    2dfe:	88 0f       	add	r24, r24
    2e00:	99 1f       	adc	r25, r25
    2e02:	9c 01       	movw	r18, r24
    2e04:	22 0f       	add	r18, r18
    2e06:	33 1f       	adc	r19, r19
    2e08:	22 0f       	add	r18, r18
    2e0a:	33 1f       	adc	r19, r19
    2e0c:	82 0f       	add	r24, r18
    2e0e:	93 1f       	adc	r25, r19
    2e10:	fa 01       	movw	r30, r20
    2e12:	e8 1b       	sub	r30, r24
    2e14:	f9 0b       	sbc	r31, r25
    2e16:	cf 01       	movw	r24, r30
    2e18:	8e 83       	std	Y+6, r24	; 0x06
    siebensegment[((spieler - 1) * 4)]      = ziffer[tausender];
    2e1a:	8d a1       	ldd	r24, Y+37	; 0x25
    2e1c:	88 2f       	mov	r24, r24
    2e1e:	90 e0       	ldi	r25, 0x00	; 0
    2e20:	01 97       	sbiw	r24, 0x01	; 1
    2e22:	88 0f       	add	r24, r24
    2e24:	99 1f       	adc	r25, r25
    2e26:	88 0f       	add	r24, r24
    2e28:	99 1f       	adc	r25, r25
    2e2a:	2b 81       	ldd	r18, Y+3	; 0x03
    2e2c:	22 2f       	mov	r18, r18
    2e2e:	30 e0       	ldi	r19, 0x00	; 0
    2e30:	2c 5f       	subi	r18, 0xFC	; 252
    2e32:	3d 4f       	sbci	r19, 0xFD	; 253
    2e34:	f9 01       	movw	r30, r18
    2e36:	20 81       	ld	r18, Z
    2e38:	84 51       	subi	r24, 0x14	; 20
    2e3a:	9a 4f       	sbci	r25, 0xFA	; 250
    2e3c:	fc 01       	movw	r30, r24
    2e3e:	20 83       	st	Z, r18
    siebensegment[((spieler - 1) * 4) + 1]  = ziffer[hunderter];
    2e40:	8d a1       	ldd	r24, Y+37	; 0x25
    2e42:	88 2f       	mov	r24, r24
    2e44:	90 e0       	ldi	r25, 0x00	; 0
    2e46:	01 97       	sbiw	r24, 0x01	; 1
    2e48:	88 0f       	add	r24, r24
    2e4a:	99 1f       	adc	r25, r25
    2e4c:	88 0f       	add	r24, r24
    2e4e:	99 1f       	adc	r25, r25
    2e50:	01 96       	adiw	r24, 0x01	; 1
    2e52:	2c 81       	ldd	r18, Y+4	; 0x04
    2e54:	22 2f       	mov	r18, r18
    2e56:	30 e0       	ldi	r19, 0x00	; 0
    2e58:	2c 5f       	subi	r18, 0xFC	; 252
    2e5a:	3d 4f       	sbci	r19, 0xFD	; 253
    2e5c:	f9 01       	movw	r30, r18
    2e5e:	20 81       	ld	r18, Z
    2e60:	84 51       	subi	r24, 0x14	; 20
    2e62:	9a 4f       	sbci	r25, 0xFA	; 250
    2e64:	fc 01       	movw	r30, r24
    2e66:	20 83       	st	Z, r18
    siebensegment[((spieler - 1) * 4) + 2]  = ziffer[zehner];
    2e68:	8d a1       	ldd	r24, Y+37	; 0x25
    2e6a:	88 2f       	mov	r24, r24
    2e6c:	90 e0       	ldi	r25, 0x00	; 0
    2e6e:	01 97       	sbiw	r24, 0x01	; 1
    2e70:	88 0f       	add	r24, r24
    2e72:	99 1f       	adc	r25, r25
    2e74:	88 0f       	add	r24, r24
    2e76:	99 1f       	adc	r25, r25
    2e78:	02 96       	adiw	r24, 0x02	; 2
    2e7a:	2d 81       	ldd	r18, Y+5	; 0x05
    2e7c:	22 2f       	mov	r18, r18
    2e7e:	30 e0       	ldi	r19, 0x00	; 0
    2e80:	2c 5f       	subi	r18, 0xFC	; 252
    2e82:	3d 4f       	sbci	r19, 0xFD	; 253
    2e84:	f9 01       	movw	r30, r18
    2e86:	20 81       	ld	r18, Z
    2e88:	84 51       	subi	r24, 0x14	; 20
    2e8a:	9a 4f       	sbci	r25, 0xFA	; 250
    2e8c:	fc 01       	movw	r30, r24
    2e8e:	20 83       	st	Z, r18
    siebensegment[((spieler - 1) * 4) + 3]  = ziffer[einer];
    2e90:	8d a1       	ldd	r24, Y+37	; 0x25
    2e92:	88 2f       	mov	r24, r24
    2e94:	90 e0       	ldi	r25, 0x00	; 0
    2e96:	01 97       	sbiw	r24, 0x01	; 1
    2e98:	88 0f       	add	r24, r24
    2e9a:	99 1f       	adc	r25, r25
    2e9c:	88 0f       	add	r24, r24
    2e9e:	99 1f       	adc	r25, r25
    2ea0:	03 96       	adiw	r24, 0x03	; 3
    2ea2:	2e 81       	ldd	r18, Y+6	; 0x06
    2ea4:	22 2f       	mov	r18, r18
    2ea6:	30 e0       	ldi	r19, 0x00	; 0
    2ea8:	2c 5f       	subi	r18, 0xFC	; 252
    2eaa:	3d 4f       	sbci	r19, 0xFD	; 253
    2eac:	f9 01       	movw	r30, r18
    2eae:	20 81       	ld	r18, Z
    2eb0:	84 51       	subi	r24, 0x14	; 20
    2eb2:	9a 4f       	sbci	r25, 0xFA	; 250
    2eb4:	fc 01       	movw	r30, r24
    2eb6:	20 83       	st	Z, r18
    //Ausgabe an siebensegment schieberegister
    for(uint8_t i = 0; i < 17; i = i + 1)
    2eb8:	19 82       	std	Y+1, r1	; 0x01
    2eba:	e8 c0       	rjmp	.+464    	; 0x308c <setGeld+0x3c2>
    {
        USART_Transmit(2,siebensegment[16-i]);
    2ebc:	89 81       	ldd	r24, Y+1	; 0x01
    2ebe:	88 2f       	mov	r24, r24
    2ec0:	90 e0       	ldi	r25, 0x00	; 0
    2ec2:	20 e1       	ldi	r18, 0x10	; 16
    2ec4:	30 e0       	ldi	r19, 0x00	; 0
    2ec6:	a9 01       	movw	r20, r18
    2ec8:	48 1b       	sub	r20, r24
    2eca:	59 0b       	sbc	r21, r25
    2ecc:	ca 01       	movw	r24, r20
    2ece:	84 51       	subi	r24, 0x14	; 20
    2ed0:	9a 4f       	sbci	r25, 0xFA	; 250
    2ed2:	fc 01       	movw	r30, r24
    2ed4:	80 81       	ld	r24, Z
    2ed6:	68 2f       	mov	r22, r24
    2ed8:	82 e0       	ldi	r24, 0x02	; 2
    2eda:	8b d7       	rcall	.+3862   	; 0x3df2 <USART_Transmit>
    2edc:	80 e0       	ldi	r24, 0x00	; 0
    2ede:	90 e0       	ldi	r25, 0x00	; 0
    2ee0:	aa ef       	ldi	r26, 0xFA	; 250
    2ee2:	b3 e4       	ldi	r27, 0x43	; 67
    2ee4:	8f 83       	std	Y+7, r24	; 0x07
    2ee6:	98 87       	std	Y+8, r25	; 0x08
    2ee8:	a9 87       	std	Y+9, r26	; 0x09
    2eea:	ba 87       	std	Y+10, r27	; 0x0a
	__builtin_avr_delay_cycles(__ticks_dc);

#else
	uint8_t __ticks;
	double __tmp2 ;
	__tmp = ((F_CPU) / 3e6) * __us;
    2eec:	2b ea       	ldi	r18, 0xAB	; 171
    2eee:	3a ea       	ldi	r19, 0xAA	; 170
    2ef0:	4a ea       	ldi	r20, 0xAA	; 170
    2ef2:	50 e4       	ldi	r21, 0x40	; 64
    2ef4:	6f 81       	ldd	r22, Y+7	; 0x07
    2ef6:	78 85       	ldd	r23, Y+8	; 0x08
    2ef8:	89 85       	ldd	r24, Y+9	; 0x09
    2efa:	9a 85       	ldd	r25, Y+10	; 0x0a
    2efc:	0e 94 93 20 	call	0x4126	; 0x4126 <__mulsf3>
    2f00:	dc 01       	movw	r26, r24
    2f02:	cb 01       	movw	r24, r22
    2f04:	8b 87       	std	Y+11, r24	; 0x0b
    2f06:	9c 87       	std	Y+12, r25	; 0x0c
    2f08:	ad 87       	std	Y+13, r26	; 0x0d
    2f0a:	be 87       	std	Y+14, r27	; 0x0e
	__tmp2 = ((F_CPU) / 4e6) * __us;
    2f0c:	20 e0       	ldi	r18, 0x00	; 0
    2f0e:	30 e0       	ldi	r19, 0x00	; 0
    2f10:	40 e8       	ldi	r20, 0x80	; 128
    2f12:	50 e4       	ldi	r21, 0x40	; 64
    2f14:	6f 81       	ldd	r22, Y+7	; 0x07
    2f16:	78 85       	ldd	r23, Y+8	; 0x08
    2f18:	89 85       	ldd	r24, Y+9	; 0x09
    2f1a:	9a 85       	ldd	r25, Y+10	; 0x0a
    2f1c:	0e 94 93 20 	call	0x4126	; 0x4126 <__mulsf3>
    2f20:	dc 01       	movw	r26, r24
    2f22:	cb 01       	movw	r24, r22
    2f24:	8f 87       	std	Y+15, r24	; 0x0f
    2f26:	98 8b       	std	Y+16, r25	; 0x10
    2f28:	a9 8b       	std	Y+17, r26	; 0x11
    2f2a:	ba 8b       	std	Y+18, r27	; 0x12
	if (__tmp < 1.0)
    2f2c:	20 e0       	ldi	r18, 0x00	; 0
    2f2e:	30 e0       	ldi	r19, 0x00	; 0
    2f30:	40 e8       	ldi	r20, 0x80	; 128
    2f32:	5f e3       	ldi	r21, 0x3F	; 63
    2f34:	6b 85       	ldd	r22, Y+11	; 0x0b
    2f36:	7c 85       	ldd	r23, Y+12	; 0x0c
    2f38:	8d 85       	ldd	r24, Y+13	; 0x0d
    2f3a:	9e 85       	ldd	r25, Y+14	; 0x0e
    2f3c:	a6 d7       	rcall	.+3916   	; 0x3e8a <__cmpsf2>
    2f3e:	88 23       	and	r24, r24
    2f40:	0c f4       	brge	.+2      	; 0x2f44 <setGeld+0x27a>
    2f42:	9b c0       	rjmp	.+310    	; 0x307a <setGeld+0x3b0>
		__ticks = 1;
	else if (__tmp2 > 65535)
    2f44:	20 e0       	ldi	r18, 0x00	; 0
    2f46:	3f ef       	ldi	r19, 0xFF	; 255
    2f48:	4f e7       	ldi	r20, 0x7F	; 127
    2f4a:	57 e4       	ldi	r21, 0x47	; 71
    2f4c:	6f 85       	ldd	r22, Y+15	; 0x0f
    2f4e:	78 89       	ldd	r23, Y+16	; 0x10
    2f50:	89 89       	ldd	r24, Y+17	; 0x11
    2f52:	9a 89       	ldd	r25, Y+18	; 0x12
    2f54:	0e 94 8f 20 	call	0x411e	; 0x411e <__gesf2>
    2f58:	18 16       	cp	r1, r24
    2f5a:	0c f0       	brlt	.+2      	; 0x2f5e <setGeld+0x294>
    2f5c:	69 c0       	rjmp	.+210    	; 0x3030 <setGeld+0x366>
	{
		_delay_ms(__us / 1000.0);
    2f5e:	20 e0       	ldi	r18, 0x00	; 0
    2f60:	30 e0       	ldi	r19, 0x00	; 0
    2f62:	4a e7       	ldi	r20, 0x7A	; 122
    2f64:	54 e4       	ldi	r21, 0x44	; 68
    2f66:	6f 81       	ldd	r22, Y+7	; 0x07
    2f68:	78 85       	ldd	r23, Y+8	; 0x08
    2f6a:	89 85       	ldd	r24, Y+9	; 0x09
    2f6c:	9a 85       	ldd	r25, Y+10	; 0x0a
    2f6e:	91 d7       	rcall	.+3874   	; 0x3e92 <__divsf3>
    2f70:	dc 01       	movw	r26, r24
    2f72:	cb 01       	movw	r24, r22
    2f74:	6c 01       	movw	r12, r24
    2f76:	7d 01       	movw	r14, r26

	__builtin_avr_delay_cycles(__ticks_dc);

#else
	uint16_t __ticks;
	__tmp = ((F_CPU) / 4e3) * __ms;
    2f78:	20 e0       	ldi	r18, 0x00	; 0
    2f7a:	30 e0       	ldi	r19, 0x00	; 0
    2f7c:	4a e7       	ldi	r20, 0x7A	; 122
    2f7e:	55 e4       	ldi	r21, 0x45	; 69
    2f80:	c7 01       	movw	r24, r14
    2f82:	b6 01       	movw	r22, r12
    2f84:	0e 94 93 20 	call	0x4126	; 0x4126 <__mulsf3>
    2f88:	dc 01       	movw	r26, r24
    2f8a:	cb 01       	movw	r24, r22
    2f8c:	8b 8b       	std	Y+19, r24	; 0x13
    2f8e:	9c 8b       	std	Y+20, r25	; 0x14
    2f90:	ad 8b       	std	Y+21, r26	; 0x15
    2f92:	be 8b       	std	Y+22, r27	; 0x16
	if (__tmp < 1.0)
    2f94:	20 e0       	ldi	r18, 0x00	; 0
    2f96:	30 e0       	ldi	r19, 0x00	; 0
    2f98:	40 e8       	ldi	r20, 0x80	; 128
    2f9a:	5f e3       	ldi	r21, 0x3F	; 63
    2f9c:	6b 89       	ldd	r22, Y+19	; 0x13
    2f9e:	7c 89       	ldd	r23, Y+20	; 0x14
    2fa0:	8d 89       	ldd	r24, Y+21	; 0x15
    2fa2:	9e 89       	ldd	r25, Y+22	; 0x16
    2fa4:	72 d7       	rcall	.+3812   	; 0x3e8a <__cmpsf2>
    2fa6:	88 23       	and	r24, r24
    2fa8:	c4 f1       	brlt	.+112    	; 0x301a <setGeld+0x350>
		__ticks = 1;
	else if (__tmp > 65535)
    2faa:	20 e0       	ldi	r18, 0x00	; 0
    2fac:	3f ef       	ldi	r19, 0xFF	; 255
    2fae:	4f e7       	ldi	r20, 0x7F	; 127
    2fb0:	57 e4       	ldi	r21, 0x47	; 71
    2fb2:	6b 89       	ldd	r22, Y+19	; 0x13
    2fb4:	7c 89       	ldd	r23, Y+20	; 0x14
    2fb6:	8d 89       	ldd	r24, Y+21	; 0x15
    2fb8:	9e 89       	ldd	r25, Y+22	; 0x16
    2fba:	0e 94 8f 20 	call	0x411e	; 0x411e <__gesf2>
    2fbe:	18 16       	cp	r1, r24
    2fc0:	14 f5       	brge	.+68     	; 0x3006 <setGeld+0x33c>
	{
		//	__ticks = requested delay in 1/10 ms
		__ticks = (uint16_t) (__ms * 10.0);
    2fc2:	20 e0       	ldi	r18, 0x00	; 0
    2fc4:	30 e0       	ldi	r19, 0x00	; 0
    2fc6:	40 e2       	ldi	r20, 0x20	; 32
    2fc8:	51 e4       	ldi	r21, 0x41	; 65
    2fca:	c7 01       	movw	r24, r14
    2fcc:	b6 01       	movw	r22, r12
    2fce:	0e 94 93 20 	call	0x4126	; 0x4126 <__mulsf3>
    2fd2:	dc 01       	movw	r26, r24
    2fd4:	cb 01       	movw	r24, r22
    2fd6:	bc 01       	movw	r22, r24
    2fd8:	cd 01       	movw	r24, r26
    2fda:	c3 d7       	rcall	.+3974   	; 0x3f62 <__fixunssfsi>
    2fdc:	dc 01       	movw	r26, r24
    2fde:	cb 01       	movw	r24, r22
    2fe0:	98 8f       	std	Y+24, r25	; 0x18
    2fe2:	8f 8b       	std	Y+23, r24	; 0x17
    2fe4:	0b c0       	rjmp	.+22     	; 0x2ffc <setGeld+0x332>
    milliseconds can be achieved.
 */
void
_delay_loop_2(uint16_t __count)
{
	__asm__ volatile (
    2fe6:	80 e9       	ldi	r24, 0x90	; 144
    2fe8:	91 e0       	ldi	r25, 0x01	; 1
    2fea:	01 97       	sbiw	r24, 0x01	; 1
    2fec:	f1 f7       	brne	.-4      	; 0x2fea <setGeld+0x320>
    2fee:	9a 8f       	std	Y+26, r25	; 0x1a
    2ff0:	89 8f       	std	Y+25, r24	; 0x19
		while(__ticks)
		{
			// wait 1/10 ms
			_delay_loop_2(((F_CPU) / 4e3) / 10);
			__ticks --;
    2ff2:	8f 89       	ldd	r24, Y+23	; 0x17
    2ff4:	98 8d       	ldd	r25, Y+24	; 0x18
    2ff6:	01 97       	sbiw	r24, 0x01	; 1
    2ff8:	98 8f       	std	Y+24, r25	; 0x18
    2ffa:	8f 8b       	std	Y+23, r24	; 0x17
		__ticks = 1;
	else if (__tmp > 65535)
	{
		//	__ticks = requested delay in 1/10 ms
		__ticks = (uint16_t) (__ms * 10.0);
		while(__ticks)
    2ffc:	8f 89       	ldd	r24, Y+23	; 0x17
    2ffe:	98 8d       	ldd	r25, Y+24	; 0x18
    3000:	89 2b       	or	r24, r25
    3002:	89 f7       	brne	.-30     	; 0x2fe6 <setGeld+0x31c>
			__ticks --;
		}
		return;
	}
	else
		__ticks = (uint16_t)__tmp;
    3004:	3c c0       	rjmp	.+120    	; 0x307e <setGeld+0x3b4>
    3006:	6b 89       	ldd	r22, Y+19	; 0x13
    3008:	7c 89       	ldd	r23, Y+20	; 0x14
    300a:	8d 89       	ldd	r24, Y+21	; 0x15
    300c:	9e 89       	ldd	r25, Y+22	; 0x16
    300e:	a9 d7       	rcall	.+3922   	; 0x3f62 <__fixunssfsi>
    3010:	dc 01       	movw	r26, r24
    3012:	cb 01       	movw	r24, r22
    3014:	98 8f       	std	Y+24, r25	; 0x18
    3016:	8f 8b       	std	Y+23, r24	; 0x17
    3018:	04 c0       	rjmp	.+8      	; 0x3022 <setGeld+0x358>

#else
	uint16_t __ticks;
	__tmp = ((F_CPU) / 4e3) * __ms;
	if (__tmp < 1.0)
		__ticks = 1;
    301a:	81 e0       	ldi	r24, 0x01	; 1
    301c:	90 e0       	ldi	r25, 0x00	; 0
    301e:	98 8f       	std	Y+24, r25	; 0x18
    3020:	8f 8b       	std	Y+23, r24	; 0x17
    3022:	8f 89       	ldd	r24, Y+23	; 0x17
    3024:	98 8d       	ldd	r25, Y+24	; 0x18
    3026:	01 97       	sbiw	r24, 0x01	; 1
    3028:	f1 f7       	brne	.-4      	; 0x3026 <setGeld+0x35c>
    302a:	9c 8f       	std	Y+28, r25	; 0x1c
    302c:	8b 8f       	std	Y+27, r24	; 0x1b
    302e:	27 c0       	rjmp	.+78     	; 0x307e <setGeld+0x3b4>
		__ticks = 1;
	else if (__tmp2 > 65535)
	{
		_delay_ms(__us / 1000.0);
	}
	else if (__tmp > 255)
    3030:	20 e0       	ldi	r18, 0x00	; 0
    3032:	30 e0       	ldi	r19, 0x00	; 0
    3034:	4f e7       	ldi	r20, 0x7F	; 127
    3036:	53 e4       	ldi	r21, 0x43	; 67
    3038:	6b 85       	ldd	r22, Y+11	; 0x0b
    303a:	7c 85       	ldd	r23, Y+12	; 0x0c
    303c:	8d 85       	ldd	r24, Y+13	; 0x0d
    303e:	9e 85       	ldd	r25, Y+14	; 0x0e
    3040:	0e 94 8f 20 	call	0x411e	; 0x411e <__gesf2>
    3044:	18 16       	cp	r1, r24
    3046:	84 f4       	brge	.+32     	; 0x3068 <setGeld+0x39e>
	{
		uint16_t __ticks=(uint16_t)__tmp2;
    3048:	6f 85       	ldd	r22, Y+15	; 0x0f
    304a:	78 89       	ldd	r23, Y+16	; 0x10
    304c:	89 89       	ldd	r24, Y+17	; 0x11
    304e:	9a 89       	ldd	r25, Y+18	; 0x12
    3050:	88 d7       	rcall	.+3856   	; 0x3f62 <__fixunssfsi>
    3052:	dc 01       	movw	r26, r24
    3054:	cb 01       	movw	r24, r22
    3056:	9e 8f       	std	Y+30, r25	; 0x1e
    3058:	8d 8f       	std	Y+29, r24	; 0x1d
    305a:	8d 8d       	ldd	r24, Y+29	; 0x1d
    305c:	9e 8d       	ldd	r25, Y+30	; 0x1e
    305e:	01 97       	sbiw	r24, 0x01	; 1
    3060:	f1 f7       	brne	.-4      	; 0x305e <setGeld+0x394>
    3062:	98 a3       	std	Y+32, r25	; 0x20
    3064:	8f 8f       	std	Y+31, r24	; 0x1f
		_delay_loop_2(__ticks);
		return;
	}
	else
		__ticks = (uint8_t)__tmp;
    3066:	0f c0       	rjmp	.+30     	; 0x3086 <setGeld+0x3bc>
    3068:	6b 85       	ldd	r22, Y+11	; 0x0b
    306a:	7c 85       	ldd	r23, Y+12	; 0x0c
    306c:	8d 85       	ldd	r24, Y+13	; 0x0d
    306e:	9e 85       	ldd	r25, Y+14	; 0x0e
    3070:	78 d7       	rcall	.+3824   	; 0x3f62 <__fixunssfsi>
    3072:	dc 01       	movw	r26, r24
    3074:	cb 01       	movw	r24, r22
    3076:	89 a3       	std	Y+33, r24	; 0x21
    3078:	02 c0       	rjmp	.+4      	; 0x307e <setGeld+0x3b4>
	uint8_t __ticks;
	double __tmp2 ;
	__tmp = ((F_CPU) / 3e6) * __us;
	__tmp2 = ((F_CPU) / 4e6) * __us;
	if (__tmp < 1.0)
		__ticks = 1;
    307a:	81 e0       	ldi	r24, 0x01	; 1
    307c:	89 a3       	std	Y+33, r24	; 0x21
    can be achieved.
*/
void
_delay_loop_1(uint8_t __count)
{
	__asm__ volatile (
    307e:	89 a1       	ldd	r24, Y+33	; 0x21
    3080:	8a 95       	dec	r24
    3082:	f1 f7       	brne	.-4      	; 0x3080 <setGeld+0x3b6>
    3084:	8a a3       	std	Y+34, r24	; 0x22
    siebensegment[((spieler - 1) * 4)]      = ziffer[tausender];
    siebensegment[((spieler - 1) * 4) + 1]  = ziffer[hunderter];
    siebensegment[((spieler - 1) * 4) + 2]  = ziffer[zehner];
    siebensegment[((spieler - 1) * 4) + 3]  = ziffer[einer];
    //Ausgabe an siebensegment schieberegister
    for(uint8_t i = 0; i < 17; i = i + 1)
    3086:	89 81       	ldd	r24, Y+1	; 0x01
    3088:	8f 5f       	subi	r24, 0xFF	; 255
    308a:	89 83       	std	Y+1, r24	; 0x01
    308c:	89 81       	ldd	r24, Y+1	; 0x01
    308e:	81 31       	cpi	r24, 0x11	; 17
    3090:	08 f4       	brcc	.+2      	; 0x3094 <setGeld+0x3ca>
    3092:	14 cf       	rjmp	.-472    	; 0x2ebc <setGeld+0x1f2>
    {
        USART_Transmit(2,siebensegment[16-i]);
        _delay_us(500);
    }
    //latch
    PORTH = PORTH | 0x08;
    3094:	82 e0       	ldi	r24, 0x02	; 2
    3096:	91 e0       	ldi	r25, 0x01	; 1
    3098:	22 e0       	ldi	r18, 0x02	; 2
    309a:	31 e0       	ldi	r19, 0x01	; 1
    309c:	f9 01       	movw	r30, r18
    309e:	20 81       	ld	r18, Z
    30a0:	28 60       	ori	r18, 0x08	; 8
    30a2:	fc 01       	movw	r30, r24
    30a4:	20 83       	st	Z, r18
    PORTH = PORTH & ~0x08;
    30a6:	82 e0       	ldi	r24, 0x02	; 2
    30a8:	91 e0       	ldi	r25, 0x01	; 1
    30aa:	22 e0       	ldi	r18, 0x02	; 2
    30ac:	31 e0       	ldi	r19, 0x01	; 1
    30ae:	f9 01       	movw	r30, r18
    30b0:	20 81       	ld	r18, Z
    30b2:	27 7f       	andi	r18, 0xF7	; 247
    30b4:	fc 01       	movw	r30, r24
    30b6:	20 83       	st	Z, r18
    
    
}
    30b8:	00 00       	nop
    30ba:	a5 96       	adiw	r28, 0x25	; 37
    30bc:	0f b6       	in	r0, 0x3f	; 63
    30be:	f8 94       	cli
    30c0:	de bf       	out	0x3e, r29	; 62
    30c2:	0f be       	out	0x3f, r0	; 63
    30c4:	cd bf       	out	0x3d, r28	; 61
    30c6:	df 91       	pop	r29
    30c8:	cf 91       	pop	r28
    30ca:	ff 90       	pop	r15
    30cc:	ef 90       	pop	r14
    30ce:	df 90       	pop	r13
    30d0:	cf 90       	pop	r12
    30d2:	08 95       	ret

000030d4 <wuerfel>:


uint8_t wuerfel(void)
{
    30d4:	cf 93       	push	r28
    30d6:	df 93       	push	r29
    30d8:	1f 92       	push	r1
    30da:	cd b7       	in	r28, 0x3d	; 61
    30dc:	de b7       	in	r29, 0x3e	; 62
    uint8_t zufallszahl = 0;
    30de:	19 82       	std	Y+1, r1	; 0x01
    //srand(zufallszahl);
    zufallszahl = (rand() % 6) + 1;
    30e0:	0e 94 7b 21 	call	0x42f6	; 0x42f6 <rand>
    30e4:	26 e0       	ldi	r18, 0x06	; 6
    30e6:	30 e0       	ldi	r19, 0x00	; 0
    30e8:	b9 01       	movw	r22, r18
    30ea:	0e 94 f6 20 	call	0x41ec	; 0x41ec <__divmodhi4>
    30ee:	8f 5f       	subi	r24, 0xFF	; 255
    30f0:	89 83       	std	Y+1, r24	; 0x01
    return zufallszahl;
    30f2:	89 81       	ldd	r24, Y+1	; 0x01
}
    30f4:	0f 90       	pop	r0
    30f6:	df 91       	pop	r29
    30f8:	cf 91       	pop	r28
    30fa:	08 95       	ret

000030fc <sibensegmentWuerfel>:

uint8_t sibensegmentWuerfel(void)
{
    30fc:	cf 92       	push	r12
    30fe:	df 92       	push	r13
    3100:	ef 92       	push	r14
    3102:	ff 92       	push	r15
    3104:	0f 93       	push	r16
    3106:	1f 93       	push	r17
    3108:	cf 93       	push	r28
    310a:	df 93       	push	r29
    310c:	cd b7       	in	r28, 0x3d	; 61
    310e:	de b7       	in	r29, 0x3e	; 62
    3110:	c1 59       	subi	r28, 0x91	; 145
    3112:	d1 09       	sbc	r29, r1
    3114:	0f b6       	in	r0, 0x3f	; 63
    3116:	f8 94       	cli
    3118:	de bf       	out	0x3e, r29	; 62
    311a:	0f be       	out	0x3f, r0	; 63
    311c:	cd bf       	out	0x3d, r28	; 61
    
    char buffer[16];
    uint8_t zufallszahl1, zufallszahl2 = 0;
    311e:	1a 82       	std	Y+2, r1	; 0x02
    for(uint8_t i = 0; i < 50; i = i + 1)
    3120:	19 82       	std	Y+1, r1	; 0x01
    3122:	e3 c2       	rjmp	.+1478   	; 0x36ea <sibensegmentWuerfel+0x5ee>
    {
        zufallszahl1 = wuerfel();
    3124:	d7 df       	rcall	.-82     	; 0x30d4 <wuerfel>
    3126:	8b 83       	std	Y+3, r24	; 0x03
        zufallszahl2 = wuerfel();
    3128:	d5 df       	rcall	.-86     	; 0x30d4 <wuerfel>
    312a:	8a 83       	std	Y+2, r24	; 0x02
    312c:	8b 81       	ldd	r24, Y+3	; 0x03
        sprintf(buffer,"%u",zufallszahl1);
    312e:	88 2f       	mov	r24, r24
    3130:	90 e0       	ldi	r25, 0x00	; 0
    3132:	29 2f       	mov	r18, r25
    3134:	2f 93       	push	r18
    3136:	8f 93       	push	r24
    3138:	85 ec       	ldi	r24, 0xC5	; 197
    313a:	94 e0       	ldi	r25, 0x04	; 4
    313c:	89 2f       	mov	r24, r25
    313e:	8f 93       	push	r24
    3140:	85 ec       	ldi	r24, 0xC5	; 197
    3142:	94 e0       	ldi	r25, 0x04	; 4
    3144:	8f 93       	push	r24
    3146:	ce 01       	movw	r24, r28
    3148:	8e 57       	subi	r24, 0x7E	; 126
    314a:	9f 4f       	sbci	r25, 0xFF	; 255
    314c:	29 2f       	mov	r18, r25
    314e:	2f 93       	push	r18
    3150:	8f 93       	push	r24
    3152:	0e 94 89 21 	call	0x4312	; 0x4312 <sprintf>
    3156:	0f 90       	pop	r0
    3158:	0f 90       	pop	r0
    315a:	0f 90       	pop	r0
    315c:	0f 90       	pop	r0
    315e:	0f 90       	pop	r0
    3160:	0f 90       	pop	r0
    3162:	ce 01       	movw	r24, r28
        writeText(0,9,buffer);
    3164:	8e 57       	subi	r24, 0x7E	; 126
    3166:	9f 4f       	sbci	r25, 0xFF	; 255
    3168:	ac 01       	movw	r20, r24
    316a:	69 e0       	ldi	r22, 0x09	; 9
    316c:	70 e0       	ldi	r23, 0x00	; 0
    316e:	80 e0       	ldi	r24, 0x00	; 0
    3170:	90 e0       	ldi	r25, 0x00	; 0
    3172:	0e 94 1e 01 	call	0x23c	; 0x23c <writeText>
    3176:	8a 81       	ldd	r24, Y+2	; 0x02
        sprintf(buffer,"%u",zufallszahl2);
    3178:	88 2f       	mov	r24, r24
    317a:	90 e0       	ldi	r25, 0x00	; 0
    317c:	29 2f       	mov	r18, r25
    317e:	2f 93       	push	r18
    3180:	8f 93       	push	r24
    3182:	85 ec       	ldi	r24, 0xC5	; 197
    3184:	94 e0       	ldi	r25, 0x04	; 4
    3186:	89 2f       	mov	r24, r25
    3188:	8f 93       	push	r24
    318a:	85 ec       	ldi	r24, 0xC5	; 197
    318c:	94 e0       	ldi	r25, 0x04	; 4
    318e:	8f 93       	push	r24
    3190:	ce 01       	movw	r24, r28
    3192:	8e 57       	subi	r24, 0x7E	; 126
    3194:	9f 4f       	sbci	r25, 0xFF	; 255
    3196:	29 2f       	mov	r18, r25
    3198:	2f 93       	push	r18
    319a:	8f 93       	push	r24
    319c:	0e 94 89 21 	call	0x4312	; 0x4312 <sprintf>
    31a0:	0f 90       	pop	r0
    31a2:	0f 90       	pop	r0
    31a4:	0f 90       	pop	r0
    31a6:	0f 90       	pop	r0
    31a8:	0f 90       	pop	r0
    31aa:	0f 90       	pop	r0
    31ac:	ce 01       	movw	r24, r28
        writeText(1,9,buffer);
    31ae:	8e 57       	subi	r24, 0x7E	; 126
    31b0:	9f 4f       	sbci	r25, 0xFF	; 255
    31b2:	ac 01       	movw	r20, r24
    31b4:	69 e0       	ldi	r22, 0x09	; 9
    31b6:	70 e0       	ldi	r23, 0x00	; 0
    31b8:	81 e0       	ldi	r24, 0x01	; 1
    31ba:	90 e0       	ldi	r25, 0x00	; 0
    31bc:	0e 94 1e 01 	call	0x23c	; 0x23c <writeText>
    31c0:	8a 81       	ldd	r24, Y+2	; 0x02
        USART_Transmit(3,ziffer[zufallszahl2]);
    31c2:	88 2f       	mov	r24, r24
    31c4:	90 e0       	ldi	r25, 0x00	; 0
    31c6:	8c 5f       	subi	r24, 0xFC	; 252
    31c8:	9d 4f       	sbci	r25, 0xFD	; 253
    31ca:	fc 01       	movw	r30, r24
    31cc:	80 81       	ld	r24, Z
    31ce:	68 2f       	mov	r22, r24
    31d0:	83 e0       	ldi	r24, 0x03	; 3
    31d2:	0f d6       	rcall	.+3102   	; 0x3df2 <USART_Transmit>
    31d4:	80 e0       	ldi	r24, 0x00	; 0
    31d6:	90 e0       	ldi	r25, 0x00	; 0
    31d8:	aa ef       	ldi	r26, 0xFA	; 250
    31da:	b3 e4       	ldi	r27, 0x43	; 67
    31dc:	88 87       	std	Y+8, r24	; 0x08
    31de:	99 87       	std	Y+9, r25	; 0x09
    31e0:	aa 87       	std	Y+10, r26	; 0x0a
    31e2:	bb 87       	std	Y+11, r27	; 0x0b
    31e4:	2b ea       	ldi	r18, 0xAB	; 171
	__builtin_avr_delay_cycles(__ticks_dc);

#else
	uint8_t __ticks;
	double __tmp2 ;
	__tmp = ((F_CPU) / 3e6) * __us;
    31e6:	3a ea       	ldi	r19, 0xAA	; 170
    31e8:	4a ea       	ldi	r20, 0xAA	; 170
    31ea:	50 e4       	ldi	r21, 0x40	; 64
    31ec:	68 85       	ldd	r22, Y+8	; 0x08
    31ee:	79 85       	ldd	r23, Y+9	; 0x09
    31f0:	8a 85       	ldd	r24, Y+10	; 0x0a
    31f2:	9b 85       	ldd	r25, Y+11	; 0x0b
    31f4:	98 d7       	rcall	.+3888   	; 0x4126 <__mulsf3>
    31f6:	dc 01       	movw	r26, r24
    31f8:	cb 01       	movw	r24, r22
    31fa:	8a af       	std	Y+58, r24	; 0x3a
    31fc:	9b af       	std	Y+59, r25	; 0x3b
    31fe:	ac af       	std	Y+60, r26	; 0x3c
    3200:	bd af       	std	Y+61, r27	; 0x3d
    3202:	8e 01       	movw	r16, r28
	__tmp2 = ((F_CPU) / 4e6) * __us;
    3204:	02 5c       	subi	r16, 0xC2	; 194
    3206:	1f 4f       	sbci	r17, 0xFF	; 255
    3208:	20 e0       	ldi	r18, 0x00	; 0
    320a:	30 e0       	ldi	r19, 0x00	; 0
    320c:	40 e8       	ldi	r20, 0x80	; 128
    320e:	50 e4       	ldi	r21, 0x40	; 64
    3210:	68 85       	ldd	r22, Y+8	; 0x08
    3212:	79 85       	ldd	r23, Y+9	; 0x09
    3214:	8a 85       	ldd	r24, Y+10	; 0x0a
    3216:	9b 85       	ldd	r25, Y+11	; 0x0b
    3218:	86 d7       	rcall	.+3852   	; 0x4126 <__mulsf3>
    321a:	dc 01       	movw	r26, r24
    321c:	cb 01       	movw	r24, r22
    321e:	f8 01       	movw	r30, r16
    3220:	80 83       	st	Z, r24
    3222:	91 83       	std	Z+1, r25	; 0x01
    3224:	a2 83       	std	Z+2, r26	; 0x02
    3226:	b3 83       	std	Z+3, r27	; 0x03
    3228:	20 e0       	ldi	r18, 0x00	; 0
	if (__tmp < 1.0)
    322a:	30 e0       	ldi	r19, 0x00	; 0
    322c:	40 e8       	ldi	r20, 0x80	; 128
    322e:	5f e3       	ldi	r21, 0x3F	; 63
    3230:	6a ad       	ldd	r22, Y+58	; 0x3a
    3232:	7b ad       	ldd	r23, Y+59	; 0x3b
    3234:	8c ad       	ldd	r24, Y+60	; 0x3c
    3236:	9d ad       	ldd	r25, Y+61	; 0x3d
    3238:	28 d6       	rcall	.+3152   	; 0x3e8a <__cmpsf2>
    323a:	88 23       	and	r24, r24
    323c:	0c f4       	brge	.+2      	; 0x3240 <sibensegmentWuerfel+0x144>
    323e:	e2 c0       	rjmp	.+452    	; 0x3404 <sibensegmentWuerfel+0x308>
    3240:	ce 01       	movw	r24, r28
		__ticks = 1;
	else if (__tmp2 > 65535)
    3242:	ce 96       	adiw	r24, 0x3e	; 62
    3244:	20 e0       	ldi	r18, 0x00	; 0
    3246:	3f ef       	ldi	r19, 0xFF	; 255
    3248:	4f e7       	ldi	r20, 0x7F	; 127
    324a:	57 e4       	ldi	r21, 0x47	; 71
    324c:	fc 01       	movw	r30, r24
    324e:	60 81       	ld	r22, Z
    3250:	71 81       	ldd	r23, Z+1	; 0x01
    3252:	82 81       	ldd	r24, Z+2	; 0x02
    3254:	93 81       	ldd	r25, Z+3	; 0x03
    3256:	63 d7       	rcall	.+3782   	; 0x411e <__gesf2>
    3258:	18 16       	cp	r1, r24
    325a:	0c f0       	brlt	.+2      	; 0x325e <sibensegmentWuerfel+0x162>
    325c:	9c c0       	rjmp	.+312    	; 0x3396 <sibensegmentWuerfel+0x29a>
    325e:	20 e0       	ldi	r18, 0x00	; 0
	{
		_delay_ms(__us / 1000.0);
    3260:	30 e0       	ldi	r19, 0x00	; 0
    3262:	4a e7       	ldi	r20, 0x7A	; 122
    3264:	54 e4       	ldi	r21, 0x44	; 68
    3266:	68 85       	ldd	r22, Y+8	; 0x08
    3268:	79 85       	ldd	r23, Y+9	; 0x09
    326a:	8a 85       	ldd	r24, Y+10	; 0x0a
    326c:	9b 85       	ldd	r25, Y+11	; 0x0b
    326e:	11 d6       	rcall	.+3106   	; 0x3e92 <__divsf3>
    3270:	dc 01       	movw	r26, r24
    3272:	cb 01       	movw	r24, r22
    3274:	6c 01       	movw	r12, r24
    3276:	7d 01       	movw	r14, r26
    3278:	8e 01       	movw	r16, r28

	__builtin_avr_delay_cycles(__ticks_dc);

#else
	uint16_t __ticks;
	__tmp = ((F_CPU) / 4e3) * __ms;
    327a:	0e 5b       	subi	r16, 0xBE	; 190
    327c:	1f 4f       	sbci	r17, 0xFF	; 255
    327e:	20 e0       	ldi	r18, 0x00	; 0
    3280:	30 e0       	ldi	r19, 0x00	; 0
    3282:	4a e7       	ldi	r20, 0x7A	; 122
    3284:	55 e4       	ldi	r21, 0x45	; 69
    3286:	c7 01       	movw	r24, r14
    3288:	b6 01       	movw	r22, r12
    328a:	4d d7       	rcall	.+3738   	; 0x4126 <__mulsf3>
    328c:	dc 01       	movw	r26, r24
    328e:	cb 01       	movw	r24, r22
    3290:	f8 01       	movw	r30, r16
    3292:	80 83       	st	Z, r24
    3294:	91 83       	std	Z+1, r25	; 0x01
    3296:	a2 83       	std	Z+2, r26	; 0x02
    3298:	b3 83       	std	Z+3, r27	; 0x03
    329a:	ce 01       	movw	r24, r28
	if (__tmp < 1.0)
    329c:	8e 5b       	subi	r24, 0xBE	; 190
    329e:	9f 4f       	sbci	r25, 0xFF	; 255
    32a0:	20 e0       	ldi	r18, 0x00	; 0
    32a2:	30 e0       	ldi	r19, 0x00	; 0
    32a4:	40 e8       	ldi	r20, 0x80	; 128
    32a6:	5f e3       	ldi	r21, 0x3F	; 63
    32a8:	fc 01       	movw	r30, r24
    32aa:	60 81       	ld	r22, Z
    32ac:	71 81       	ldd	r23, Z+1	; 0x01
    32ae:	82 81       	ldd	r24, Z+2	; 0x02
    32b0:	93 81       	ldd	r25, Z+3	; 0x03
    32b2:	eb d5       	rcall	.+3030   	; 0x3e8a <__cmpsf2>
    32b4:	88 23       	and	r24, r24
    32b6:	0c f4       	brge	.+2      	; 0x32ba <sibensegmentWuerfel+0x1be>
    32b8:	57 c0       	rjmp	.+174    	; 0x3368 <sibensegmentWuerfel+0x26c>
    32ba:	ce 01       	movw	r24, r28
		__ticks = 1;
	else if (__tmp > 65535)
    32bc:	8e 5b       	subi	r24, 0xBE	; 190
    32be:	9f 4f       	sbci	r25, 0xFF	; 255
    32c0:	20 e0       	ldi	r18, 0x00	; 0
    32c2:	3f ef       	ldi	r19, 0xFF	; 255
    32c4:	4f e7       	ldi	r20, 0x7F	; 127
    32c6:	57 e4       	ldi	r21, 0x47	; 71
    32c8:	fc 01       	movw	r30, r24
    32ca:	60 81       	ld	r22, Z
    32cc:	71 81       	ldd	r23, Z+1	; 0x01
    32ce:	82 81       	ldd	r24, Z+2	; 0x02
    32d0:	93 81       	ldd	r25, Z+3	; 0x03
    32d2:	25 d7       	rcall	.+3658   	; 0x411e <__gesf2>
    32d4:	18 16       	cp	r1, r24
    32d6:	b4 f5       	brge	.+108    	; 0x3344 <sibensegmentWuerfel+0x248>
	{
		//	__ticks = requested delay in 1/10 ms
		__ticks = (uint16_t) (__ms * 10.0);
    32d8:	20 e0       	ldi	r18, 0x00	; 0
    32da:	30 e0       	ldi	r19, 0x00	; 0
    32dc:	40 e2       	ldi	r20, 0x20	; 32
    32de:	51 e4       	ldi	r21, 0x41	; 65
    32e0:	c7 01       	movw	r24, r14
    32e2:	b6 01       	movw	r22, r12
    32e4:	20 d7       	rcall	.+3648   	; 0x4126 <__mulsf3>
    32e6:	dc 01       	movw	r26, r24
    32e8:	cb 01       	movw	r24, r22
    32ea:	8e 01       	movw	r16, r28
    32ec:	0a 5b       	subi	r16, 0xBA	; 186
    32ee:	1f 4f       	sbci	r17, 0xFF	; 255
    32f0:	bc 01       	movw	r22, r24
    32f2:	cd 01       	movw	r24, r26
    32f4:	36 d6       	rcall	.+3180   	; 0x3f62 <__fixunssfsi>
    32f6:	dc 01       	movw	r26, r24
    32f8:	cb 01       	movw	r24, r22
    32fa:	f8 01       	movw	r30, r16
    32fc:	91 83       	std	Z+1, r25	; 0x01
    32fe:	80 83       	st	Z, r24
    3300:	18 c0       	rjmp	.+48     	; 0x3332 <sibensegmentWuerfel+0x236>
    3302:	80 e9       	ldi	r24, 0x90	; 144
    milliseconds can be achieved.
 */
void
_delay_loop_2(uint16_t __count)
{
	__asm__ volatile (
    3304:	91 e0       	ldi	r25, 0x01	; 1
    3306:	01 97       	sbiw	r24, 0x01	; 1
    3308:	f1 f7       	brne	.-4      	; 0x3306 <sibensegmentWuerfel+0x20a>
    330a:	9e 01       	movw	r18, r28
    330c:	28 5b       	subi	r18, 0xB8	; 184
    330e:	3f 4f       	sbci	r19, 0xFF	; 255
    3310:	f9 01       	movw	r30, r18
    3312:	91 83       	std	Z+1, r25	; 0x01
    3314:	80 83       	st	Z, r24
    3316:	ce 01       	movw	r24, r28
		while(__ticks)
		{
			// wait 1/10 ms
			_delay_loop_2(((F_CPU) / 4e3) / 10);
			__ticks --;
    3318:	8a 5b       	subi	r24, 0xBA	; 186
    331a:	9f 4f       	sbci	r25, 0xFF	; 255
    331c:	9e 01       	movw	r18, r28
    331e:	2a 5b       	subi	r18, 0xBA	; 186
    3320:	3f 4f       	sbci	r19, 0xFF	; 255
    3322:	f9 01       	movw	r30, r18
    3324:	20 81       	ld	r18, Z
    3326:	31 81       	ldd	r19, Z+1	; 0x01
    3328:	21 50       	subi	r18, 0x01	; 1
    332a:	31 09       	sbc	r19, r1
    332c:	fc 01       	movw	r30, r24
    332e:	31 83       	std	Z+1, r19	; 0x01
    3330:	20 83       	st	Z, r18
    3332:	ce 01       	movw	r24, r28
		__ticks = 1;
	else if (__tmp > 65535)
	{
		//	__ticks = requested delay in 1/10 ms
		__ticks = (uint16_t) (__ms * 10.0);
		while(__ticks)
    3334:	8a 5b       	subi	r24, 0xBA	; 186
    3336:	9f 4f       	sbci	r25, 0xFF	; 255
    3338:	fc 01       	movw	r30, r24
    333a:	80 81       	ld	r24, Z
    333c:	91 81       	ldd	r25, Z+1	; 0x01
    333e:	89 2b       	or	r24, r25
    3340:	01 f7       	brne	.-64     	; 0x3302 <sibensegmentWuerfel+0x206>
    3342:	66 c0       	rjmp	.+204    	; 0x3410 <sibensegmentWuerfel+0x314>
			__ticks --;
		}
		return;
	}
	else
		__ticks = (uint16_t)__tmp;
    3344:	8e 01       	movw	r16, r28
    3346:	0a 5b       	subi	r16, 0xBA	; 186
    3348:	1f 4f       	sbci	r17, 0xFF	; 255
    334a:	ce 01       	movw	r24, r28
    334c:	8e 5b       	subi	r24, 0xBE	; 190
    334e:	9f 4f       	sbci	r25, 0xFF	; 255
    3350:	fc 01       	movw	r30, r24
    3352:	60 81       	ld	r22, Z
    3354:	71 81       	ldd	r23, Z+1	; 0x01
    3356:	82 81       	ldd	r24, Z+2	; 0x02
    3358:	93 81       	ldd	r25, Z+3	; 0x03
    335a:	03 d6       	rcall	.+3078   	; 0x3f62 <__fixunssfsi>
    335c:	dc 01       	movw	r26, r24
    335e:	cb 01       	movw	r24, r22
    3360:	f8 01       	movw	r30, r16
    3362:	91 83       	std	Z+1, r25	; 0x01
    3364:	80 83       	st	Z, r24
    3366:	08 c0       	rjmp	.+16     	; 0x3378 <sibensegmentWuerfel+0x27c>
    3368:	ce 01       	movw	r24, r28

#else
	uint16_t __ticks;
	__tmp = ((F_CPU) / 4e3) * __ms;
	if (__tmp < 1.0)
		__ticks = 1;
    336a:	8a 5b       	subi	r24, 0xBA	; 186
    336c:	9f 4f       	sbci	r25, 0xFF	; 255
    336e:	21 e0       	ldi	r18, 0x01	; 1
    3370:	30 e0       	ldi	r19, 0x00	; 0
    3372:	fc 01       	movw	r30, r24
    3374:	31 83       	std	Z+1, r19	; 0x01
    3376:	20 83       	st	Z, r18
    3378:	ce 01       	movw	r24, r28
    337a:	8a 5b       	subi	r24, 0xBA	; 186
    337c:	9f 4f       	sbci	r25, 0xFF	; 255
    337e:	fc 01       	movw	r30, r24
    3380:	80 81       	ld	r24, Z
    3382:	91 81       	ldd	r25, Z+1	; 0x01
    3384:	01 97       	sbiw	r24, 0x01	; 1
    3386:	f1 f7       	brne	.-4      	; 0x3384 <sibensegmentWuerfel+0x288>
    3388:	9e 01       	movw	r18, r28
    338a:	26 5b       	subi	r18, 0xB6	; 182
    338c:	3f 4f       	sbci	r19, 0xFF	; 255
    338e:	f9 01       	movw	r30, r18
    3390:	91 83       	std	Z+1, r25	; 0x01
    3392:	80 83       	st	Z, r24
    3394:	3d c0       	rjmp	.+122    	; 0x3410 <sibensegmentWuerfel+0x314>
		__ticks = 1;
	else if (__tmp2 > 65535)
	{
		_delay_ms(__us / 1000.0);
	}
	else if (__tmp > 255)
    3396:	20 e0       	ldi	r18, 0x00	; 0
    3398:	30 e0       	ldi	r19, 0x00	; 0
    339a:	4f e7       	ldi	r20, 0x7F	; 127
    339c:	53 e4       	ldi	r21, 0x43	; 67
    339e:	6a ad       	ldd	r22, Y+58	; 0x3a
    33a0:	7b ad       	ldd	r23, Y+59	; 0x3b
    33a2:	8c ad       	ldd	r24, Y+60	; 0x3c
    33a4:	9d ad       	ldd	r25, Y+61	; 0x3d
    33a6:	bb d6       	rcall	.+3446   	; 0x411e <__gesf2>
    33a8:	18 16       	cp	r1, r24
    33aa:	fc f4       	brge	.+62     	; 0x33ea <sibensegmentWuerfel+0x2ee>
	{
		uint16_t __ticks=(uint16_t)__tmp2;
    33ac:	8e 01       	movw	r16, r28
    33ae:	04 5b       	subi	r16, 0xB4	; 180
    33b0:	1f 4f       	sbci	r17, 0xFF	; 255
    33b2:	ce 01       	movw	r24, r28
    33b4:	ce 96       	adiw	r24, 0x3e	; 62
    33b6:	fc 01       	movw	r30, r24
    33b8:	60 81       	ld	r22, Z
    33ba:	71 81       	ldd	r23, Z+1	; 0x01
    33bc:	82 81       	ldd	r24, Z+2	; 0x02
    33be:	93 81       	ldd	r25, Z+3	; 0x03
    33c0:	d0 d5       	rcall	.+2976   	; 0x3f62 <__fixunssfsi>
    33c2:	dc 01       	movw	r26, r24
    33c4:	cb 01       	movw	r24, r22
    33c6:	f8 01       	movw	r30, r16
    33c8:	91 83       	std	Z+1, r25	; 0x01
    33ca:	80 83       	st	Z, r24
    33cc:	ce 01       	movw	r24, r28
    33ce:	84 5b       	subi	r24, 0xB4	; 180
    33d0:	9f 4f       	sbci	r25, 0xFF	; 255
    33d2:	fc 01       	movw	r30, r24
    33d4:	80 81       	ld	r24, Z
    33d6:	91 81       	ldd	r25, Z+1	; 0x01
    33d8:	01 97       	sbiw	r24, 0x01	; 1
    33da:	f1 f7       	brne	.-4      	; 0x33d8 <sibensegmentWuerfel+0x2dc>
    33dc:	9e 01       	movw	r18, r28
    33de:	22 5b       	subi	r18, 0xB2	; 178
    33e0:	3f 4f       	sbci	r19, 0xFF	; 255
    33e2:	f9 01       	movw	r30, r18
    33e4:	91 83       	std	Z+1, r25	; 0x01
    33e6:	80 83       	st	Z, r24
    33e8:	20 c0       	rjmp	.+64     	; 0x342a <sibensegmentWuerfel+0x32e>
		_delay_loop_2(__ticks);
		return;
	}
	else
		__ticks = (uint8_t)__tmp;
    33ea:	8e 01       	movw	r16, r28
    33ec:	00 5b       	subi	r16, 0xB0	; 176
    33ee:	1f 4f       	sbci	r17, 0xFF	; 255
    33f0:	6a ad       	ldd	r22, Y+58	; 0x3a
    33f2:	7b ad       	ldd	r23, Y+59	; 0x3b
    33f4:	8c ad       	ldd	r24, Y+60	; 0x3c
    33f6:	9d ad       	ldd	r25, Y+61	; 0x3d
    33f8:	b4 d5       	rcall	.+2920   	; 0x3f62 <__fixunssfsi>
    33fa:	dc 01       	movw	r26, r24
    33fc:	cb 01       	movw	r24, r22
    33fe:	f8 01       	movw	r30, r16
    3400:	80 83       	st	Z, r24
    3402:	06 c0       	rjmp	.+12     	; 0x3410 <sibensegmentWuerfel+0x314>
    3404:	ce 01       	movw	r24, r28
	uint8_t __ticks;
	double __tmp2 ;
	__tmp = ((F_CPU) / 3e6) * __us;
	__tmp2 = ((F_CPU) / 4e6) * __us;
	if (__tmp < 1.0)
		__ticks = 1;
    3406:	80 5b       	subi	r24, 0xB0	; 176
    3408:	9f 4f       	sbci	r25, 0xFF	; 255
    340a:	21 e0       	ldi	r18, 0x01	; 1
    340c:	fc 01       	movw	r30, r24
    340e:	20 83       	st	Z, r18
    3410:	ce 01       	movw	r24, r28
    can be achieved.
*/
void
_delay_loop_1(uint8_t __count)
{
	__asm__ volatile (
    3412:	80 5b       	subi	r24, 0xB0	; 176
    3414:	9f 4f       	sbci	r25, 0xFF	; 255
    3416:	fc 01       	movw	r30, r24
    3418:	80 81       	ld	r24, Z
    341a:	28 2f       	mov	r18, r24
    341c:	2a 95       	dec	r18
    341e:	f1 f7       	brne	.-4      	; 0x341c <sibensegmentWuerfel+0x320>
    3420:	ce 01       	movw	r24, r28
    3422:	8f 5a       	subi	r24, 0xAF	; 175
    3424:	9f 4f       	sbci	r25, 0xFF	; 255
    3426:	fc 01       	movw	r30, r24
    3428:	20 83       	st	Z, r18
        _delay_us(500);
        USART_Transmit(3,ziffer[zufallszahl1]);
    342a:	8b 81       	ldd	r24, Y+3	; 0x03
    342c:	88 2f       	mov	r24, r24
    342e:	90 e0       	ldi	r25, 0x00	; 0
    3430:	8c 5f       	subi	r24, 0xFC	; 252
    3432:	9d 4f       	sbci	r25, 0xFD	; 253
    3434:	fc 01       	movw	r30, r24
    3436:	80 81       	ld	r24, Z
    3438:	68 2f       	mov	r22, r24
    343a:	83 e0       	ldi	r24, 0x03	; 3
    343c:	da d4       	rcall	.+2484   	; 0x3df2 <USART_Transmit>
    343e:	80 e0       	ldi	r24, 0x00	; 0
    3440:	90 e0       	ldi	r25, 0x00	; 0
    3442:	aa ef       	ldi	r26, 0xFA	; 250
    3444:	b3 e4       	ldi	r27, 0x43	; 67
    3446:	8c 87       	std	Y+12, r24	; 0x0c
    3448:	9d 87       	std	Y+13, r25	; 0x0d
    344a:	ae 87       	std	Y+14, r26	; 0x0e
    344c:	bf 87       	std	Y+15, r27	; 0x0f
	__builtin_avr_delay_cycles(__ticks_dc);

#else
	uint8_t __ticks;
	double __tmp2 ;
	__tmp = ((F_CPU) / 3e6) * __us;
    344e:	2b ea       	ldi	r18, 0xAB	; 171
    3450:	3a ea       	ldi	r19, 0xAA	; 170
    3452:	4a ea       	ldi	r20, 0xAA	; 170
    3454:	50 e4       	ldi	r21, 0x40	; 64
    3456:	6c 85       	ldd	r22, Y+12	; 0x0c
    3458:	7d 85       	ldd	r23, Y+13	; 0x0d
    345a:	8e 85       	ldd	r24, Y+14	; 0x0e
    345c:	9f 85       	ldd	r25, Y+15	; 0x0f
    345e:	63 d6       	rcall	.+3270   	; 0x4126 <__mulsf3>
    3460:	dc 01       	movw	r26, r24
    3462:	cb 01       	movw	r24, r22
    3464:	8a a3       	std	Y+34, r24	; 0x22
    3466:	9b a3       	std	Y+35, r25	; 0x23
    3468:	ac a3       	std	Y+36, r26	; 0x24
    346a:	bd a3       	std	Y+37, r27	; 0x25
	__tmp2 = ((F_CPU) / 4e6) * __us;
    346c:	20 e0       	ldi	r18, 0x00	; 0
    346e:	30 e0       	ldi	r19, 0x00	; 0
    3470:	40 e8       	ldi	r20, 0x80	; 128
    3472:	50 e4       	ldi	r21, 0x40	; 64
    3474:	6c 85       	ldd	r22, Y+12	; 0x0c
    3476:	7d 85       	ldd	r23, Y+13	; 0x0d
    3478:	8e 85       	ldd	r24, Y+14	; 0x0e
    347a:	9f 85       	ldd	r25, Y+15	; 0x0f
    347c:	54 d6       	rcall	.+3240   	; 0x4126 <__mulsf3>
    347e:	dc 01       	movw	r26, r24
    3480:	cb 01       	movw	r24, r22
    3482:	8e a3       	std	Y+38, r24	; 0x26
    3484:	9f a3       	std	Y+39, r25	; 0x27
    3486:	a8 a7       	std	Y+40, r26	; 0x28
    3488:	b9 a7       	std	Y+41, r27	; 0x29
	if (__tmp < 1.0)
    348a:	20 e0       	ldi	r18, 0x00	; 0
    348c:	30 e0       	ldi	r19, 0x00	; 0
    348e:	40 e8       	ldi	r20, 0x80	; 128
    3490:	5f e3       	ldi	r21, 0x3F	; 63
    3492:	6a a1       	ldd	r22, Y+34	; 0x22
    3494:	7b a1       	ldd	r23, Y+35	; 0x23
    3496:	8c a1       	ldd	r24, Y+36	; 0x24
    3498:	9d a1       	ldd	r25, Y+37	; 0x25
    349a:	f7 d4       	rcall	.+2542   	; 0x3e8a <__cmpsf2>
    349c:	88 23       	and	r24, r24
    349e:	0c f4       	brge	.+2      	; 0x34a2 <sibensegmentWuerfel+0x3a6>
    34a0:	96 c0       	rjmp	.+300    	; 0x35ce <sibensegmentWuerfel+0x4d2>
		__ticks = 1;
	else if (__tmp2 > 65535)
    34a2:	20 e0       	ldi	r18, 0x00	; 0
    34a4:	3f ef       	ldi	r19, 0xFF	; 255
    34a6:	4f e7       	ldi	r20, 0x7F	; 127
    34a8:	57 e4       	ldi	r21, 0x47	; 71
    34aa:	6e a1       	ldd	r22, Y+38	; 0x26
    34ac:	7f a1       	ldd	r23, Y+39	; 0x27
    34ae:	88 a5       	ldd	r24, Y+40	; 0x28
    34b0:	99 a5       	ldd	r25, Y+41	; 0x29
    34b2:	35 d6       	rcall	.+3178   	; 0x411e <__gesf2>
    34b4:	18 16       	cp	r1, r24
    34b6:	0c f0       	brlt	.+2      	; 0x34ba <sibensegmentWuerfel+0x3be>
    34b8:	66 c0       	rjmp	.+204    	; 0x3586 <sibensegmentWuerfel+0x48a>
	{
		_delay_ms(__us / 1000.0);
    34ba:	20 e0       	ldi	r18, 0x00	; 0
    34bc:	30 e0       	ldi	r19, 0x00	; 0
    34be:	4a e7       	ldi	r20, 0x7A	; 122
    34c0:	54 e4       	ldi	r21, 0x44	; 68
    34c2:	6c 85       	ldd	r22, Y+12	; 0x0c
    34c4:	7d 85       	ldd	r23, Y+13	; 0x0d
    34c6:	8e 85       	ldd	r24, Y+14	; 0x0e
    34c8:	9f 85       	ldd	r25, Y+15	; 0x0f
    34ca:	e3 d4       	rcall	.+2502   	; 0x3e92 <__divsf3>
    34cc:	dc 01       	movw	r26, r24
    34ce:	cb 01       	movw	r24, r22
    34d0:	6c 01       	movw	r12, r24
    34d2:	7d 01       	movw	r14, r26

	__builtin_avr_delay_cycles(__ticks_dc);

#else
	uint16_t __ticks;
	__tmp = ((F_CPU) / 4e3) * __ms;
    34d4:	20 e0       	ldi	r18, 0x00	; 0
    34d6:	30 e0       	ldi	r19, 0x00	; 0
    34d8:	4a e7       	ldi	r20, 0x7A	; 122
    34da:	55 e4       	ldi	r21, 0x45	; 69
    34dc:	c7 01       	movw	r24, r14
    34de:	b6 01       	movw	r22, r12
    34e0:	22 d6       	rcall	.+3140   	; 0x4126 <__mulsf3>
    34e2:	dc 01       	movw	r26, r24
    34e4:	cb 01       	movw	r24, r22
    34e6:	8a a7       	std	Y+42, r24	; 0x2a
    34e8:	9b a7       	std	Y+43, r25	; 0x2b
    34ea:	ac a7       	std	Y+44, r26	; 0x2c
    34ec:	bd a7       	std	Y+45, r27	; 0x2d
	if (__tmp < 1.0)
    34ee:	20 e0       	ldi	r18, 0x00	; 0
    34f0:	30 e0       	ldi	r19, 0x00	; 0
    34f2:	40 e8       	ldi	r20, 0x80	; 128
    34f4:	5f e3       	ldi	r21, 0x3F	; 63
    34f6:	6a a5       	ldd	r22, Y+42	; 0x2a
    34f8:	7b a5       	ldd	r23, Y+43	; 0x2b
    34fa:	8c a5       	ldd	r24, Y+44	; 0x2c
    34fc:	9d a5       	ldd	r25, Y+45	; 0x2d
    34fe:	c5 d4       	rcall	.+2442   	; 0x3e8a <__cmpsf2>
    3500:	88 23       	and	r24, r24
		__ticks = 1;
	else if (__tmp > 65535)
    3502:	b4 f1       	brlt	.+108    	; 0x3570 <sibensegmentWuerfel+0x474>
    3504:	20 e0       	ldi	r18, 0x00	; 0
    3506:	3f ef       	ldi	r19, 0xFF	; 255
    3508:	4f e7       	ldi	r20, 0x7F	; 127
    350a:	57 e4       	ldi	r21, 0x47	; 71
    350c:	6a a5       	ldd	r22, Y+42	; 0x2a
    350e:	7b a5       	ldd	r23, Y+43	; 0x2b
    3510:	8c a5       	ldd	r24, Y+44	; 0x2c
    3512:	9d a5       	ldd	r25, Y+45	; 0x2d
    3514:	04 d6       	rcall	.+3080   	; 0x411e <__gesf2>
    3516:	18 16       	cp	r1, r24
    3518:	0c f5       	brge	.+66     	; 0x355c <sibensegmentWuerfel+0x460>
	{
		//	__ticks = requested delay in 1/10 ms
		__ticks = (uint16_t) (__ms * 10.0);
    351a:	20 e0       	ldi	r18, 0x00	; 0
    351c:	30 e0       	ldi	r19, 0x00	; 0
    351e:	40 e2       	ldi	r20, 0x20	; 32
    3520:	51 e4       	ldi	r21, 0x41	; 65
    3522:	c7 01       	movw	r24, r14
    3524:	b6 01       	movw	r22, r12
    3526:	ff d5       	rcall	.+3070   	; 0x4126 <__mulsf3>
    3528:	dc 01       	movw	r26, r24
    352a:	cb 01       	movw	r24, r22
    352c:	bc 01       	movw	r22, r24
    352e:	cd 01       	movw	r24, r26
    3530:	18 d5       	rcall	.+2608   	; 0x3f62 <__fixunssfsi>
    3532:	dc 01       	movw	r26, r24
    3534:	cb 01       	movw	r24, r22
    3536:	9f a7       	std	Y+47, r25	; 0x2f
    3538:	8e a7       	std	Y+46, r24	; 0x2e
    353a:	0b c0       	rjmp	.+22     	; 0x3552 <sibensegmentWuerfel+0x456>
    353c:	80 e9       	ldi	r24, 0x90	; 144
    milliseconds can be achieved.
 */
void
_delay_loop_2(uint16_t __count)
{
	__asm__ volatile (
    353e:	91 e0       	ldi	r25, 0x01	; 1
    3540:	01 97       	sbiw	r24, 0x01	; 1
    3542:	f1 f7       	brne	.-4      	; 0x3540 <sibensegmentWuerfel+0x444>
    3544:	99 ab       	std	Y+49, r25	; 0x31
    3546:	88 ab       	std	Y+48, r24	; 0x30
    3548:	8e a5       	ldd	r24, Y+46	; 0x2e
		while(__ticks)
		{
			// wait 1/10 ms
			_delay_loop_2(((F_CPU) / 4e3) / 10);
			__ticks --;
    354a:	9f a5       	ldd	r25, Y+47	; 0x2f
    354c:	01 97       	sbiw	r24, 0x01	; 1
    354e:	9f a7       	std	Y+47, r25	; 0x2f
    3550:	8e a7       	std	Y+46, r24	; 0x2e
    3552:	8e a5       	ldd	r24, Y+46	; 0x2e
		__ticks = 1;
	else if (__tmp > 65535)
	{
		//	__ticks = requested delay in 1/10 ms
		__ticks = (uint16_t) (__ms * 10.0);
		while(__ticks)
    3554:	9f a5       	ldd	r25, Y+47	; 0x2f
    3556:	89 2b       	or	r24, r25
    3558:	89 f7       	brne	.-30     	; 0x353c <sibensegmentWuerfel+0x440>
    355a:	3b c0       	rjmp	.+118    	; 0x35d2 <sibensegmentWuerfel+0x4d6>
    355c:	6a a5       	ldd	r22, Y+42	; 0x2a
			__ticks --;
		}
		return;
	}
	else
		__ticks = (uint16_t)__tmp;
    355e:	7b a5       	ldd	r23, Y+43	; 0x2b
    3560:	8c a5       	ldd	r24, Y+44	; 0x2c
    3562:	9d a5       	ldd	r25, Y+45	; 0x2d
    3564:	fe d4       	rcall	.+2556   	; 0x3f62 <__fixunssfsi>
    3566:	dc 01       	movw	r26, r24
    3568:	cb 01       	movw	r24, r22
    356a:	9f a7       	std	Y+47, r25	; 0x2f
    356c:	8e a7       	std	Y+46, r24	; 0x2e
    356e:	04 c0       	rjmp	.+8      	; 0x3578 <sibensegmentWuerfel+0x47c>

#else
	uint16_t __ticks;
	__tmp = ((F_CPU) / 4e3) * __ms;
	if (__tmp < 1.0)
		__ticks = 1;
    3570:	81 e0       	ldi	r24, 0x01	; 1
    3572:	90 e0       	ldi	r25, 0x00	; 0
    3574:	9f a7       	std	Y+47, r25	; 0x2f
    3576:	8e a7       	std	Y+46, r24	; 0x2e
    3578:	8e a5       	ldd	r24, Y+46	; 0x2e
    357a:	9f a5       	ldd	r25, Y+47	; 0x2f
    357c:	01 97       	sbiw	r24, 0x01	; 1
    357e:	f1 f7       	brne	.-4      	; 0x357c <sibensegmentWuerfel+0x480>
    3580:	9b ab       	std	Y+51, r25	; 0x33
    3582:	8a ab       	std	Y+50, r24	; 0x32
    3584:	26 c0       	rjmp	.+76     	; 0x35d2 <sibensegmentWuerfel+0x4d6>
		__ticks = 1;
	else if (__tmp2 > 65535)
	{
		_delay_ms(__us / 1000.0);
	}
	else if (__tmp > 255)
    3586:	20 e0       	ldi	r18, 0x00	; 0
    3588:	30 e0       	ldi	r19, 0x00	; 0
    358a:	4f e7       	ldi	r20, 0x7F	; 127
    358c:	53 e4       	ldi	r21, 0x43	; 67
    358e:	6a a1       	ldd	r22, Y+34	; 0x22
    3590:	7b a1       	ldd	r23, Y+35	; 0x23
    3592:	8c a1       	ldd	r24, Y+36	; 0x24
    3594:	9d a1       	ldd	r25, Y+37	; 0x25
    3596:	c3 d5       	rcall	.+2950   	; 0x411e <__gesf2>
    3598:	18 16       	cp	r1, r24
    359a:	84 f4       	brge	.+32     	; 0x35bc <sibensegmentWuerfel+0x4c0>
	{
		uint16_t __ticks=(uint16_t)__tmp2;
    359c:	6e a1       	ldd	r22, Y+38	; 0x26
    359e:	7f a1       	ldd	r23, Y+39	; 0x27
    35a0:	88 a5       	ldd	r24, Y+40	; 0x28
    35a2:	99 a5       	ldd	r25, Y+41	; 0x29
    35a4:	de d4       	rcall	.+2492   	; 0x3f62 <__fixunssfsi>
    35a6:	dc 01       	movw	r26, r24
    35a8:	cb 01       	movw	r24, r22
    35aa:	9d ab       	std	Y+53, r25	; 0x35
    35ac:	8c ab       	std	Y+52, r24	; 0x34
    35ae:	8c a9       	ldd	r24, Y+52	; 0x34
    35b0:	9d a9       	ldd	r25, Y+53	; 0x35
    35b2:	01 97       	sbiw	r24, 0x01	; 1
    35b4:	f1 f7       	brne	.-4      	; 0x35b2 <sibensegmentWuerfel+0x4b6>
    35b6:	9f ab       	std	Y+55, r25	; 0x37
    35b8:	8e ab       	std	Y+54, r24	; 0x36
    35ba:	0f c0       	rjmp	.+30     	; 0x35da <sibensegmentWuerfel+0x4de>
    35bc:	6a a1       	ldd	r22, Y+34	; 0x22
		_delay_loop_2(__ticks);
		return;
	}
	else
		__ticks = (uint8_t)__tmp;
    35be:	7b a1       	ldd	r23, Y+35	; 0x23
    35c0:	8c a1       	ldd	r24, Y+36	; 0x24
    35c2:	9d a1       	ldd	r25, Y+37	; 0x25
    35c4:	ce d4       	rcall	.+2460   	; 0x3f62 <__fixunssfsi>
    35c6:	dc 01       	movw	r26, r24
    35c8:	cb 01       	movw	r24, r22
    35ca:	88 af       	std	Y+56, r24	; 0x38
    35cc:	02 c0       	rjmp	.+4      	; 0x35d2 <sibensegmentWuerfel+0x4d6>
    35ce:	81 e0       	ldi	r24, 0x01	; 1
    35d0:	88 af       	std	Y+56, r24	; 0x38
	uint8_t __ticks;
	double __tmp2 ;
	__tmp = ((F_CPU) / 3e6) * __us;
	__tmp2 = ((F_CPU) / 4e6) * __us;
	if (__tmp < 1.0)
		__ticks = 1;
    35d2:	88 ad       	ldd	r24, Y+56	; 0x38
    35d4:	8a 95       	dec	r24
    can be achieved.
*/
void
_delay_loop_1(uint8_t __count)
{
	__asm__ volatile (
    35d6:	f1 f7       	brne	.-4      	; 0x35d4 <sibensegmentWuerfel+0x4d8>
    35d8:	89 af       	std	Y+57, r24	; 0x39
    35da:	85 e0       	ldi	r24, 0x05	; 5
    35dc:	91 e0       	ldi	r25, 0x01	; 1
        _delay_us(500);
        //Latch
        PORTJ = PORTJ | 0x08;
    35de:	25 e0       	ldi	r18, 0x05	; 5
    35e0:	31 e0       	ldi	r19, 0x01	; 1
    35e2:	f9 01       	movw	r30, r18
    35e4:	20 81       	ld	r18, Z
    35e6:	28 60       	ori	r18, 0x08	; 8
    35e8:	fc 01       	movw	r30, r24
    35ea:	20 83       	st	Z, r18
    35ec:	85 e0       	ldi	r24, 0x05	; 5
        PORTJ = PORTJ & ~0x08;
    35ee:	91 e0       	ldi	r25, 0x01	; 1
    35f0:	25 e0       	ldi	r18, 0x05	; 5
    35f2:	31 e0       	ldi	r19, 0x01	; 1
    35f4:	f9 01       	movw	r30, r18
    35f6:	20 81       	ld	r18, Z
    35f8:	27 7f       	andi	r18, 0xF7	; 247
    35fa:	fc 01       	movw	r30, r24
    35fc:	20 83       	st	Z, r18
        _delay_ms(15+i*3);
    35fe:	89 81       	ldd	r24, Y+1	; 0x01
    3600:	28 2f       	mov	r18, r24
    3602:	30 e0       	ldi	r19, 0x00	; 0
    3604:	c9 01       	movw	r24, r18
    3606:	88 0f       	add	r24, r24
    3608:	99 1f       	adc	r25, r25
    360a:	82 0f       	add	r24, r18
    360c:	93 1f       	adc	r25, r19
    360e:	0f 96       	adiw	r24, 0x0f	; 15
    3610:	09 2e       	mov	r0, r25
    3612:	00 0c       	add	r0, r0
    3614:	aa 0b       	sbc	r26, r26
    3616:	bb 0b       	sbc	r27, r27
    3618:	bc 01       	movw	r22, r24
    361a:	cd 01       	movw	r24, r26
    361c:	d0 d4       	rcall	.+2464   	; 0x3fbe <__floatsisf>
    361e:	dc 01       	movw	r26, r24
    3620:	cb 01       	movw	r24, r22
    3622:	8c 8b       	std	Y+20, r24	; 0x14
    3624:	9d 8b       	std	Y+21, r25	; 0x15
    3626:	ae 8b       	std	Y+22, r26	; 0x16
    3628:	bf 8b       	std	Y+23, r27	; 0x17

	__builtin_avr_delay_cycles(__ticks_dc);

#else
	uint16_t __ticks;
	__tmp = ((F_CPU) / 4e3) * __ms;
    362a:	20 e0       	ldi	r18, 0x00	; 0
    362c:	30 e0       	ldi	r19, 0x00	; 0
    362e:	4a e7       	ldi	r20, 0x7A	; 122
    3630:	55 e4       	ldi	r21, 0x45	; 69
    3632:	6c 89       	ldd	r22, Y+20	; 0x14
    3634:	7d 89       	ldd	r23, Y+21	; 0x15
    3636:	8e 89       	ldd	r24, Y+22	; 0x16
    3638:	9f 89       	ldd	r25, Y+23	; 0x17
    363a:	75 d5       	rcall	.+2794   	; 0x4126 <__mulsf3>
    363c:	dc 01       	movw	r26, r24
    363e:	cb 01       	movw	r24, r22
    3640:	88 8f       	std	Y+24, r24	; 0x18
    3642:	99 8f       	std	Y+25, r25	; 0x19
    3644:	aa 8f       	std	Y+26, r26	; 0x1a
	if (__tmp < 1.0)
    3646:	bb 8f       	std	Y+27, r27	; 0x1b
    3648:	20 e0       	ldi	r18, 0x00	; 0
    364a:	30 e0       	ldi	r19, 0x00	; 0
    364c:	40 e8       	ldi	r20, 0x80	; 128
    364e:	5f e3       	ldi	r21, 0x3F	; 63
    3650:	68 8d       	ldd	r22, Y+24	; 0x18
    3652:	79 8d       	ldd	r23, Y+25	; 0x19
    3654:	8a 8d       	ldd	r24, Y+26	; 0x1a
    3656:	9b 8d       	ldd	r25, Y+27	; 0x1b
    3658:	18 d4       	rcall	.+2096   	; 0x3e8a <__cmpsf2>
    365a:	88 23       	and	r24, r24
    365c:	0c f4       	brge	.+2      	; 0x3660 <sibensegmentWuerfel+0x564>
		__ticks = 1;
	else if (__tmp > 65535)
    365e:	38 c0       	rjmp	.+112    	; 0x36d0 <sibensegmentWuerfel+0x5d4>
    3660:	20 e0       	ldi	r18, 0x00	; 0
    3662:	3f ef       	ldi	r19, 0xFF	; 255
    3664:	4f e7       	ldi	r20, 0x7F	; 127
    3666:	57 e4       	ldi	r21, 0x47	; 71
    3668:	68 8d       	ldd	r22, Y+24	; 0x18
    366a:	79 8d       	ldd	r23, Y+25	; 0x19
    366c:	8a 8d       	ldd	r24, Y+26	; 0x1a
    366e:	9b 8d       	ldd	r25, Y+27	; 0x1b
    3670:	56 d5       	rcall	.+2732   	; 0x411e <__gesf2>
    3672:	18 16       	cp	r1, r24
    3674:	1c f5       	brge	.+70     	; 0x36bc <sibensegmentWuerfel+0x5c0>
	{
		//	__ticks = requested delay in 1/10 ms
		__ticks = (uint16_t) (__ms * 10.0);
    3676:	20 e0       	ldi	r18, 0x00	; 0
    3678:	30 e0       	ldi	r19, 0x00	; 0
    367a:	40 e2       	ldi	r20, 0x20	; 32
    367c:	51 e4       	ldi	r21, 0x41	; 65
    367e:	6c 89       	ldd	r22, Y+20	; 0x14
    3680:	7d 89       	ldd	r23, Y+21	; 0x15
    3682:	8e 89       	ldd	r24, Y+22	; 0x16
    3684:	9f 89       	ldd	r25, Y+23	; 0x17
    3686:	4f d5       	rcall	.+2718   	; 0x4126 <__mulsf3>
    3688:	dc 01       	movw	r26, r24
    368a:	cb 01       	movw	r24, r22
    368c:	bc 01       	movw	r22, r24
    368e:	cd 01       	movw	r24, r26
    3690:	68 d4       	rcall	.+2256   	; 0x3f62 <__fixunssfsi>
    3692:	dc 01       	movw	r26, r24
    3694:	cb 01       	movw	r24, r22
    3696:	9d 8f       	std	Y+29, r25	; 0x1d
    3698:	8c 8f       	std	Y+28, r24	; 0x1c
    369a:	0b c0       	rjmp	.+22     	; 0x36b2 <sibensegmentWuerfel+0x5b6>
    369c:	80 e9       	ldi	r24, 0x90	; 144
    milliseconds can be achieved.
 */
void
_delay_loop_2(uint16_t __count)
{
	__asm__ volatile (
    369e:	91 e0       	ldi	r25, 0x01	; 1
    36a0:	01 97       	sbiw	r24, 0x01	; 1
    36a2:	f1 f7       	brne	.-4      	; 0x36a0 <sibensegmentWuerfel+0x5a4>
    36a4:	9f 8f       	std	Y+31, r25	; 0x1f
    36a6:	8e 8f       	std	Y+30, r24	; 0x1e
		while(__ticks)
		{
			// wait 1/10 ms
			_delay_loop_2(((F_CPU) / 4e3) / 10);
			__ticks --;
    36a8:	8c 8d       	ldd	r24, Y+28	; 0x1c
    36aa:	9d 8d       	ldd	r25, Y+29	; 0x1d
    36ac:	01 97       	sbiw	r24, 0x01	; 1
    36ae:	9d 8f       	std	Y+29, r25	; 0x1d
		__ticks = 1;
	else if (__tmp > 65535)
	{
		//	__ticks = requested delay in 1/10 ms
		__ticks = (uint16_t) (__ms * 10.0);
		while(__ticks)
    36b0:	8c 8f       	std	Y+28, r24	; 0x1c
    36b2:	8c 8d       	ldd	r24, Y+28	; 0x1c
    36b4:	9d 8d       	ldd	r25, Y+29	; 0x1d
    36b6:	89 2b       	or	r24, r25
    36b8:	89 f7       	brne	.-30     	; 0x369c <sibensegmentWuerfel+0x5a0>
			__ticks --;
		}
		return;
	}
	else
		__ticks = (uint16_t)__tmp;
    36ba:	14 c0       	rjmp	.+40     	; 0x36e4 <sibensegmentWuerfel+0x5e8>
    36bc:	68 8d       	ldd	r22, Y+24	; 0x18
    36be:	79 8d       	ldd	r23, Y+25	; 0x19
    36c0:	8a 8d       	ldd	r24, Y+26	; 0x1a
    36c2:	9b 8d       	ldd	r25, Y+27	; 0x1b
    36c4:	4e d4       	rcall	.+2204   	; 0x3f62 <__fixunssfsi>
    36c6:	dc 01       	movw	r26, r24
    36c8:	cb 01       	movw	r24, r22
    36ca:	9d 8f       	std	Y+29, r25	; 0x1d
    36cc:	8c 8f       	std	Y+28, r24	; 0x1c

#else
	uint16_t __ticks;
	__tmp = ((F_CPU) / 4e3) * __ms;
	if (__tmp < 1.0)
		__ticks = 1;
    36ce:	04 c0       	rjmp	.+8      	; 0x36d8 <sibensegmentWuerfel+0x5dc>
    36d0:	81 e0       	ldi	r24, 0x01	; 1
    36d2:	90 e0       	ldi	r25, 0x00	; 0
    36d4:	9d 8f       	std	Y+29, r25	; 0x1d
    36d6:	8c 8f       	std	Y+28, r24	; 0x1c
    36d8:	8c 8d       	ldd	r24, Y+28	; 0x1c
    36da:	9d 8d       	ldd	r25, Y+29	; 0x1d
    36dc:	01 97       	sbiw	r24, 0x01	; 1
    36de:	f1 f7       	brne	.-4      	; 0x36dc <sibensegmentWuerfel+0x5e0>
    36e0:	99 a3       	std	Y+33, r25	; 0x21
uint8_t sibensegmentWuerfel(void)
{
    
    char buffer[16];
    uint8_t zufallszahl1, zufallszahl2 = 0;
    for(uint8_t i = 0; i < 50; i = i + 1)
    36e2:	88 a3       	std	Y+32, r24	; 0x20
    36e4:	89 81       	ldd	r24, Y+1	; 0x01
    36e6:	8f 5f       	subi	r24, 0xFF	; 255
    36e8:	89 83       	std	Y+1, r24	; 0x01
    36ea:	89 81       	ldd	r24, Y+1	; 0x01
    36ec:	82 33       	cpi	r24, 0x32	; 50
        PORTJ = PORTJ | 0x08;
        PORTJ = PORTJ & ~0x08;
        _delay_ms(15+i*3);
    }
    
    zufallszahl1 = wuerfel();
    36ee:	08 f4       	brcc	.+2      	; 0x36f2 <sibensegmentWuerfel+0x5f6>
    36f0:	19 cd       	rjmp	.-1486   	; 0x3124 <sibensegmentWuerfel+0x28>
    36f2:	f0 dc       	rcall	.-1568   	; 0x30d4 <wuerfel>
    zufallszahl2 = wuerfel();
    36f4:	8b 83       	std	Y+3, r24	; 0x03
    36f6:	ee dc       	rcall	.-1572   	; 0x30d4 <wuerfel>
    36f8:	8a 83       	std	Y+2, r24	; 0x02
    USART_Transmit(3,ziffer[zufallszahl2]);
    36fa:	8a 81       	ldd	r24, Y+2	; 0x02
    36fc:	88 2f       	mov	r24, r24
    36fe:	90 e0       	ldi	r25, 0x00	; 0
    3700:	8c 5f       	subi	r24, 0xFC	; 252
    3702:	9d 4f       	sbci	r25, 0xFD	; 253
    3704:	fc 01       	movw	r30, r24
    3706:	80 81       	ld	r24, Z
    3708:	68 2f       	mov	r22, r24
    370a:	83 e0       	ldi	r24, 0x03	; 3
    370c:	72 d3       	rcall	.+1764   	; 0x3df2 <USART_Transmit>
    370e:	80 e0       	ldi	r24, 0x00	; 0
    3710:	90 e0       	ldi	r25, 0x00	; 0
    3712:	aa ef       	ldi	r26, 0xFA	; 250
    3714:	b3 e4       	ldi	r27, 0x43	; 67
    3716:	88 8b       	std	Y+16, r24	; 0x10
    3718:	99 8b       	std	Y+17, r25	; 0x11
    371a:	aa 8b       	std	Y+18, r26	; 0x12
    371c:	bb 8b       	std	Y+19, r27	; 0x13
	__builtin_avr_delay_cycles(__ticks_dc);

#else
	uint8_t __ticks;
	double __tmp2 ;
	__tmp = ((F_CPU) / 3e6) * __us;
    371e:	8e 01       	movw	r16, r28
    3720:	06 59       	subi	r16, 0x96	; 150
    3722:	1f 4f       	sbci	r17, 0xFF	; 255
    3724:	2b ea       	ldi	r18, 0xAB	; 171
    3726:	3a ea       	ldi	r19, 0xAA	; 170
    3728:	4a ea       	ldi	r20, 0xAA	; 170
    372a:	50 e4       	ldi	r21, 0x40	; 64
    372c:	68 89       	ldd	r22, Y+16	; 0x10
    372e:	79 89       	ldd	r23, Y+17	; 0x11
    3730:	8a 89       	ldd	r24, Y+18	; 0x12
    3732:	9b 89       	ldd	r25, Y+19	; 0x13
    3734:	f8 d4       	rcall	.+2544   	; 0x4126 <__mulsf3>
    3736:	dc 01       	movw	r26, r24
    3738:	cb 01       	movw	r24, r22
    373a:	f8 01       	movw	r30, r16
    373c:	80 83       	st	Z, r24
    373e:	91 83       	std	Z+1, r25	; 0x01
    3740:	a2 83       	std	Z+2, r26	; 0x02
    3742:	b3 83       	std	Z+3, r27	; 0x03
	__tmp2 = ((F_CPU) / 4e6) * __us;
    3744:	8e 01       	movw	r16, r28
    3746:	02 59       	subi	r16, 0x92	; 146
    3748:	1f 4f       	sbci	r17, 0xFF	; 255
    374a:	20 e0       	ldi	r18, 0x00	; 0
    374c:	30 e0       	ldi	r19, 0x00	; 0
    374e:	40 e8       	ldi	r20, 0x80	; 128
    3750:	50 e4       	ldi	r21, 0x40	; 64
    3752:	68 89       	ldd	r22, Y+16	; 0x10
    3754:	79 89       	ldd	r23, Y+17	; 0x11
    3756:	8a 89       	ldd	r24, Y+18	; 0x12
    3758:	9b 89       	ldd	r25, Y+19	; 0x13
    375a:	e5 d4       	rcall	.+2506   	; 0x4126 <__mulsf3>
    375c:	dc 01       	movw	r26, r24
    375e:	cb 01       	movw	r24, r22
    3760:	f8 01       	movw	r30, r16
    3762:	80 83       	st	Z, r24
    3764:	91 83       	std	Z+1, r25	; 0x01
    3766:	a2 83       	std	Z+2, r26	; 0x02
	if (__tmp < 1.0)
    3768:	b3 83       	std	Z+3, r27	; 0x03
    376a:	ce 01       	movw	r24, r28
    376c:	86 59       	subi	r24, 0x96	; 150
    376e:	9f 4f       	sbci	r25, 0xFF	; 255
    3770:	20 e0       	ldi	r18, 0x00	; 0
    3772:	30 e0       	ldi	r19, 0x00	; 0
    3774:	40 e8       	ldi	r20, 0x80	; 128
    3776:	5f e3       	ldi	r21, 0x3F	; 63
    3778:	fc 01       	movw	r30, r24
    377a:	60 81       	ld	r22, Z
    377c:	71 81       	ldd	r23, Z+1	; 0x01
    377e:	82 81       	ldd	r24, Z+2	; 0x02
    3780:	93 81       	ldd	r25, Z+3	; 0x03
    3782:	83 d3       	rcall	.+1798   	; 0x3e8a <__cmpsf2>
    3784:	88 23       	and	r24, r24
    3786:	0c f4       	brge	.+2      	; 0x378a <sibensegmentWuerfel+0x68e>
		__ticks = 1;
	else if (__tmp2 > 65535)
    3788:	ec c0       	rjmp	.+472    	; 0x3962 <sibensegmentWuerfel+0x866>
    378a:	ce 01       	movw	r24, r28
    378c:	82 59       	subi	r24, 0x92	; 146
    378e:	9f 4f       	sbci	r25, 0xFF	; 255
    3790:	20 e0       	ldi	r18, 0x00	; 0
    3792:	3f ef       	ldi	r19, 0xFF	; 255
    3794:	4f e7       	ldi	r20, 0x7F	; 127
    3796:	57 e4       	ldi	r21, 0x47	; 71
    3798:	fc 01       	movw	r30, r24
    379a:	60 81       	ld	r22, Z
    379c:	71 81       	ldd	r23, Z+1	; 0x01
    379e:	82 81       	ldd	r24, Z+2	; 0x02
    37a0:	93 81       	ldd	r25, Z+3	; 0x03
    37a2:	bd d4       	rcall	.+2426   	; 0x411e <__gesf2>
    37a4:	18 16       	cp	r1, r24
    37a6:	0c f0       	brlt	.+2      	; 0x37aa <sibensegmentWuerfel+0x6ae>
	{
		_delay_ms(__us / 1000.0);
    37a8:	9c c0       	rjmp	.+312    	; 0x38e2 <sibensegmentWuerfel+0x7e6>
    37aa:	20 e0       	ldi	r18, 0x00	; 0
    37ac:	30 e0       	ldi	r19, 0x00	; 0
    37ae:	4a e7       	ldi	r20, 0x7A	; 122
    37b0:	54 e4       	ldi	r21, 0x44	; 68
    37b2:	68 89       	ldd	r22, Y+16	; 0x10
    37b4:	79 89       	ldd	r23, Y+17	; 0x11
    37b6:	8a 89       	ldd	r24, Y+18	; 0x12
    37b8:	9b 89       	ldd	r25, Y+19	; 0x13
    37ba:	6b d3       	rcall	.+1750   	; 0x3e92 <__divsf3>
    37bc:	dc 01       	movw	r26, r24
    37be:	cb 01       	movw	r24, r22
    37c0:	6c 01       	movw	r12, r24

	__builtin_avr_delay_cycles(__ticks_dc);

#else
	uint16_t __ticks;
	__tmp = ((F_CPU) / 4e3) * __ms;
    37c2:	7d 01       	movw	r14, r26
    37c4:	8e 01       	movw	r16, r28
    37c6:	0e 58       	subi	r16, 0x8E	; 142
    37c8:	1f 4f       	sbci	r17, 0xFF	; 255
    37ca:	20 e0       	ldi	r18, 0x00	; 0
    37cc:	30 e0       	ldi	r19, 0x00	; 0
    37ce:	4a e7       	ldi	r20, 0x7A	; 122
    37d0:	55 e4       	ldi	r21, 0x45	; 69
    37d2:	c7 01       	movw	r24, r14
    37d4:	b6 01       	movw	r22, r12
    37d6:	a7 d4       	rcall	.+2382   	; 0x4126 <__mulsf3>
    37d8:	dc 01       	movw	r26, r24
    37da:	cb 01       	movw	r24, r22
    37dc:	f8 01       	movw	r30, r16
    37de:	80 83       	st	Z, r24
    37e0:	91 83       	std	Z+1, r25	; 0x01
	if (__tmp < 1.0)
    37e2:	a2 83       	std	Z+2, r26	; 0x02
    37e4:	b3 83       	std	Z+3, r27	; 0x03
    37e6:	ce 01       	movw	r24, r28
    37e8:	8e 58       	subi	r24, 0x8E	; 142
    37ea:	9f 4f       	sbci	r25, 0xFF	; 255
    37ec:	20 e0       	ldi	r18, 0x00	; 0
    37ee:	30 e0       	ldi	r19, 0x00	; 0
    37f0:	40 e8       	ldi	r20, 0x80	; 128
    37f2:	5f e3       	ldi	r21, 0x3F	; 63
    37f4:	fc 01       	movw	r30, r24
    37f6:	60 81       	ld	r22, Z
    37f8:	71 81       	ldd	r23, Z+1	; 0x01
    37fa:	82 81       	ldd	r24, Z+2	; 0x02
    37fc:	93 81       	ldd	r25, Z+3	; 0x03
    37fe:	45 d3       	rcall	.+1674   	; 0x3e8a <__cmpsf2>
    3800:	88 23       	and	r24, r24
    3802:	0c f4       	brge	.+2      	; 0x3806 <sibensegmentWuerfel+0x70a>
		__ticks = 1;
	else if (__tmp > 65535)
    3804:	57 c0       	rjmp	.+174    	; 0x38b4 <sibensegmentWuerfel+0x7b8>
    3806:	ce 01       	movw	r24, r28
    3808:	8e 58       	subi	r24, 0x8E	; 142
    380a:	9f 4f       	sbci	r25, 0xFF	; 255
    380c:	20 e0       	ldi	r18, 0x00	; 0
    380e:	3f ef       	ldi	r19, 0xFF	; 255
    3810:	4f e7       	ldi	r20, 0x7F	; 127
    3812:	57 e4       	ldi	r21, 0x47	; 71
    3814:	fc 01       	movw	r30, r24
    3816:	60 81       	ld	r22, Z
    3818:	71 81       	ldd	r23, Z+1	; 0x01
    381a:	82 81       	ldd	r24, Z+2	; 0x02
    381c:	93 81       	ldd	r25, Z+3	; 0x03
    381e:	7f d4       	rcall	.+2302   	; 0x411e <__gesf2>
    3820:	18 16       	cp	r1, r24
    3822:	b4 f5       	brge	.+108    	; 0x3890 <sibensegmentWuerfel+0x794>
	{
		//	__ticks = requested delay in 1/10 ms
		__ticks = (uint16_t) (__ms * 10.0);
    3824:	20 e0       	ldi	r18, 0x00	; 0
    3826:	30 e0       	ldi	r19, 0x00	; 0
    3828:	40 e2       	ldi	r20, 0x20	; 32
    382a:	51 e4       	ldi	r21, 0x41	; 65
    382c:	c7 01       	movw	r24, r14
    382e:	b6 01       	movw	r22, r12
    3830:	7a d4       	rcall	.+2292   	; 0x4126 <__mulsf3>
    3832:	dc 01       	movw	r26, r24
    3834:	cb 01       	movw	r24, r22
    3836:	8e 01       	movw	r16, r28
    3838:	0a 58       	subi	r16, 0x8A	; 138
    383a:	1f 4f       	sbci	r17, 0xFF	; 255
    383c:	bc 01       	movw	r22, r24
    383e:	cd 01       	movw	r24, r26
    3840:	90 d3       	rcall	.+1824   	; 0x3f62 <__fixunssfsi>
    3842:	dc 01       	movw	r26, r24
    3844:	cb 01       	movw	r24, r22
    3846:	f8 01       	movw	r30, r16
    3848:	91 83       	std	Z+1, r25	; 0x01
    384a:	80 83       	st	Z, r24
    384c:	18 c0       	rjmp	.+48     	; 0x387e <sibensegmentWuerfel+0x782>
    384e:	80 e9       	ldi	r24, 0x90	; 144
    3850:	91 e0       	ldi	r25, 0x01	; 1
    3852:	01 97       	sbiw	r24, 0x01	; 1
    3854:	f1 f7       	brne	.-4      	; 0x3852 <sibensegmentWuerfel+0x756>
    3856:	9e 01       	movw	r18, r28
    3858:	28 58       	subi	r18, 0x88	; 136
    385a:	3f 4f       	sbci	r19, 0xFF	; 255
    385c:	f9 01       	movw	r30, r18
    385e:	91 83       	std	Z+1, r25	; 0x01
    3860:	80 83       	st	Z, r24
    3862:	ce 01       	movw	r24, r28
		while(__ticks)
		{
			// wait 1/10 ms
			_delay_loop_2(((F_CPU) / 4e3) / 10);
			__ticks --;
    3864:	8a 58       	subi	r24, 0x8A	; 138
    3866:	9f 4f       	sbci	r25, 0xFF	; 255
    3868:	9e 01       	movw	r18, r28
    386a:	2a 58       	subi	r18, 0x8A	; 138
    386c:	3f 4f       	sbci	r19, 0xFF	; 255
    386e:	f9 01       	movw	r30, r18
    3870:	20 81       	ld	r18, Z
    3872:	31 81       	ldd	r19, Z+1	; 0x01
    3874:	21 50       	subi	r18, 0x01	; 1
    3876:	31 09       	sbc	r19, r1
    3878:	fc 01       	movw	r30, r24
    387a:	31 83       	std	Z+1, r19	; 0x01
    387c:	20 83       	st	Z, r18
    387e:	ce 01       	movw	r24, r28
		__ticks = 1;
	else if (__tmp > 65535)
	{
		//	__ticks = requested delay in 1/10 ms
		__ticks = (uint16_t) (__ms * 10.0);
		while(__ticks)
    3880:	8a 58       	subi	r24, 0x8A	; 138
    3882:	9f 4f       	sbci	r25, 0xFF	; 255
    3884:	fc 01       	movw	r30, r24
    3886:	80 81       	ld	r24, Z
    3888:	91 81       	ldd	r25, Z+1	; 0x01
    388a:	89 2b       	or	r24, r25
    388c:	01 f7       	brne	.-64     	; 0x384e <sibensegmentWuerfel+0x752>
    388e:	6f c0       	rjmp	.+222    	; 0x396e <sibensegmentWuerfel+0x872>
    3890:	8e 01       	movw	r16, r28
			__ticks --;
		}
		return;
	}
	else
		__ticks = (uint16_t)__tmp;
    3892:	0a 58       	subi	r16, 0x8A	; 138
    3894:	1f 4f       	sbci	r17, 0xFF	; 255
    3896:	ce 01       	movw	r24, r28
    3898:	8e 58       	subi	r24, 0x8E	; 142
    389a:	9f 4f       	sbci	r25, 0xFF	; 255
    389c:	fc 01       	movw	r30, r24
    389e:	60 81       	ld	r22, Z
    38a0:	71 81       	ldd	r23, Z+1	; 0x01
    38a2:	82 81       	ldd	r24, Z+2	; 0x02
    38a4:	93 81       	ldd	r25, Z+3	; 0x03
    38a6:	5d d3       	rcall	.+1722   	; 0x3f62 <__fixunssfsi>
    38a8:	dc 01       	movw	r26, r24
    38aa:	cb 01       	movw	r24, r22
    38ac:	f8 01       	movw	r30, r16
    38ae:	91 83       	std	Z+1, r25	; 0x01
    38b0:	80 83       	st	Z, r24
    38b2:	08 c0       	rjmp	.+16     	; 0x38c4 <sibensegmentWuerfel+0x7c8>

#else
	uint16_t __ticks;
	__tmp = ((F_CPU) / 4e3) * __ms;
	if (__tmp < 1.0)
		__ticks = 1;
    38b4:	ce 01       	movw	r24, r28
    38b6:	8a 58       	subi	r24, 0x8A	; 138
    38b8:	9f 4f       	sbci	r25, 0xFF	; 255
    38ba:	21 e0       	ldi	r18, 0x01	; 1
    38bc:	30 e0       	ldi	r19, 0x00	; 0
    38be:	fc 01       	movw	r30, r24
    38c0:	31 83       	std	Z+1, r19	; 0x01
    38c2:	20 83       	st	Z, r18
    38c4:	ce 01       	movw	r24, r28
    38c6:	8a 58       	subi	r24, 0x8A	; 138
    38c8:	9f 4f       	sbci	r25, 0xFF	; 255
    38ca:	fc 01       	movw	r30, r24
    38cc:	80 81       	ld	r24, Z
    38ce:	91 81       	ldd	r25, Z+1	; 0x01
    38d0:	01 97       	sbiw	r24, 0x01	; 1
    38d2:	f1 f7       	brne	.-4      	; 0x38d0 <sibensegmentWuerfel+0x7d4>
    38d4:	9e 01       	movw	r18, r28
    38d6:	26 58       	subi	r18, 0x86	; 134
    38d8:	3f 4f       	sbci	r19, 0xFF	; 255
    38da:	f9 01       	movw	r30, r18
    38dc:	91 83       	std	Z+1, r25	; 0x01
    38de:	80 83       	st	Z, r24
    38e0:	46 c0       	rjmp	.+140    	; 0x396e <sibensegmentWuerfel+0x872>
		__ticks = 1;
	else if (__tmp2 > 65535)
	{
		_delay_ms(__us / 1000.0);
	}
	else if (__tmp > 255)
    38e2:	ce 01       	movw	r24, r28
    38e4:	86 59       	subi	r24, 0x96	; 150
    38e6:	9f 4f       	sbci	r25, 0xFF	; 255
    38e8:	20 e0       	ldi	r18, 0x00	; 0
    38ea:	30 e0       	ldi	r19, 0x00	; 0
    38ec:	4f e7       	ldi	r20, 0x7F	; 127
    38ee:	53 e4       	ldi	r21, 0x43	; 67
    38f0:	fc 01       	movw	r30, r24
    38f2:	60 81       	ld	r22, Z
    38f4:	71 81       	ldd	r23, Z+1	; 0x01
    38f6:	82 81       	ldd	r24, Z+2	; 0x02
    38f8:	93 81       	ldd	r25, Z+3	; 0x03
    38fa:	11 d4       	rcall	.+2082   	; 0x411e <__gesf2>
    38fc:	18 16       	cp	r1, r24
    38fe:	04 f5       	brge	.+64     	; 0x3940 <sibensegmentWuerfel+0x844>
	{
		uint16_t __ticks=(uint16_t)__tmp2;
    3900:	8e 01       	movw	r16, r28
    3902:	04 58       	subi	r16, 0x84	; 132
    3904:	1f 4f       	sbci	r17, 0xFF	; 255
    3906:	ce 01       	movw	r24, r28
    3908:	82 59       	subi	r24, 0x92	; 146
    390a:	9f 4f       	sbci	r25, 0xFF	; 255
    390c:	fc 01       	movw	r30, r24
    390e:	60 81       	ld	r22, Z
    3910:	71 81       	ldd	r23, Z+1	; 0x01
    3912:	82 81       	ldd	r24, Z+2	; 0x02
    3914:	93 81       	ldd	r25, Z+3	; 0x03
    3916:	25 d3       	rcall	.+1610   	; 0x3f62 <__fixunssfsi>
    3918:	dc 01       	movw	r26, r24
    391a:	cb 01       	movw	r24, r22
    391c:	f8 01       	movw	r30, r16
    391e:	91 83       	std	Z+1, r25	; 0x01
    3920:	80 83       	st	Z, r24
    3922:	ce 01       	movw	r24, r28
    3924:	84 58       	subi	r24, 0x84	; 132
    3926:	9f 4f       	sbci	r25, 0xFF	; 255
    3928:	fc 01       	movw	r30, r24
    392a:	80 81       	ld	r24, Z
    392c:	91 81       	ldd	r25, Z+1	; 0x01
    392e:	01 97       	sbiw	r24, 0x01	; 1
    3930:	f1 f7       	brne	.-4      	; 0x392e <sibensegmentWuerfel+0x832>
    3932:	9e 01       	movw	r18, r28
    3934:	22 58       	subi	r18, 0x82	; 130
    3936:	3f 4f       	sbci	r19, 0xFF	; 255
    3938:	f9 01       	movw	r30, r18
    393a:	91 83       	std	Z+1, r25	; 0x01
    393c:	80 83       	st	Z, r24
    393e:	24 c0       	rjmp	.+72     	; 0x3988 <sibensegmentWuerfel+0x88c>
		_delay_loop_2(__ticks);
		return;
	}
	else
		__ticks = (uint8_t)__tmp;
    3940:	8e 01       	movw	r16, r28
    3942:	00 58       	subi	r16, 0x80	; 128
    3944:	1f 4f       	sbci	r17, 0xFF	; 255
    3946:	ce 01       	movw	r24, r28
    3948:	86 59       	subi	r24, 0x96	; 150
    394a:	9f 4f       	sbci	r25, 0xFF	; 255
    394c:	fc 01       	movw	r30, r24
    394e:	60 81       	ld	r22, Z
    3950:	71 81       	ldd	r23, Z+1	; 0x01
    3952:	82 81       	ldd	r24, Z+2	; 0x02
    3954:	93 81       	ldd	r25, Z+3	; 0x03
    3956:	05 d3       	rcall	.+1546   	; 0x3f62 <__fixunssfsi>
    3958:	dc 01       	movw	r26, r24
    395a:	cb 01       	movw	r24, r22
    395c:	f8 01       	movw	r30, r16
    395e:	80 83       	st	Z, r24
    3960:	06 c0       	rjmp	.+12     	; 0x396e <sibensegmentWuerfel+0x872>
	uint8_t __ticks;
	double __tmp2 ;
	__tmp = ((F_CPU) / 3e6) * __us;
	__tmp2 = ((F_CPU) / 4e6) * __us;
	if (__tmp < 1.0)
		__ticks = 1;
    3962:	ce 01       	movw	r24, r28
    3964:	80 58       	subi	r24, 0x80	; 128
    3966:	9f 4f       	sbci	r25, 0xFF	; 255
    3968:	21 e0       	ldi	r18, 0x01	; 1
    396a:	fc 01       	movw	r30, r24
    396c:	20 83       	st	Z, r18
    can be achieved.
*/
void
_delay_loop_1(uint8_t __count)
{
	__asm__ volatile (
    396e:	ce 01       	movw	r24, r28
    3970:	80 58       	subi	r24, 0x80	; 128
    3972:	9f 4f       	sbci	r25, 0xFF	; 255
    3974:	fc 01       	movw	r30, r24
    3976:	80 81       	ld	r24, Z
    3978:	28 2f       	mov	r18, r24
    397a:	2a 95       	dec	r18
    397c:	f1 f7       	brne	.-4      	; 0x397a <sibensegmentWuerfel+0x87e>
    397e:	ce 01       	movw	r24, r28
    3980:	8f 57       	subi	r24, 0x7F	; 127
    3982:	9f 4f       	sbci	r25, 0xFF	; 255
    3984:	fc 01       	movw	r30, r24
    _delay_us(500);
    USART_Transmit(3,ziffer[zufallszahl1]);
    3986:	20 83       	st	Z, r18
    3988:	8b 81       	ldd	r24, Y+3	; 0x03
    398a:	88 2f       	mov	r24, r24
    398c:	90 e0       	ldi	r25, 0x00	; 0
    398e:	8c 5f       	subi	r24, 0xFC	; 252
    3990:	9d 4f       	sbci	r25, 0xFD	; 253
    3992:	fc 01       	movw	r30, r24
    3994:	80 81       	ld	r24, Z
    3996:	68 2f       	mov	r22, r24
    3998:	83 e0       	ldi	r24, 0x03	; 3
    399a:	2b d2       	rcall	.+1110   	; 0x3df2 <USART_Transmit>
    399c:	80 e0       	ldi	r24, 0x00	; 0
    399e:	90 e0       	ldi	r25, 0x00	; 0
    39a0:	aa ef       	ldi	r26, 0xFA	; 250
    39a2:	b3 e4       	ldi	r27, 0x43	; 67
    39a4:	8c 83       	std	Y+4, r24	; 0x04
    39a6:	9d 83       	std	Y+5, r25	; 0x05
    39a8:	ae 83       	std	Y+6, r26	; 0x06
	__builtin_avr_delay_cycles(__ticks_dc);

#else
	uint8_t __ticks;
	double __tmp2 ;
	__tmp = ((F_CPU) / 3e6) * __us;
    39aa:	bf 83       	std	Y+7, r27	; 0x07
    39ac:	8e 01       	movw	r16, r28
    39ae:	0e 5a       	subi	r16, 0xAE	; 174
    39b0:	1f 4f       	sbci	r17, 0xFF	; 255
    39b2:	2b ea       	ldi	r18, 0xAB	; 171
    39b4:	3a ea       	ldi	r19, 0xAA	; 170
    39b6:	4a ea       	ldi	r20, 0xAA	; 170
    39b8:	50 e4       	ldi	r21, 0x40	; 64
    39ba:	6c 81       	ldd	r22, Y+4	; 0x04
    39bc:	7d 81       	ldd	r23, Y+5	; 0x05
    39be:	8e 81       	ldd	r24, Y+6	; 0x06
    39c0:	9f 81       	ldd	r25, Y+7	; 0x07
    39c2:	b1 d3       	rcall	.+1890   	; 0x4126 <__mulsf3>
    39c4:	dc 01       	movw	r26, r24
    39c6:	cb 01       	movw	r24, r22
    39c8:	f8 01       	movw	r30, r16
    39ca:	80 83       	st	Z, r24
    39cc:	91 83       	std	Z+1, r25	; 0x01
    39ce:	a2 83       	std	Z+2, r26	; 0x02
	__tmp2 = ((F_CPU) / 4e6) * __us;
    39d0:	b3 83       	std	Z+3, r27	; 0x03
    39d2:	8e 01       	movw	r16, r28
    39d4:	0a 5a       	subi	r16, 0xAA	; 170
    39d6:	1f 4f       	sbci	r17, 0xFF	; 255
    39d8:	20 e0       	ldi	r18, 0x00	; 0
    39da:	30 e0       	ldi	r19, 0x00	; 0
    39dc:	40 e8       	ldi	r20, 0x80	; 128
    39de:	50 e4       	ldi	r21, 0x40	; 64
    39e0:	6c 81       	ldd	r22, Y+4	; 0x04
    39e2:	7d 81       	ldd	r23, Y+5	; 0x05
    39e4:	8e 81       	ldd	r24, Y+6	; 0x06
    39e6:	9f 81       	ldd	r25, Y+7	; 0x07
    39e8:	9e d3       	rcall	.+1852   	; 0x4126 <__mulsf3>
    39ea:	dc 01       	movw	r26, r24
    39ec:	cb 01       	movw	r24, r22
    39ee:	f8 01       	movw	r30, r16
    39f0:	80 83       	st	Z, r24
    39f2:	91 83       	std	Z+1, r25	; 0x01
	if (__tmp < 1.0)
    39f4:	a2 83       	std	Z+2, r26	; 0x02
    39f6:	b3 83       	std	Z+3, r27	; 0x03
    39f8:	ce 01       	movw	r24, r28
    39fa:	8e 5a       	subi	r24, 0xAE	; 174
    39fc:	9f 4f       	sbci	r25, 0xFF	; 255
    39fe:	20 e0       	ldi	r18, 0x00	; 0
    3a00:	30 e0       	ldi	r19, 0x00	; 0
    3a02:	40 e8       	ldi	r20, 0x80	; 128
    3a04:	5f e3       	ldi	r21, 0x3F	; 63
    3a06:	fc 01       	movw	r30, r24
    3a08:	60 81       	ld	r22, Z
    3a0a:	71 81       	ldd	r23, Z+1	; 0x01
    3a0c:	82 81       	ldd	r24, Z+2	; 0x02
    3a0e:	93 81       	ldd	r25, Z+3	; 0x03
    3a10:	3c d2       	rcall	.+1144   	; 0x3e8a <__cmpsf2>
    3a12:	88 23       	and	r24, r24
		__ticks = 1;
	else if (__tmp2 > 65535)
    3a14:	0c f4       	brge	.+2      	; 0x3a18 <sibensegmentWuerfel+0x91c>
    3a16:	ec c0       	rjmp	.+472    	; 0x3bf0 <sibensegmentWuerfel+0xaf4>
    3a18:	ce 01       	movw	r24, r28
    3a1a:	8a 5a       	subi	r24, 0xAA	; 170
    3a1c:	9f 4f       	sbci	r25, 0xFF	; 255
    3a1e:	20 e0       	ldi	r18, 0x00	; 0
    3a20:	3f ef       	ldi	r19, 0xFF	; 255
    3a22:	4f e7       	ldi	r20, 0x7F	; 127
    3a24:	57 e4       	ldi	r21, 0x47	; 71
    3a26:	fc 01       	movw	r30, r24
    3a28:	60 81       	ld	r22, Z
    3a2a:	71 81       	ldd	r23, Z+1	; 0x01
    3a2c:	82 81       	ldd	r24, Z+2	; 0x02
    3a2e:	93 81       	ldd	r25, Z+3	; 0x03
    3a30:	76 d3       	rcall	.+1772   	; 0x411e <__gesf2>
    3a32:	18 16       	cp	r1, r24
	{
		_delay_ms(__us / 1000.0);
    3a34:	0c f0       	brlt	.+2      	; 0x3a38 <sibensegmentWuerfel+0x93c>
    3a36:	9c c0       	rjmp	.+312    	; 0x3b70 <sibensegmentWuerfel+0xa74>
    3a38:	20 e0       	ldi	r18, 0x00	; 0
    3a3a:	30 e0       	ldi	r19, 0x00	; 0
    3a3c:	4a e7       	ldi	r20, 0x7A	; 122
    3a3e:	54 e4       	ldi	r21, 0x44	; 68
    3a40:	6c 81       	ldd	r22, Y+4	; 0x04
    3a42:	7d 81       	ldd	r23, Y+5	; 0x05
    3a44:	8e 81       	ldd	r24, Y+6	; 0x06
    3a46:	9f 81       	ldd	r25, Y+7	; 0x07
    3a48:	24 d2       	rcall	.+1096   	; 0x3e92 <__divsf3>
    3a4a:	dc 01       	movw	r26, r24
    3a4c:	cb 01       	movw	r24, r22

	__builtin_avr_delay_cycles(__ticks_dc);

#else
	uint16_t __ticks;
	__tmp = ((F_CPU) / 4e3) * __ms;
    3a4e:	6c 01       	movw	r12, r24
    3a50:	7d 01       	movw	r14, r26
    3a52:	8e 01       	movw	r16, r28
    3a54:	06 5a       	subi	r16, 0xA6	; 166
    3a56:	1f 4f       	sbci	r17, 0xFF	; 255
    3a58:	20 e0       	ldi	r18, 0x00	; 0
    3a5a:	30 e0       	ldi	r19, 0x00	; 0
    3a5c:	4a e7       	ldi	r20, 0x7A	; 122
    3a5e:	55 e4       	ldi	r21, 0x45	; 69
    3a60:	c7 01       	movw	r24, r14
    3a62:	b6 01       	movw	r22, r12
    3a64:	60 d3       	rcall	.+1728   	; 0x4126 <__mulsf3>
    3a66:	dc 01       	movw	r26, r24
    3a68:	cb 01       	movw	r24, r22
    3a6a:	f8 01       	movw	r30, r16
    3a6c:	80 83       	st	Z, r24
    3a6e:	91 83       	std	Z+1, r25	; 0x01
	if (__tmp < 1.0)
    3a70:	a2 83       	std	Z+2, r26	; 0x02
    3a72:	b3 83       	std	Z+3, r27	; 0x03
    3a74:	ce 01       	movw	r24, r28
    3a76:	86 5a       	subi	r24, 0xA6	; 166
    3a78:	9f 4f       	sbci	r25, 0xFF	; 255
    3a7a:	20 e0       	ldi	r18, 0x00	; 0
    3a7c:	30 e0       	ldi	r19, 0x00	; 0
    3a7e:	40 e8       	ldi	r20, 0x80	; 128
    3a80:	5f e3       	ldi	r21, 0x3F	; 63
    3a82:	fc 01       	movw	r30, r24
    3a84:	60 81       	ld	r22, Z
    3a86:	71 81       	ldd	r23, Z+1	; 0x01
    3a88:	82 81       	ldd	r24, Z+2	; 0x02
    3a8a:	93 81       	ldd	r25, Z+3	; 0x03
    3a8c:	fe d1       	rcall	.+1020   	; 0x3e8a <__cmpsf2>
    3a8e:	88 23       	and	r24, r24
    3a90:	0c f4       	brge	.+2      	; 0x3a94 <sibensegmentWuerfel+0x998>
		__ticks = 1;
	else if (__tmp > 65535)
    3a92:	57 c0       	rjmp	.+174    	; 0x3b42 <sibensegmentWuerfel+0xa46>
    3a94:	ce 01       	movw	r24, r28
    3a96:	86 5a       	subi	r24, 0xA6	; 166
    3a98:	9f 4f       	sbci	r25, 0xFF	; 255
    3a9a:	20 e0       	ldi	r18, 0x00	; 0
    3a9c:	3f ef       	ldi	r19, 0xFF	; 255
    3a9e:	4f e7       	ldi	r20, 0x7F	; 127
    3aa0:	57 e4       	ldi	r21, 0x47	; 71
    3aa2:	fc 01       	movw	r30, r24
    3aa4:	60 81       	ld	r22, Z
    3aa6:	71 81       	ldd	r23, Z+1	; 0x01
    3aa8:	82 81       	ldd	r24, Z+2	; 0x02
    3aaa:	93 81       	ldd	r25, Z+3	; 0x03
    3aac:	38 d3       	rcall	.+1648   	; 0x411e <__gesf2>
    3aae:	18 16       	cp	r1, r24
    3ab0:	b4 f5       	brge	.+108    	; 0x3b1e <sibensegmentWuerfel+0xa22>
	{
		//	__ticks = requested delay in 1/10 ms
		__ticks = (uint16_t) (__ms * 10.0);
    3ab2:	20 e0       	ldi	r18, 0x00	; 0
    3ab4:	30 e0       	ldi	r19, 0x00	; 0
    3ab6:	40 e2       	ldi	r20, 0x20	; 32
    3ab8:	51 e4       	ldi	r21, 0x41	; 65
    3aba:	c7 01       	movw	r24, r14
    3abc:	b6 01       	movw	r22, r12
    3abe:	33 d3       	rcall	.+1638   	; 0x4126 <__mulsf3>
    3ac0:	dc 01       	movw	r26, r24
    3ac2:	cb 01       	movw	r24, r22
    3ac4:	8e 01       	movw	r16, r28
    3ac6:	02 5a       	subi	r16, 0xA2	; 162
    3ac8:	1f 4f       	sbci	r17, 0xFF	; 255
    3aca:	bc 01       	movw	r22, r24
    3acc:	cd 01       	movw	r24, r26
    3ace:	49 d2       	rcall	.+1170   	; 0x3f62 <__fixunssfsi>
    3ad0:	dc 01       	movw	r26, r24
    3ad2:	cb 01       	movw	r24, r22
    3ad4:	f8 01       	movw	r30, r16
    3ad6:	91 83       	std	Z+1, r25	; 0x01
    3ad8:	80 83       	st	Z, r24
    3ada:	18 c0       	rjmp	.+48     	; 0x3b0c <sibensegmentWuerfel+0xa10>
    3adc:	80 e9       	ldi	r24, 0x90	; 144
    milliseconds can be achieved.
 */
void
_delay_loop_2(uint16_t __count)
{
	__asm__ volatile (
    3ade:	91 e0       	ldi	r25, 0x01	; 1
    3ae0:	01 97       	sbiw	r24, 0x01	; 1
    3ae2:	f1 f7       	brne	.-4      	; 0x3ae0 <sibensegmentWuerfel+0x9e4>
    3ae4:	9e 01       	movw	r18, r28
    3ae6:	20 5a       	subi	r18, 0xA0	; 160
    3ae8:	3f 4f       	sbci	r19, 0xFF	; 255
    3aea:	f9 01       	movw	r30, r18
    3aec:	91 83       	std	Z+1, r25	; 0x01
    3aee:	80 83       	st	Z, r24
    3af0:	ce 01       	movw	r24, r28
		while(__ticks)
		{
			// wait 1/10 ms
			_delay_loop_2(((F_CPU) / 4e3) / 10);
			__ticks --;
    3af2:	82 5a       	subi	r24, 0xA2	; 162
    3af4:	9f 4f       	sbci	r25, 0xFF	; 255
    3af6:	9e 01       	movw	r18, r28
    3af8:	22 5a       	subi	r18, 0xA2	; 162
    3afa:	3f 4f       	sbci	r19, 0xFF	; 255
    3afc:	f9 01       	movw	r30, r18
    3afe:	20 81       	ld	r18, Z
    3b00:	31 81       	ldd	r19, Z+1	; 0x01
    3b02:	21 50       	subi	r18, 0x01	; 1
    3b04:	31 09       	sbc	r19, r1
    3b06:	fc 01       	movw	r30, r24
    3b08:	31 83       	std	Z+1, r19	; 0x01
    3b0a:	20 83       	st	Z, r18
		__ticks = 1;
	else if (__tmp > 65535)
	{
		//	__ticks = requested delay in 1/10 ms
		__ticks = (uint16_t) (__ms * 10.0);
		while(__ticks)
    3b0c:	ce 01       	movw	r24, r28
    3b0e:	82 5a       	subi	r24, 0xA2	; 162
    3b10:	9f 4f       	sbci	r25, 0xFF	; 255
    3b12:	fc 01       	movw	r30, r24
    3b14:	80 81       	ld	r24, Z
    3b16:	91 81       	ldd	r25, Z+1	; 0x01
    3b18:	89 2b       	or	r24, r25
    3b1a:	01 f7       	brne	.-64     	; 0x3adc <sibensegmentWuerfel+0x9e0>
    3b1c:	6f c0       	rjmp	.+222    	; 0x3bfc <sibensegmentWuerfel+0xb00>
			__ticks --;
		}
		return;
	}
	else
		__ticks = (uint16_t)__tmp;
    3b1e:	8e 01       	movw	r16, r28
    3b20:	02 5a       	subi	r16, 0xA2	; 162
    3b22:	1f 4f       	sbci	r17, 0xFF	; 255
    3b24:	ce 01       	movw	r24, r28
    3b26:	86 5a       	subi	r24, 0xA6	; 166
    3b28:	9f 4f       	sbci	r25, 0xFF	; 255
    3b2a:	fc 01       	movw	r30, r24
    3b2c:	60 81       	ld	r22, Z
    3b2e:	71 81       	ldd	r23, Z+1	; 0x01
    3b30:	82 81       	ldd	r24, Z+2	; 0x02
    3b32:	93 81       	ldd	r25, Z+3	; 0x03
    3b34:	16 d2       	rcall	.+1068   	; 0x3f62 <__fixunssfsi>
    3b36:	dc 01       	movw	r26, r24
    3b38:	cb 01       	movw	r24, r22
    3b3a:	f8 01       	movw	r30, r16
    3b3c:	91 83       	std	Z+1, r25	; 0x01
    3b3e:	80 83       	st	Z, r24
    3b40:	08 c0       	rjmp	.+16     	; 0x3b52 <sibensegmentWuerfel+0xa56>

#else
	uint16_t __ticks;
	__tmp = ((F_CPU) / 4e3) * __ms;
	if (__tmp < 1.0)
		__ticks = 1;
    3b42:	ce 01       	movw	r24, r28
    3b44:	82 5a       	subi	r24, 0xA2	; 162
    3b46:	9f 4f       	sbci	r25, 0xFF	; 255
    3b48:	21 e0       	ldi	r18, 0x01	; 1
    3b4a:	30 e0       	ldi	r19, 0x00	; 0
    3b4c:	fc 01       	movw	r30, r24
    3b4e:	31 83       	std	Z+1, r19	; 0x01
    3b50:	20 83       	st	Z, r18
    3b52:	ce 01       	movw	r24, r28
    3b54:	82 5a       	subi	r24, 0xA2	; 162
    3b56:	9f 4f       	sbci	r25, 0xFF	; 255
    3b58:	fc 01       	movw	r30, r24
    3b5a:	80 81       	ld	r24, Z
    3b5c:	91 81       	ldd	r25, Z+1	; 0x01
    3b5e:	01 97       	sbiw	r24, 0x01	; 1
    3b60:	f1 f7       	brne	.-4      	; 0x3b5e <sibensegmentWuerfel+0xa62>
    3b62:	9e 01       	movw	r18, r28
    3b64:	2e 59       	subi	r18, 0x9E	; 158
    3b66:	3f 4f       	sbci	r19, 0xFF	; 255
    3b68:	f9 01       	movw	r30, r18
    3b6a:	91 83       	std	Z+1, r25	; 0x01
    3b6c:	80 83       	st	Z, r24
		__ticks = 1;
	else if (__tmp2 > 65535)
	{
		_delay_ms(__us / 1000.0);
	}
	else if (__tmp > 255)
    3b6e:	46 c0       	rjmp	.+140    	; 0x3bfc <sibensegmentWuerfel+0xb00>
    3b70:	ce 01       	movw	r24, r28
    3b72:	8e 5a       	subi	r24, 0xAE	; 174
    3b74:	9f 4f       	sbci	r25, 0xFF	; 255
    3b76:	20 e0       	ldi	r18, 0x00	; 0
    3b78:	30 e0       	ldi	r19, 0x00	; 0
    3b7a:	4f e7       	ldi	r20, 0x7F	; 127
    3b7c:	53 e4       	ldi	r21, 0x43	; 67
    3b7e:	fc 01       	movw	r30, r24
    3b80:	60 81       	ld	r22, Z
    3b82:	71 81       	ldd	r23, Z+1	; 0x01
    3b84:	82 81       	ldd	r24, Z+2	; 0x02
    3b86:	93 81       	ldd	r25, Z+3	; 0x03
    3b88:	ca d2       	rcall	.+1428   	; 0x411e <__gesf2>
    3b8a:	18 16       	cp	r1, r24
    3b8c:	04 f5       	brge	.+64     	; 0x3bce <sibensegmentWuerfel+0xad2>
	{
		uint16_t __ticks=(uint16_t)__tmp2;
    3b8e:	8e 01       	movw	r16, r28
    3b90:	0c 59       	subi	r16, 0x9C	; 156
    3b92:	1f 4f       	sbci	r17, 0xFF	; 255
    3b94:	ce 01       	movw	r24, r28
    3b96:	8a 5a       	subi	r24, 0xAA	; 170
    3b98:	9f 4f       	sbci	r25, 0xFF	; 255
    3b9a:	fc 01       	movw	r30, r24
    3b9c:	60 81       	ld	r22, Z
    3b9e:	71 81       	ldd	r23, Z+1	; 0x01
    3ba0:	82 81       	ldd	r24, Z+2	; 0x02
    3ba2:	93 81       	ldd	r25, Z+3	; 0x03
    3ba4:	de d1       	rcall	.+956    	; 0x3f62 <__fixunssfsi>
    3ba6:	dc 01       	movw	r26, r24
    3ba8:	cb 01       	movw	r24, r22
    3baa:	f8 01       	movw	r30, r16
    3bac:	91 83       	std	Z+1, r25	; 0x01
    3bae:	80 83       	st	Z, r24
    3bb0:	ce 01       	movw	r24, r28
    3bb2:	8c 59       	subi	r24, 0x9C	; 156
    3bb4:	9f 4f       	sbci	r25, 0xFF	; 255
    3bb6:	fc 01       	movw	r30, r24
    3bb8:	80 81       	ld	r24, Z
    3bba:	91 81       	ldd	r25, Z+1	; 0x01
    3bbc:	01 97       	sbiw	r24, 0x01	; 1
    3bbe:	f1 f7       	brne	.-4      	; 0x3bbc <sibensegmentWuerfel+0xac0>
    3bc0:	9e 01       	movw	r18, r28
    3bc2:	2a 59       	subi	r18, 0x9A	; 154
    3bc4:	3f 4f       	sbci	r19, 0xFF	; 255
    3bc6:	f9 01       	movw	r30, r18
    3bc8:	91 83       	std	Z+1, r25	; 0x01
    3bca:	80 83       	st	Z, r24
    3bcc:	24 c0       	rjmp	.+72     	; 0x3c16 <sibensegmentWuerfel+0xb1a>
    3bce:	8e 01       	movw	r16, r28
		_delay_loop_2(__ticks);
		return;
	}
	else
		__ticks = (uint8_t)__tmp;
    3bd0:	08 59       	subi	r16, 0x98	; 152
    3bd2:	1f 4f       	sbci	r17, 0xFF	; 255
    3bd4:	ce 01       	movw	r24, r28
    3bd6:	8e 5a       	subi	r24, 0xAE	; 174
    3bd8:	9f 4f       	sbci	r25, 0xFF	; 255
    3bda:	fc 01       	movw	r30, r24
    3bdc:	60 81       	ld	r22, Z
    3bde:	71 81       	ldd	r23, Z+1	; 0x01
    3be0:	82 81       	ldd	r24, Z+2	; 0x02
    3be2:	93 81       	ldd	r25, Z+3	; 0x03
    3be4:	be d1       	rcall	.+892    	; 0x3f62 <__fixunssfsi>
    3be6:	dc 01       	movw	r26, r24
    3be8:	cb 01       	movw	r24, r22
    3bea:	f8 01       	movw	r30, r16
    3bec:	80 83       	st	Z, r24
    3bee:	06 c0       	rjmp	.+12     	; 0x3bfc <sibensegmentWuerfel+0xb00>
    3bf0:	ce 01       	movw	r24, r28
    3bf2:	88 59       	subi	r24, 0x98	; 152
	uint8_t __ticks;
	double __tmp2 ;
	__tmp = ((F_CPU) / 3e6) * __us;
	__tmp2 = ((F_CPU) / 4e6) * __us;
	if (__tmp < 1.0)
		__ticks = 1;
    3bf4:	9f 4f       	sbci	r25, 0xFF	; 255
    3bf6:	21 e0       	ldi	r18, 0x01	; 1
    3bf8:	fc 01       	movw	r30, r24
    3bfa:	20 83       	st	Z, r18
    3bfc:	ce 01       	movw	r24, r28
    3bfe:	88 59       	subi	r24, 0x98	; 152
    can be achieved.
*/
void
_delay_loop_1(uint8_t __count)
{
	__asm__ volatile (
    3c00:	9f 4f       	sbci	r25, 0xFF	; 255
    3c02:	fc 01       	movw	r30, r24
    3c04:	80 81       	ld	r24, Z
    3c06:	28 2f       	mov	r18, r24
    3c08:	2a 95       	dec	r18
    3c0a:	f1 f7       	brne	.-4      	; 0x3c08 <sibensegmentWuerfel+0xb0c>
    3c0c:	ce 01       	movw	r24, r28
    3c0e:	87 59       	subi	r24, 0x97	; 151
    3c10:	9f 4f       	sbci	r25, 0xFF	; 255
    3c12:	fc 01       	movw	r30, r24
    3c14:	20 83       	st	Z, r18
    3c16:	85 e0       	ldi	r24, 0x05	; 5
    3c18:	91 e0       	ldi	r25, 0x01	; 1
    _delay_us(500);
    //Latch
    PORTJ = PORTJ | 0x08;
    3c1a:	25 e0       	ldi	r18, 0x05	; 5
    3c1c:	31 e0       	ldi	r19, 0x01	; 1
    3c1e:	f9 01       	movw	r30, r18
    3c20:	20 81       	ld	r18, Z
    3c22:	28 60       	ori	r18, 0x08	; 8
    3c24:	fc 01       	movw	r30, r24
    3c26:	20 83       	st	Z, r18
    3c28:	85 e0       	ldi	r24, 0x05	; 5
    3c2a:	91 e0       	ldi	r25, 0x01	; 1
    PORTJ = PORTJ & ~0x08;
    3c2c:	25 e0       	ldi	r18, 0x05	; 5
    3c2e:	31 e0       	ldi	r19, 0x01	; 1
    3c30:	f9 01       	movw	r30, r18
    3c32:	20 81       	ld	r18, Z
    3c34:	27 7f       	andi	r18, 0xF7	; 247
    3c36:	fc 01       	movw	r30, r24
    3c38:	20 83       	st	Z, r18
    3c3a:	8b 81       	ldd	r24, Y+3	; 0x03
    3c3c:	80 93 c8 04 	sts	0x04C8, r24	; 0x8004c8 <__data_end>
    wuerfelArray[0] = zufallszahl1;
    3c40:	8a 81       	ldd	r24, Y+2	; 0x02
    3c42:	80 93 c9 04 	sts	0x04C9, r24	; 0x8004c9 <__data_end+0x1>
    wuerfelArray[1] = zufallszahl2;
    3c46:	00 00       	nop
    3c48:	cf 56       	subi	r28, 0x6F	; 111
}
    3c4a:	df 4f       	sbci	r29, 0xFF	; 255
    3c4c:	0f b6       	in	r0, 0x3f	; 63
    3c4e:	f8 94       	cli
    3c50:	de bf       	out	0x3e, r29	; 62
    3c52:	0f be       	out	0x3f, r0	; 63
    3c54:	cd bf       	out	0x3d, r28	; 61
    3c56:	df 91       	pop	r29
    3c58:	cf 91       	pop	r28
    3c5a:	1f 91       	pop	r17
    3c5c:	0f 91       	pop	r16
    3c5e:	ff 90       	pop	r15
    3c60:	ef 90       	pop	r14
    3c62:	df 90       	pop	r13
    3c64:	cf 90       	pop	r12
    3c66:	08 95       	ret

00003c68 <adm_ADC_init>:
    3c68:	cf 93       	push	r28
    3c6a:	df 93       	push	r29



void adm_ADC_init(void)
{
    3c6c:	cd b7       	in	r28, 0x3d	; 61
    3c6e:	de b7       	in	r29, 0x3e	; 62
    ADMUX  = 0x40;	//AVCC Als referenz
    3c70:	8c e7       	ldi	r24, 0x7C	; 124
    3c72:	90 e0       	ldi	r25, 0x00	; 0
    3c74:	20 e4       	ldi	r18, 0x40	; 64
    3c76:	fc 01       	movw	r30, r24
    3c78:	20 83       	st	Z, r18
    DIDR0  = 0x0F;	// IO pins von Potentiometer deaktivieren
    3c7a:	8e e7       	ldi	r24, 0x7E	; 126
    3c7c:	90 e0       	ldi	r25, 0x00	; 0
    3c7e:	2f e0       	ldi	r18, 0x0F	; 15
    3c80:	fc 01       	movw	r30, r24
    3c82:	20 83       	st	Z, r18
    // ADC einschalten, ADC clok = 16MHz / 128, Free runing mode
    ADCSRA = 0b10000111;
    3c84:	8a e7       	ldi	r24, 0x7A	; 122
    3c86:	90 e0       	ldi	r25, 0x00	; 0
    3c88:	27 e8       	ldi	r18, 0x87	; 135
    3c8a:	fc 01       	movw	r30, r24
    3c8c:	20 83       	st	Z, r18
}
    3c8e:	00 00       	nop
    3c90:	df 91       	pop	r29
    3c92:	cf 91       	pop	r28
    3c94:	08 95       	ret

00003c96 <adm_ADC_read>:

uint16_t adm_ADC_read(uint8_t kanal)
{
    3c96:	cf 93       	push	r28
    3c98:	df 93       	push	r29
    3c9a:	1f 92       	push	r1
    3c9c:	cd b7       	in	r28, 0x3d	; 61
    3c9e:	de b7       	in	r29, 0x3e	; 62
    3ca0:	89 83       	std	Y+1, r24	; 0x01
    // Kanal definieren
    ADMUX&=0xf0;
    3ca2:	8c e7       	ldi	r24, 0x7C	; 124
    3ca4:	90 e0       	ldi	r25, 0x00	; 0
    3ca6:	2c e7       	ldi	r18, 0x7C	; 124
    3ca8:	30 e0       	ldi	r19, 0x00	; 0
    3caa:	f9 01       	movw	r30, r18
    3cac:	20 81       	ld	r18, Z
    3cae:	20 7f       	andi	r18, 0xF0	; 240
    3cb0:	fc 01       	movw	r30, r24
    3cb2:	20 83       	st	Z, r18
    ADMUX|=kanal&0x07;		//write ls3b to ADMUX
    3cb4:	8c e7       	ldi	r24, 0x7C	; 124
    3cb6:	90 e0       	ldi	r25, 0x00	; 0
    3cb8:	2c e7       	ldi	r18, 0x7C	; 124
    3cba:	30 e0       	ldi	r19, 0x00	; 0
    3cbc:	f9 01       	movw	r30, r18
    3cbe:	20 81       	ld	r18, Z
    3cc0:	32 2f       	mov	r19, r18
    3cc2:	29 81       	ldd	r18, Y+1	; 0x01
    3cc4:	27 70       	andi	r18, 0x07	; 7
    3cc6:	23 2b       	or	r18, r19
    3cc8:	fc 01       	movw	r30, r24
    3cca:	20 83       	st	Z, r18
    ADCSRB&=~0x08;
    3ccc:	8b e7       	ldi	r24, 0x7B	; 123
    3cce:	90 e0       	ldi	r25, 0x00	; 0
    3cd0:	2b e7       	ldi	r18, 0x7B	; 123
    3cd2:	30 e0       	ldi	r19, 0x00	; 0
    3cd4:	f9 01       	movw	r30, r18
    3cd6:	20 81       	ld	r18, Z
    3cd8:	27 7f       	andi	r18, 0xF7	; 247
    3cda:	fc 01       	movw	r30, r24
    3cdc:	20 83       	st	Z, r18
    ADCSRB|=kanal&0x08;		//write msb to ADCSRB
    3cde:	8b e7       	ldi	r24, 0x7B	; 123
    3ce0:	90 e0       	ldi	r25, 0x00	; 0
    3ce2:	2b e7       	ldi	r18, 0x7B	; 123
    3ce4:	30 e0       	ldi	r19, 0x00	; 0
    3ce6:	f9 01       	movw	r30, r18
    3ce8:	20 81       	ld	r18, Z
    3cea:	32 2f       	mov	r19, r18
    3cec:	29 81       	ldd	r18, Y+1	; 0x01
    3cee:	28 70       	andi	r18, 0x08	; 8
    3cf0:	23 2b       	or	r18, r19
    3cf2:	fc 01       	movw	r30, r24
    3cf4:	20 83       	st	Z, r18
    
    ADCSRA |= _BV(ADSC);	 	// ADC Starten
    3cf6:	8a e7       	ldi	r24, 0x7A	; 122
    3cf8:	90 e0       	ldi	r25, 0x00	; 0
    3cfa:	2a e7       	ldi	r18, 0x7A	; 122
    3cfc:	30 e0       	ldi	r19, 0x00	; 0
    3cfe:	f9 01       	movw	r30, r18
    3d00:	20 81       	ld	r18, Z
    3d02:	20 64       	ori	r18, 0x40	; 64
    3d04:	fc 01       	movw	r30, r24
    3d06:	20 83       	st	Z, r18
    while(ADCSRA & _BV(ADSC));// Warten bis Messung abgeschllossen
    3d08:	00 00       	nop
    3d0a:	8a e7       	ldi	r24, 0x7A	; 122
    3d0c:	90 e0       	ldi	r25, 0x00	; 0
    3d0e:	fc 01       	movw	r30, r24
    3d10:	80 81       	ld	r24, Z
    3d12:	88 2f       	mov	r24, r24
    3d14:	90 e0       	ldi	r25, 0x00	; 0
    3d16:	80 74       	andi	r24, 0x40	; 64
    3d18:	99 27       	eor	r25, r25
    3d1a:	89 2b       	or	r24, r25
    3d1c:	b1 f7       	brne	.-20     	; 0x3d0a <adm_ADC_read+0x74>
    
    return ADC;
    3d1e:	88 e7       	ldi	r24, 0x78	; 120
    3d20:	90 e0       	ldi	r25, 0x00	; 0
    3d22:	fc 01       	movw	r30, r24
    3d24:	80 81       	ld	r24, Z
    3d26:	91 81       	ldd	r25, Z+1	; 0x01
    3d28:	0f 90       	pop	r0
    3d2a:	df 91       	pop	r29
    3d2c:	cf 91       	pop	r28
    3d2e:	08 95       	ret

00003d30 <SPI_init>:
#include "SPI.h"

void SPI_init(void)
{
	// SPI einschalten und konfigurieren
	SPCR = SPCR | (1 << SPE) | (1 << MSTR) | (1 << SPR0);
    3d30:	8c b5       	in	r24, 0x2c	; 44
    3d32:	81 65       	ori	r24, 0x51	; 81
    3d34:	8c bd       	out	0x2c, r24	; 44
	// SPI clock setzen
	SPSR = SPSR | (1 << SPI2X);
    3d36:	8d b5       	in	r24, 0x2d	; 45
    3d38:	81 60       	ori	r24, 0x01	; 1
    3d3a:	8d bd       	out	0x2d, r24	; 45
    3d3c:	08 95       	ret

00003d3e <SPI_init_all_USART>:
}

void SPI_init_all_USART(uint8_t baud)
{
	UBRR0 = 0;
    3d3e:	e4 ec       	ldi	r30, 0xC4	; 196
    3d40:	f0 e0       	ldi	r31, 0x00	; 0
    3d42:	11 82       	std	Z+1, r1	; 0x01
    3d44:	10 82       	st	Z, r1
	/* Set MSPI mode of operation and SPI data mode 0. */
	UCSR0C = (1<<UMSEL01)|(1<<UMSEL00)|(0<<2)|(0<<UCPOL0);
    3d46:	30 ec       	ldi	r19, 0xC0	; 192
    3d48:	30 93 c2 00 	sts	0x00C2, r19	; 0x8000c2 <__TEXT_REGION_LENGTH__+0x7c00c2>
	/* Enable receiver and transmitter. */
	UCSR0B = (1<<RXEN0)|(1<<TXEN0);	
    3d4c:	28 e1       	ldi	r18, 0x18	; 24
    3d4e:	20 93 c1 00 	sts	0x00C1, r18	; 0x8000c1 <__TEXT_REGION_LENGTH__+0x7c00c1>
	UBRR0 = baud;
    3d52:	90 e0       	ldi	r25, 0x00	; 0
    3d54:	91 83       	std	Z+1, r25	; 0x01
    3d56:	80 83       	st	Z, r24
	UCSR1C = (1<<UMSEL11)|(1<<UMSEL10)|(0<<2)|(0<<UCPOL1);
	/ * Enable receiver and transmitter. * /
	UCSR1B = (1<<RXEN1)|(1<<TXEN1);
	UBRR1 = baud;*/
	
	UBRR2 = 0;
    3d58:	e4 ed       	ldi	r30, 0xD4	; 212
    3d5a:	f0 e0       	ldi	r31, 0x00	; 0
    3d5c:	11 82       	std	Z+1, r1	; 0x01
    3d5e:	10 82       	st	Z, r1
	/* Set MSPI mode of operation and SPI data mode 0. */
	UCSR2C = (1<<UMSEL21)|(1<<UMSEL20)|(0<<2)|(0<<UCPOL2);
    3d60:	30 93 d2 00 	sts	0x00D2, r19	; 0x8000d2 <__TEXT_REGION_LENGTH__+0x7c00d2>
	/* Enable receiver and transmitter. */
	UCSR2B = (1<<RXEN2)|(1<<TXEN2);
    3d64:	20 93 d1 00 	sts	0x00D1, r18	; 0x8000d1 <__TEXT_REGION_LENGTH__+0x7c00d1>
	UBRR2 = baud;
    3d68:	91 83       	std	Z+1, r25	; 0x01
    3d6a:	80 83       	st	Z, r24
		
	UBRR3 = 0;
    3d6c:	e4 e3       	ldi	r30, 0x34	; 52
    3d6e:	f1 e0       	ldi	r31, 0x01	; 1
    3d70:	11 82       	std	Z+1, r1	; 0x01
    3d72:	10 82       	st	Z, r1
	/* Set MSPI mode of operation and SPI data mode 0. */
	UCSR3C = (1<<UMSEL31)|(1<<UMSEL30)|(0<<2)|(0<<UCPOL3);
    3d74:	30 93 32 01 	sts	0x0132, r19	; 0x800132 <__TEXT_REGION_LENGTH__+0x7c0132>
	/* Enable receiver and transmitter. */
	UCSR3B = (1<<RXEN3)|(1<<TXEN3);
    3d78:	20 93 31 01 	sts	0x0131, r18	; 0x800131 <__TEXT_REGION_LENGTH__+0x7c0131>
	UBRR3 = baud;
    3d7c:	91 83       	std	Z+1, r25	; 0x01
    3d7e:	80 83       	st	Z, r24
    3d80:	08 95       	ret

00003d82 <SPI_init_all>:
}

void SPI_init_all(uint8_t baud)
{
    3d82:	cf 93       	push	r28
    3d84:	c8 2f       	mov	r28, r24
	SPI_init();
    3d86:	d4 df       	rcall	.-88     	; 0x3d30 <SPI_init>
	SPI_init_all_USART(baud);
    3d88:	8c 2f       	mov	r24, r28
    3d8a:	d9 df       	rcall	.-78     	; 0x3d3e <SPI_init_all_USART>
}
    3d8c:	cf 91       	pop	r28
    3d8e:	08 95       	ret

00003d90 <Send2SPI>:
*
*
\*********************************************************************************/
void Send2SPI (uint8_t wert)
{
	SPDR = wert;					// 8Bits senden
    3d90:	8e bd       	out	0x2e, r24	; 46
	while(!(SPSR & (1 << SPIF)));	// warten bis sendung erfolgte
    3d92:	0d b4       	in	r0, 0x2d	; 45
    3d94:	07 fe       	sbrs	r0, 7
    3d96:	fd cf       	rjmp	.-6      	; 0x3d92 <Send2SPI+0x2>
}
    3d98:	08 95       	ret

00003d9a <USART0_Transmit>:

void USART0_Transmit(uint8_t data)
{
	/* Wait for empty transmit buffer */
	while (!( UCSR0A & (1<<UDRE0)));
    3d9a:	90 91 c0 00 	lds	r25, 0x00C0	; 0x8000c0 <__TEXT_REGION_LENGTH__+0x7c00c0>
    3d9e:	95 ff       	sbrs	r25, 5
    3da0:	fc cf       	rjmp	.-8      	; 0x3d9a <USART0_Transmit>
	/* Put data into buffer, sends the data */
	UDR0 = data;
    3da2:	80 93 c6 00 	sts	0x00C6, r24	; 0x8000c6 <__TEXT_REGION_LENGTH__+0x7c00c6>
	/* Wait for data to be received */
	while (!(UCSR0A & (1<<RXC0)));
    3da6:	80 91 c0 00 	lds	r24, 0x00C0	; 0x8000c0 <__TEXT_REGION_LENGTH__+0x7c00c0>
    3daa:	88 23       	and	r24, r24
    3dac:	e4 f7       	brge	.-8      	; 0x3da6 <USART0_Transmit+0xc>
}
    3dae:	08 95       	ret

00003db0 <USART1_Transmit>:

void USART1_Transmit(uint8_t data)
{
	/* Wait for empty transmit buffer */
	while (!( UCSR1A & (1<<UDRE1)));
    3db0:	90 91 c8 00 	lds	r25, 0x00C8	; 0x8000c8 <__TEXT_REGION_LENGTH__+0x7c00c8>
    3db4:	95 ff       	sbrs	r25, 5
    3db6:	fc cf       	rjmp	.-8      	; 0x3db0 <USART1_Transmit>
	/* Put data into buffer, sends the data */
	UDR1 = data;
    3db8:	80 93 ce 00 	sts	0x00CE, r24	; 0x8000ce <__TEXT_REGION_LENGTH__+0x7c00ce>
	/* Wait for data to be received */
	while (!(UCSR1A & (1<<RXC1)));
    3dbc:	80 91 c8 00 	lds	r24, 0x00C8	; 0x8000c8 <__TEXT_REGION_LENGTH__+0x7c00c8>
    3dc0:	88 23       	and	r24, r24
    3dc2:	e4 f7       	brge	.-8      	; 0x3dbc <USART1_Transmit+0xc>
}
    3dc4:	08 95       	ret

00003dc6 <USART2_Transmit>:

void USART2_Transmit(uint8_t data)
{
	/* Wait for empty transmit buffer */
	while (!( UCSR2A & (1<<UDRE2)));
    3dc6:	90 91 d0 00 	lds	r25, 0x00D0	; 0x8000d0 <__TEXT_REGION_LENGTH__+0x7c00d0>
    3dca:	95 ff       	sbrs	r25, 5
    3dcc:	fc cf       	rjmp	.-8      	; 0x3dc6 <USART2_Transmit>
	/* Put data into buffer, sends the data */
	UDR2 = data;
    3dce:	80 93 d6 00 	sts	0x00D6, r24	; 0x8000d6 <__TEXT_REGION_LENGTH__+0x7c00d6>
	/* Wait for data to be received */
	while (!(UCSR2A & (1<<RXC2)));
    3dd2:	80 91 d0 00 	lds	r24, 0x00D0	; 0x8000d0 <__TEXT_REGION_LENGTH__+0x7c00d0>
    3dd6:	88 23       	and	r24, r24
    3dd8:	e4 f7       	brge	.-8      	; 0x3dd2 <USART2_Transmit+0xc>
}
    3dda:	08 95       	ret

00003ddc <USART3_Transmit>:

void USART3_Transmit(uint8_t data)
{
	/* Wait for empty transmit buffer */
	while (!( UCSR3A & (1<<UDRE3)));
    3ddc:	90 91 30 01 	lds	r25, 0x0130	; 0x800130 <__TEXT_REGION_LENGTH__+0x7c0130>
    3de0:	95 ff       	sbrs	r25, 5
    3de2:	fc cf       	rjmp	.-8      	; 0x3ddc <USART3_Transmit>
	/* Put data into buffer, sends the data */
	UDR3 = data;
    3de4:	80 93 36 01 	sts	0x0136, r24	; 0x800136 <__TEXT_REGION_LENGTH__+0x7c0136>
	/* Wait for data to be received */
	while (!(UCSR3A & (1<<RXC3)));
    3de8:	80 91 30 01 	lds	r24, 0x0130	; 0x800130 <__TEXT_REGION_LENGTH__+0x7c0130>
    3dec:	88 23       	and	r24, r24
    3dee:	e4 f7       	brge	.-8      	; 0x3de8 <USART3_Transmit+0xc>
}
    3df0:	08 95       	ret

00003df2 <USART_Transmit>:

void USART_Transmit(uint8_t usart_wahl, uint8_t data)
{
	switch (usart_wahl)
    3df2:	81 30       	cpi	r24, 0x01	; 1
    3df4:	49 f0       	breq	.+18     	; 0x3e08 <USART_Transmit+0x16>
    3df6:	28 f0       	brcs	.+10     	; 0x3e02 <USART_Transmit+0x10>
    3df8:	82 30       	cpi	r24, 0x02	; 2
    3dfa:	49 f0       	breq	.+18     	; 0x3e0e <USART_Transmit+0x1c>
    3dfc:	83 30       	cpi	r24, 0x03	; 3
    3dfe:	51 f0       	breq	.+20     	; 0x3e14 <USART_Transmit+0x22>
    3e00:	08 95       	ret
	{
		case 0:		USART0_Transmit(data);
    3e02:	86 2f       	mov	r24, r22
    3e04:	ca cf       	rjmp	.-108    	; 0x3d9a <USART0_Transmit>
					break;
    3e06:	08 95       	ret
		case 1:		USART1_Transmit(data);
    3e08:	86 2f       	mov	r24, r22
    3e0a:	d2 cf       	rjmp	.-92     	; 0x3db0 <USART1_Transmit>
					break;
		case 2:		USART2_Transmit(data);
    3e0c:	08 95       	ret
    3e0e:	86 2f       	mov	r24, r22
					break;
    3e10:	da cf       	rjmp	.-76     	; 0x3dc6 <USART2_Transmit>
		case 3:		USART3_Transmit(data);
    3e12:	08 95       	ret
    3e14:	86 2f       	mov	r24, r22
    3e16:	e2 cf       	rjmp	.-60     	; 0x3ddc <USART3_Transmit>
    3e18:	08 95       	ret

00003e1a <led_strip_write>:
  0 pulse  = 400 ns
  1 pulse  = 850 ns
  "period" = 1300 ns
 */
void __attribute__((noinline)) led_strip_write(rgb_color * colors) 
{
    3e1a:	fc 01       	movw	r30, r24
  unsigned int count = LED_COUNT;
  // Set the pin to be an output driving low.
  LED_STRIP_PORT &= ~(1<<LED_STRIP_PIN);
    3e1c:	82 b1       	in	r24, 0x02	; 2
    3e1e:	8e 7f       	andi	r24, 0xFE	; 254
    3e20:	82 b9       	out	0x02, r24	; 2
  LED_STRIP_DDR |= (1<<LED_STRIP_PIN);
    3e22:	81 b1       	in	r24, 0x01	; 1
    3e24:	81 60       	ori	r24, 0x01	; 1
    3e26:	81 b9       	out	0x01, r24	; 1

  cli();   // Disable interrupts temporarily because we don't want our pulse timing to be messed up.
    3e28:	f8 94       	cli
  1 pulse  = 850 ns
  "period" = 1300 ns
 */
void __attribute__((noinline)) led_strip_write(rgb_color * colors) 
{
  unsigned int count = LED_COUNT;
    3e2a:	2c e1       	ldi	r18, 0x1C	; 28
    3e2c:	30 e0       	ldi	r19, 0x00	; 0
  // Set the pin to be an output driving low.
  LED_STRIP_PORT &= ~(1<<LED_STRIP_PIN);
  LED_STRIP_DDR |= (1<<LED_STRIP_PIN);

  cli();   // Disable interrupts temporarily because we don't want our pulse timing to be messed up.
  while(count--)
    3e2e:	21 c0       	rjmp	.+66     	; 0x3e72 <led_strip_asm_end23+0x2>
  {
    // Send a color to the LED strip.
    // The assembly below also increments the 'colors' pointer,
    // it will be pointing to the next color at the end of this loop.
    asm volatile(
    3e30:	01 90       	ld	r0, Z+
    3e32:	00 80       	ld	r0, Z
    3e34:	07 d0       	rcall	.+14     	; 0x3e44 <send_led_strip_byte23>
    3e36:	02 90       	ld	r0, -Z
    3e38:	05 d0       	rcall	.+10     	; 0x3e44 <send_led_strip_byte23>
    3e3a:	01 90       	ld	r0, Z+
    3e3c:	01 90       	ld	r0, Z+
    3e3e:	01 90       	ld	r0, Z+
    3e40:	01 d0       	rcall	.+2      	; 0x3e44 <send_led_strip_byte23>
    3e42:	16 c0       	rjmp	.+44     	; 0x3e70 <led_strip_asm_end23>

00003e44 <send_led_strip_byte23>:
    3e44:	07 d0       	rcall	.+14     	; 0x3e54 <send_led_strip_bit23>
    3e46:	06 d0       	rcall	.+12     	; 0x3e54 <send_led_strip_bit23>
    3e48:	05 d0       	rcall	.+10     	; 0x3e54 <send_led_strip_bit23>
    3e4a:	04 d0       	rcall	.+8      	; 0x3e54 <send_led_strip_bit23>
    3e4c:	03 d0       	rcall	.+6      	; 0x3e54 <send_led_strip_bit23>
    3e4e:	02 d0       	rcall	.+4      	; 0x3e54 <send_led_strip_bit23>
    3e50:	01 d0       	rcall	.+2      	; 0x3e54 <send_led_strip_bit23>
    3e52:	00 c0       	rjmp	.+0      	; 0x3e54 <send_led_strip_bit23>

00003e54 <send_led_strip_bit23>:
    3e54:	10 9a       	sbi	0x02, 0	; 2
    3e56:	00 1c       	adc	r0, r0
    3e58:	00 00       	nop
    3e5a:	00 00       	nop
    3e5c:	08 f0       	brcs	.+2      	; 0x3e60 <send_led_strip_bit23+0xc>
    3e5e:	10 98       	cbi	0x02, 0	; 2
	...
    3e68:	00 00       	nop
    3e6a:	08 f4       	brcc	.+2      	; 0x3e6e <send_led_strip_bit23+0x1a>
    3e6c:	10 98       	cbi	0x02, 0	; 2
    3e6e:	08 95       	ret

00003e70 <led_strip_asm_end23>:
  // Set the pin to be an output driving low.
  LED_STRIP_PORT &= ~(1<<LED_STRIP_PIN);
  LED_STRIP_DDR |= (1<<LED_STRIP_PIN);

  cli();   // Disable interrupts temporarily because we don't want our pulse timing to be messed up.
  while(count--)
    3e70:	9a 01       	movw	r18, r20
    3e72:	a9 01       	movw	r20, r18
    3e74:	41 50       	subi	r20, 0x01	; 1
    3e76:	51 09       	sbc	r21, r1
    3e78:	23 2b       	or	r18, r19
    3e7a:	09 f0       	breq	.+2      	; 0x3e7e <led_strip_asm_end23+0xe>
    3e7c:	d9 cf       	rjmp	.-78     	; 0x3e30 <led_strip_write+0x16>
    );

    // Uncomment the line below to temporarily enable interrupts between each color.
    //sei(); asm volatile("nop\n"); cli();
  }
  sei();          // Re-enable interrupts now that we are done.
    3e7e:	78 94       	sei
    milliseconds can be achieved.
 */
void
_delay_loop_2(uint16_t __count)
{
	__asm__ volatile (
    3e80:	80 eb       	ldi	r24, 0xB0	; 176
    3e82:	94 e0       	ldi	r25, 0x04	; 4
    3e84:	01 97       	sbiw	r24, 0x01	; 1
    3e86:	f1 f7       	brne	.-4      	; 0x3e84 <led_strip_asm_end23+0x14>
    3e88:	08 95       	ret

00003e8a <__cmpsf2>:
    3e8a:	d4 d0       	rcall	.+424    	; 0x4034 <__fp_cmp>
    3e8c:	08 f4       	brcc	.+2      	; 0x3e90 <__cmpsf2+0x6>
    3e8e:	81 e0       	ldi	r24, 0x01	; 1
    3e90:	08 95       	ret

00003e92 <__divsf3>:
    3e92:	0c d0       	rcall	.+24     	; 0x3eac <__divsf3x>
    3e94:	0a c1       	rjmp	.+532    	; 0x40aa <__fp_round>
    3e96:	02 d1       	rcall	.+516    	; 0x409c <__fp_pscB>
    3e98:	40 f0       	brcs	.+16     	; 0x3eaa <__divsf3+0x18>
    3e9a:	f9 d0       	rcall	.+498    	; 0x408e <__fp_pscA>
    3e9c:	30 f0       	brcs	.+12     	; 0x3eaa <__divsf3+0x18>
    3e9e:	21 f4       	brne	.+8      	; 0x3ea8 <__divsf3+0x16>
    3ea0:	5f 3f       	cpi	r21, 0xFF	; 255
    3ea2:	19 f0       	breq	.+6      	; 0x3eaa <__divsf3+0x18>
    3ea4:	eb c0       	rjmp	.+470    	; 0x407c <__fp_inf>
    3ea6:	51 11       	cpse	r21, r1
    3ea8:	34 c1       	rjmp	.+616    	; 0x4112 <__fp_szero>
    3eaa:	ee c0       	rjmp	.+476    	; 0x4088 <__fp_nan>

00003eac <__divsf3x>:
    3eac:	0f d1       	rcall	.+542    	; 0x40cc <__fp_split3>
    3eae:	98 f3       	brcs	.-26     	; 0x3e96 <__divsf3+0x4>

00003eb0 <__divsf3_pse>:
    3eb0:	99 23       	and	r25, r25
    3eb2:	c9 f3       	breq	.-14     	; 0x3ea6 <__divsf3+0x14>
    3eb4:	55 23       	and	r21, r21
    3eb6:	b1 f3       	breq	.-20     	; 0x3ea4 <__divsf3+0x12>
    3eb8:	95 1b       	sub	r25, r21
    3eba:	55 0b       	sbc	r21, r21
    3ebc:	bb 27       	eor	r27, r27
    3ebe:	aa 27       	eor	r26, r26
    3ec0:	62 17       	cp	r22, r18
    3ec2:	73 07       	cpc	r23, r19
    3ec4:	84 07       	cpc	r24, r20
    3ec6:	38 f0       	brcs	.+14     	; 0x3ed6 <__divsf3_pse+0x26>
    3ec8:	9f 5f       	subi	r25, 0xFF	; 255
    3eca:	5f 4f       	sbci	r21, 0xFF	; 255
    3ecc:	22 0f       	add	r18, r18
    3ece:	33 1f       	adc	r19, r19
    3ed0:	44 1f       	adc	r20, r20
    3ed2:	aa 1f       	adc	r26, r26
    3ed4:	a9 f3       	breq	.-22     	; 0x3ec0 <__divsf3_pse+0x10>
    3ed6:	33 d0       	rcall	.+102    	; 0x3f3e <__divsf3_pse+0x8e>
    3ed8:	0e 2e       	mov	r0, r30
    3eda:	3a f0       	brmi	.+14     	; 0x3eea <__divsf3_pse+0x3a>
    3edc:	e0 e8       	ldi	r30, 0x80	; 128
    3ede:	30 d0       	rcall	.+96     	; 0x3f40 <__divsf3_pse+0x90>
    3ee0:	91 50       	subi	r25, 0x01	; 1
    3ee2:	50 40       	sbci	r21, 0x00	; 0
    3ee4:	e6 95       	lsr	r30
    3ee6:	00 1c       	adc	r0, r0
    3ee8:	ca f7       	brpl	.-14     	; 0x3edc <__divsf3_pse+0x2c>
    3eea:	29 d0       	rcall	.+82     	; 0x3f3e <__divsf3_pse+0x8e>
    3eec:	fe 2f       	mov	r31, r30
    3eee:	27 d0       	rcall	.+78     	; 0x3f3e <__divsf3_pse+0x8e>
    3ef0:	66 0f       	add	r22, r22
    3ef2:	77 1f       	adc	r23, r23
    3ef4:	88 1f       	adc	r24, r24
    3ef6:	bb 1f       	adc	r27, r27
    3ef8:	26 17       	cp	r18, r22
    3efa:	37 07       	cpc	r19, r23
    3efc:	48 07       	cpc	r20, r24
    3efe:	ab 07       	cpc	r26, r27
    3f00:	b0 e8       	ldi	r27, 0x80	; 128
    3f02:	09 f0       	breq	.+2      	; 0x3f06 <__divsf3_pse+0x56>
    3f04:	bb 0b       	sbc	r27, r27
    3f06:	80 2d       	mov	r24, r0
    3f08:	bf 01       	movw	r22, r30
    3f0a:	ff 27       	eor	r31, r31
    3f0c:	93 58       	subi	r25, 0x83	; 131
    3f0e:	5f 4f       	sbci	r21, 0xFF	; 255
    3f10:	2a f0       	brmi	.+10     	; 0x3f1c <__divsf3_pse+0x6c>
    3f12:	9e 3f       	cpi	r25, 0xFE	; 254
    3f14:	51 05       	cpc	r21, r1
    3f16:	68 f0       	brcs	.+26     	; 0x3f32 <__divsf3_pse+0x82>
    3f18:	b1 c0       	rjmp	.+354    	; 0x407c <__fp_inf>
    3f1a:	fb c0       	rjmp	.+502    	; 0x4112 <__fp_szero>
    3f1c:	5f 3f       	cpi	r21, 0xFF	; 255
    3f1e:	ec f3       	brlt	.-6      	; 0x3f1a <__divsf3_pse+0x6a>
    3f20:	98 3e       	cpi	r25, 0xE8	; 232
    3f22:	dc f3       	brlt	.-10     	; 0x3f1a <__divsf3_pse+0x6a>
    3f24:	86 95       	lsr	r24
    3f26:	77 95       	ror	r23
    3f28:	67 95       	ror	r22
    3f2a:	b7 95       	ror	r27
    3f2c:	f7 95       	ror	r31
    3f2e:	9f 5f       	subi	r25, 0xFF	; 255
    3f30:	c9 f7       	brne	.-14     	; 0x3f24 <__divsf3_pse+0x74>
    3f32:	88 0f       	add	r24, r24
    3f34:	91 1d       	adc	r25, r1
    3f36:	96 95       	lsr	r25
    3f38:	87 95       	ror	r24
    3f3a:	97 f9       	bld	r25, 7
    3f3c:	08 95       	ret
    3f3e:	e1 e0       	ldi	r30, 0x01	; 1
    3f40:	66 0f       	add	r22, r22
    3f42:	77 1f       	adc	r23, r23
    3f44:	88 1f       	adc	r24, r24
    3f46:	bb 1f       	adc	r27, r27
    3f48:	62 17       	cp	r22, r18
    3f4a:	73 07       	cpc	r23, r19
    3f4c:	84 07       	cpc	r24, r20
    3f4e:	ba 07       	cpc	r27, r26
    3f50:	20 f0       	brcs	.+8      	; 0x3f5a <__divsf3_pse+0xaa>
    3f52:	62 1b       	sub	r22, r18
    3f54:	73 0b       	sbc	r23, r19
    3f56:	84 0b       	sbc	r24, r20
    3f58:	ba 0b       	sbc	r27, r26
    3f5a:	ee 1f       	adc	r30, r30
    3f5c:	88 f7       	brcc	.-30     	; 0x3f40 <__divsf3_pse+0x90>
    3f5e:	e0 95       	com	r30
    3f60:	08 95       	ret

00003f62 <__fixunssfsi>:
    3f62:	bc d0       	rcall	.+376    	; 0x40dc <__fp_splitA>
    3f64:	88 f0       	brcs	.+34     	; 0x3f88 <__fixunssfsi+0x26>
    3f66:	9f 57       	subi	r25, 0x7F	; 127
    3f68:	90 f0       	brcs	.+36     	; 0x3f8e <__fixunssfsi+0x2c>
    3f6a:	b9 2f       	mov	r27, r25
    3f6c:	99 27       	eor	r25, r25
    3f6e:	b7 51       	subi	r27, 0x17	; 23
    3f70:	a0 f0       	brcs	.+40     	; 0x3f9a <__fixunssfsi+0x38>
    3f72:	d1 f0       	breq	.+52     	; 0x3fa8 <__fixunssfsi+0x46>
    3f74:	66 0f       	add	r22, r22
    3f76:	77 1f       	adc	r23, r23
    3f78:	88 1f       	adc	r24, r24
    3f7a:	99 1f       	adc	r25, r25
    3f7c:	1a f0       	brmi	.+6      	; 0x3f84 <__fixunssfsi+0x22>
    3f7e:	ba 95       	dec	r27
    3f80:	c9 f7       	brne	.-14     	; 0x3f74 <__fixunssfsi+0x12>
    3f82:	12 c0       	rjmp	.+36     	; 0x3fa8 <__fixunssfsi+0x46>
    3f84:	b1 30       	cpi	r27, 0x01	; 1
    3f86:	81 f0       	breq	.+32     	; 0x3fa8 <__fixunssfsi+0x46>
    3f88:	c3 d0       	rcall	.+390    	; 0x4110 <__fp_zero>
    3f8a:	b1 e0       	ldi	r27, 0x01	; 1
    3f8c:	08 95       	ret
    3f8e:	c0 c0       	rjmp	.+384    	; 0x4110 <__fp_zero>
    3f90:	67 2f       	mov	r22, r23
    3f92:	78 2f       	mov	r23, r24
    3f94:	88 27       	eor	r24, r24
    3f96:	b8 5f       	subi	r27, 0xF8	; 248
    3f98:	39 f0       	breq	.+14     	; 0x3fa8 <__fixunssfsi+0x46>
    3f9a:	b9 3f       	cpi	r27, 0xF9	; 249
    3f9c:	cc f3       	brlt	.-14     	; 0x3f90 <__fixunssfsi+0x2e>
    3f9e:	86 95       	lsr	r24
    3fa0:	77 95       	ror	r23
    3fa2:	67 95       	ror	r22
    3fa4:	b3 95       	inc	r27
    3fa6:	d9 f7       	brne	.-10     	; 0x3f9e <__fixunssfsi+0x3c>
    3fa8:	3e f4       	brtc	.+14     	; 0x3fb8 <__fixunssfsi+0x56>
    3faa:	90 95       	com	r25
    3fac:	80 95       	com	r24
    3fae:	70 95       	com	r23
    3fb0:	61 95       	neg	r22
    3fb2:	7f 4f       	sbci	r23, 0xFF	; 255
    3fb4:	8f 4f       	sbci	r24, 0xFF	; 255
    3fb6:	9f 4f       	sbci	r25, 0xFF	; 255
    3fb8:	08 95       	ret

00003fba <__floatunsisf>:
    3fba:	e8 94       	clt
    3fbc:	09 c0       	rjmp	.+18     	; 0x3fd0 <__floatsisf+0x12>

00003fbe <__floatsisf>:
    3fbe:	97 fb       	bst	r25, 7
    3fc0:	3e f4       	brtc	.+14     	; 0x3fd0 <__floatsisf+0x12>
    3fc2:	90 95       	com	r25
    3fc4:	80 95       	com	r24
    3fc6:	70 95       	com	r23
    3fc8:	61 95       	neg	r22
    3fca:	7f 4f       	sbci	r23, 0xFF	; 255
    3fcc:	8f 4f       	sbci	r24, 0xFF	; 255
    3fce:	9f 4f       	sbci	r25, 0xFF	; 255
    3fd0:	99 23       	and	r25, r25
    3fd2:	a9 f0       	breq	.+42     	; 0x3ffe <__floatsisf+0x40>
    3fd4:	f9 2f       	mov	r31, r25
    3fd6:	96 e9       	ldi	r25, 0x96	; 150
    3fd8:	bb 27       	eor	r27, r27
    3fda:	93 95       	inc	r25
    3fdc:	f6 95       	lsr	r31
    3fde:	87 95       	ror	r24
    3fe0:	77 95       	ror	r23
    3fe2:	67 95       	ror	r22
    3fe4:	b7 95       	ror	r27
    3fe6:	f1 11       	cpse	r31, r1
    3fe8:	f8 cf       	rjmp	.-16     	; 0x3fda <__floatsisf+0x1c>
    3fea:	fa f4       	brpl	.+62     	; 0x402a <__floatsisf+0x6c>
    3fec:	bb 0f       	add	r27, r27
    3fee:	11 f4       	brne	.+4      	; 0x3ff4 <__floatsisf+0x36>
    3ff0:	60 ff       	sbrs	r22, 0
    3ff2:	1b c0       	rjmp	.+54     	; 0x402a <__floatsisf+0x6c>
    3ff4:	6f 5f       	subi	r22, 0xFF	; 255
    3ff6:	7f 4f       	sbci	r23, 0xFF	; 255
    3ff8:	8f 4f       	sbci	r24, 0xFF	; 255
    3ffa:	9f 4f       	sbci	r25, 0xFF	; 255
    3ffc:	16 c0       	rjmp	.+44     	; 0x402a <__floatsisf+0x6c>
    3ffe:	88 23       	and	r24, r24
    4000:	11 f0       	breq	.+4      	; 0x4006 <__floatsisf+0x48>
    4002:	96 e9       	ldi	r25, 0x96	; 150
    4004:	11 c0       	rjmp	.+34     	; 0x4028 <__floatsisf+0x6a>
    4006:	77 23       	and	r23, r23
    4008:	21 f0       	breq	.+8      	; 0x4012 <__floatsisf+0x54>
    400a:	9e e8       	ldi	r25, 0x8E	; 142
    400c:	87 2f       	mov	r24, r23
    400e:	76 2f       	mov	r23, r22
    4010:	05 c0       	rjmp	.+10     	; 0x401c <__floatsisf+0x5e>
    4012:	66 23       	and	r22, r22
    4014:	71 f0       	breq	.+28     	; 0x4032 <__floatsisf+0x74>
    4016:	96 e8       	ldi	r25, 0x86	; 134
    4018:	86 2f       	mov	r24, r22
    401a:	70 e0       	ldi	r23, 0x00	; 0
    401c:	60 e0       	ldi	r22, 0x00	; 0
    401e:	2a f0       	brmi	.+10     	; 0x402a <__floatsisf+0x6c>
    4020:	9a 95       	dec	r25
    4022:	66 0f       	add	r22, r22
    4024:	77 1f       	adc	r23, r23
    4026:	88 1f       	adc	r24, r24
    4028:	da f7       	brpl	.-10     	; 0x4020 <__floatsisf+0x62>
    402a:	88 0f       	add	r24, r24
    402c:	96 95       	lsr	r25
    402e:	87 95       	ror	r24
    4030:	97 f9       	bld	r25, 7
    4032:	08 95       	ret

00004034 <__fp_cmp>:
    4034:	99 0f       	add	r25, r25
    4036:	00 08       	sbc	r0, r0
    4038:	55 0f       	add	r21, r21
    403a:	aa 0b       	sbc	r26, r26
    403c:	e0 e8       	ldi	r30, 0x80	; 128
    403e:	fe ef       	ldi	r31, 0xFE	; 254
    4040:	16 16       	cp	r1, r22
    4042:	17 06       	cpc	r1, r23
    4044:	e8 07       	cpc	r30, r24
    4046:	f9 07       	cpc	r31, r25
    4048:	c0 f0       	brcs	.+48     	; 0x407a <__fp_cmp+0x46>
    404a:	12 16       	cp	r1, r18
    404c:	13 06       	cpc	r1, r19
    404e:	e4 07       	cpc	r30, r20
    4050:	f5 07       	cpc	r31, r21
    4052:	98 f0       	brcs	.+38     	; 0x407a <__fp_cmp+0x46>
    4054:	62 1b       	sub	r22, r18
    4056:	73 0b       	sbc	r23, r19
    4058:	84 0b       	sbc	r24, r20
    405a:	95 0b       	sbc	r25, r21
    405c:	39 f4       	brne	.+14     	; 0x406c <__fp_cmp+0x38>
    405e:	0a 26       	eor	r0, r26
    4060:	61 f0       	breq	.+24     	; 0x407a <__fp_cmp+0x46>
    4062:	23 2b       	or	r18, r19
    4064:	24 2b       	or	r18, r20
    4066:	25 2b       	or	r18, r21
    4068:	21 f4       	brne	.+8      	; 0x4072 <__fp_cmp+0x3e>
    406a:	08 95       	ret
    406c:	0a 26       	eor	r0, r26
    406e:	09 f4       	brne	.+2      	; 0x4072 <__fp_cmp+0x3e>
    4070:	a1 40       	sbci	r26, 0x01	; 1
    4072:	a6 95       	lsr	r26
    4074:	8f ef       	ldi	r24, 0xFF	; 255
    4076:	81 1d       	adc	r24, r1
    4078:	81 1d       	adc	r24, r1
    407a:	08 95       	ret

0000407c <__fp_inf>:
    407c:	97 f9       	bld	r25, 7
    407e:	9f 67       	ori	r25, 0x7F	; 127
    4080:	80 e8       	ldi	r24, 0x80	; 128
    4082:	70 e0       	ldi	r23, 0x00	; 0
    4084:	60 e0       	ldi	r22, 0x00	; 0
    4086:	08 95       	ret

00004088 <__fp_nan>:
    4088:	9f ef       	ldi	r25, 0xFF	; 255
    408a:	80 ec       	ldi	r24, 0xC0	; 192
    408c:	08 95       	ret

0000408e <__fp_pscA>:
    408e:	00 24       	eor	r0, r0
    4090:	0a 94       	dec	r0
    4092:	16 16       	cp	r1, r22
    4094:	17 06       	cpc	r1, r23
    4096:	18 06       	cpc	r1, r24
    4098:	09 06       	cpc	r0, r25
    409a:	08 95       	ret

0000409c <__fp_pscB>:
    409c:	00 24       	eor	r0, r0
    409e:	0a 94       	dec	r0
    40a0:	12 16       	cp	r1, r18
    40a2:	13 06       	cpc	r1, r19
    40a4:	14 06       	cpc	r1, r20
    40a6:	05 06       	cpc	r0, r21
    40a8:	08 95       	ret

000040aa <__fp_round>:
    40aa:	09 2e       	mov	r0, r25
    40ac:	03 94       	inc	r0
    40ae:	00 0c       	add	r0, r0
    40b0:	11 f4       	brne	.+4      	; 0x40b6 <__fp_round+0xc>
    40b2:	88 23       	and	r24, r24
    40b4:	52 f0       	brmi	.+20     	; 0x40ca <__fp_round+0x20>
    40b6:	bb 0f       	add	r27, r27
    40b8:	40 f4       	brcc	.+16     	; 0x40ca <__fp_round+0x20>
    40ba:	bf 2b       	or	r27, r31
    40bc:	11 f4       	brne	.+4      	; 0x40c2 <__fp_round+0x18>
    40be:	60 ff       	sbrs	r22, 0
    40c0:	04 c0       	rjmp	.+8      	; 0x40ca <__fp_round+0x20>
    40c2:	6f 5f       	subi	r22, 0xFF	; 255
    40c4:	7f 4f       	sbci	r23, 0xFF	; 255
    40c6:	8f 4f       	sbci	r24, 0xFF	; 255
    40c8:	9f 4f       	sbci	r25, 0xFF	; 255
    40ca:	08 95       	ret

000040cc <__fp_split3>:
    40cc:	57 fd       	sbrc	r21, 7
    40ce:	90 58       	subi	r25, 0x80	; 128
    40d0:	44 0f       	add	r20, r20
    40d2:	55 1f       	adc	r21, r21
    40d4:	59 f0       	breq	.+22     	; 0x40ec <__fp_splitA+0x10>
    40d6:	5f 3f       	cpi	r21, 0xFF	; 255
    40d8:	71 f0       	breq	.+28     	; 0x40f6 <__fp_splitA+0x1a>
    40da:	47 95       	ror	r20

000040dc <__fp_splitA>:
    40dc:	88 0f       	add	r24, r24
    40de:	97 fb       	bst	r25, 7
    40e0:	99 1f       	adc	r25, r25
    40e2:	61 f0       	breq	.+24     	; 0x40fc <__fp_splitA+0x20>
    40e4:	9f 3f       	cpi	r25, 0xFF	; 255
    40e6:	79 f0       	breq	.+30     	; 0x4106 <__fp_splitA+0x2a>
    40e8:	87 95       	ror	r24
    40ea:	08 95       	ret
    40ec:	12 16       	cp	r1, r18
    40ee:	13 06       	cpc	r1, r19
    40f0:	14 06       	cpc	r1, r20
    40f2:	55 1f       	adc	r21, r21
    40f4:	f2 cf       	rjmp	.-28     	; 0x40da <__fp_split3+0xe>
    40f6:	46 95       	lsr	r20
    40f8:	f1 df       	rcall	.-30     	; 0x40dc <__fp_splitA>
    40fa:	08 c0       	rjmp	.+16     	; 0x410c <__fp_splitA+0x30>
    40fc:	16 16       	cp	r1, r22
    40fe:	17 06       	cpc	r1, r23
    4100:	18 06       	cpc	r1, r24
    4102:	99 1f       	adc	r25, r25
    4104:	f1 cf       	rjmp	.-30     	; 0x40e8 <__fp_splitA+0xc>
    4106:	86 95       	lsr	r24
    4108:	71 05       	cpc	r23, r1
    410a:	61 05       	cpc	r22, r1
    410c:	08 94       	sec
    410e:	08 95       	ret

00004110 <__fp_zero>:
    4110:	e8 94       	clt

00004112 <__fp_szero>:
    4112:	bb 27       	eor	r27, r27
    4114:	66 27       	eor	r22, r22
    4116:	77 27       	eor	r23, r23
    4118:	cb 01       	movw	r24, r22
    411a:	97 f9       	bld	r25, 7
    411c:	08 95       	ret

0000411e <__gesf2>:
    411e:	8a df       	rcall	.-236    	; 0x4034 <__fp_cmp>
    4120:	08 f4       	brcc	.+2      	; 0x4124 <__gesf2+0x6>
    4122:	8f ef       	ldi	r24, 0xFF	; 255
    4124:	08 95       	ret

00004126 <__mulsf3>:
    4126:	0b d0       	rcall	.+22     	; 0x413e <__mulsf3x>
    4128:	c0 cf       	rjmp	.-128    	; 0x40aa <__fp_round>
    412a:	b1 df       	rcall	.-158    	; 0x408e <__fp_pscA>
    412c:	28 f0       	brcs	.+10     	; 0x4138 <__mulsf3+0x12>
    412e:	b6 df       	rcall	.-148    	; 0x409c <__fp_pscB>
    4130:	18 f0       	brcs	.+6      	; 0x4138 <__mulsf3+0x12>
    4132:	95 23       	and	r25, r21
    4134:	09 f0       	breq	.+2      	; 0x4138 <__mulsf3+0x12>
    4136:	a2 cf       	rjmp	.-188    	; 0x407c <__fp_inf>
    4138:	a7 cf       	rjmp	.-178    	; 0x4088 <__fp_nan>
    413a:	11 24       	eor	r1, r1
    413c:	ea cf       	rjmp	.-44     	; 0x4112 <__fp_szero>

0000413e <__mulsf3x>:
    413e:	c6 df       	rcall	.-116    	; 0x40cc <__fp_split3>
    4140:	a0 f3       	brcs	.-24     	; 0x412a <__mulsf3+0x4>

00004142 <__mulsf3_pse>:
    4142:	95 9f       	mul	r25, r21
    4144:	d1 f3       	breq	.-12     	; 0x413a <__mulsf3+0x14>
    4146:	95 0f       	add	r25, r21
    4148:	50 e0       	ldi	r21, 0x00	; 0
    414a:	55 1f       	adc	r21, r21
    414c:	62 9f       	mul	r22, r18
    414e:	f0 01       	movw	r30, r0
    4150:	72 9f       	mul	r23, r18
    4152:	bb 27       	eor	r27, r27
    4154:	f0 0d       	add	r31, r0
    4156:	b1 1d       	adc	r27, r1
    4158:	63 9f       	mul	r22, r19
    415a:	aa 27       	eor	r26, r26
    415c:	f0 0d       	add	r31, r0
    415e:	b1 1d       	adc	r27, r1
    4160:	aa 1f       	adc	r26, r26
    4162:	64 9f       	mul	r22, r20
    4164:	66 27       	eor	r22, r22
    4166:	b0 0d       	add	r27, r0
    4168:	a1 1d       	adc	r26, r1
    416a:	66 1f       	adc	r22, r22
    416c:	82 9f       	mul	r24, r18
    416e:	22 27       	eor	r18, r18
    4170:	b0 0d       	add	r27, r0
    4172:	a1 1d       	adc	r26, r1
    4174:	62 1f       	adc	r22, r18
    4176:	73 9f       	mul	r23, r19
    4178:	b0 0d       	add	r27, r0
    417a:	a1 1d       	adc	r26, r1
    417c:	62 1f       	adc	r22, r18
    417e:	83 9f       	mul	r24, r19
    4180:	a0 0d       	add	r26, r0
    4182:	61 1d       	adc	r22, r1
    4184:	22 1f       	adc	r18, r18
    4186:	74 9f       	mul	r23, r20
    4188:	33 27       	eor	r19, r19
    418a:	a0 0d       	add	r26, r0
    418c:	61 1d       	adc	r22, r1
    418e:	23 1f       	adc	r18, r19
    4190:	84 9f       	mul	r24, r20
    4192:	60 0d       	add	r22, r0
    4194:	21 1d       	adc	r18, r1
    4196:	82 2f       	mov	r24, r18
    4198:	76 2f       	mov	r23, r22
    419a:	6a 2f       	mov	r22, r26
    419c:	11 24       	eor	r1, r1
    419e:	9f 57       	subi	r25, 0x7F	; 127
    41a0:	50 40       	sbci	r21, 0x00	; 0
    41a2:	8a f0       	brmi	.+34     	; 0x41c6 <__mulsf3_pse+0x84>
    41a4:	e1 f0       	breq	.+56     	; 0x41de <__mulsf3_pse+0x9c>
    41a6:	88 23       	and	r24, r24
    41a8:	4a f0       	brmi	.+18     	; 0x41bc <__mulsf3_pse+0x7a>
    41aa:	ee 0f       	add	r30, r30
    41ac:	ff 1f       	adc	r31, r31
    41ae:	bb 1f       	adc	r27, r27
    41b0:	66 1f       	adc	r22, r22
    41b2:	77 1f       	adc	r23, r23
    41b4:	88 1f       	adc	r24, r24
    41b6:	91 50       	subi	r25, 0x01	; 1
    41b8:	50 40       	sbci	r21, 0x00	; 0
    41ba:	a9 f7       	brne	.-22     	; 0x41a6 <__mulsf3_pse+0x64>
    41bc:	9e 3f       	cpi	r25, 0xFE	; 254
    41be:	51 05       	cpc	r21, r1
    41c0:	70 f0       	brcs	.+28     	; 0x41de <__mulsf3_pse+0x9c>
    41c2:	5c cf       	rjmp	.-328    	; 0x407c <__fp_inf>
    41c4:	a6 cf       	rjmp	.-180    	; 0x4112 <__fp_szero>
    41c6:	5f 3f       	cpi	r21, 0xFF	; 255
    41c8:	ec f3       	brlt	.-6      	; 0x41c4 <__mulsf3_pse+0x82>
    41ca:	98 3e       	cpi	r25, 0xE8	; 232
    41cc:	dc f3       	brlt	.-10     	; 0x41c4 <__mulsf3_pse+0x82>
    41ce:	86 95       	lsr	r24
    41d0:	77 95       	ror	r23
    41d2:	67 95       	ror	r22
    41d4:	b7 95       	ror	r27
    41d6:	f7 95       	ror	r31
    41d8:	e7 95       	ror	r30
    41da:	9f 5f       	subi	r25, 0xFF	; 255
    41dc:	c1 f7       	brne	.-16     	; 0x41ce <__mulsf3_pse+0x8c>
    41de:	fe 2b       	or	r31, r30
    41e0:	88 0f       	add	r24, r24
    41e2:	91 1d       	adc	r25, r1
    41e4:	96 95       	lsr	r25
    41e6:	87 95       	ror	r24
    41e8:	97 f9       	bld	r25, 7
    41ea:	08 95       	ret

000041ec <__divmodhi4>:
    41ec:	97 fb       	bst	r25, 7
    41ee:	07 2e       	mov	r0, r23
    41f0:	16 f4       	brtc	.+4      	; 0x41f6 <__divmodhi4+0xa>
    41f2:	00 94       	com	r0
    41f4:	06 d0       	rcall	.+12     	; 0x4202 <__divmodhi4_neg1>
    41f6:	77 fd       	sbrc	r23, 7
    41f8:	08 d0       	rcall	.+16     	; 0x420a <__divmodhi4_neg2>
    41fa:	22 d0       	rcall	.+68     	; 0x4240 <__udivmodhi4>
    41fc:	07 fc       	sbrc	r0, 7
    41fe:	05 d0       	rcall	.+10     	; 0x420a <__divmodhi4_neg2>
    4200:	3e f4       	brtc	.+14     	; 0x4210 <__divmodhi4_exit>

00004202 <__divmodhi4_neg1>:
    4202:	90 95       	com	r25
    4204:	81 95       	neg	r24
    4206:	9f 4f       	sbci	r25, 0xFF	; 255
    4208:	08 95       	ret

0000420a <__divmodhi4_neg2>:
    420a:	70 95       	com	r23
    420c:	61 95       	neg	r22
    420e:	7f 4f       	sbci	r23, 0xFF	; 255

00004210 <__divmodhi4_exit>:
    4210:	08 95       	ret

00004212 <__tablejump2__>:
    4212:	ee 0f       	add	r30, r30
    4214:	ff 1f       	adc	r31, r31
    4216:	88 1f       	adc	r24, r24
    4218:	8b bf       	out	0x3b, r24	; 59
    421a:	07 90       	elpm	r0, Z+
    421c:	f6 91       	elpm	r31, Z
    421e:	e0 2d       	mov	r30, r0
    4220:	19 94       	eijmp

00004222 <__umulhisi3>:
    4222:	a2 9f       	mul	r26, r18
    4224:	b0 01       	movw	r22, r0
    4226:	b3 9f       	mul	r27, r19
    4228:	c0 01       	movw	r24, r0
    422a:	a3 9f       	mul	r26, r19
    422c:	70 0d       	add	r23, r0
    422e:	81 1d       	adc	r24, r1
    4230:	11 24       	eor	r1, r1
    4232:	91 1d       	adc	r25, r1
    4234:	b2 9f       	mul	r27, r18
    4236:	70 0d       	add	r23, r0
    4238:	81 1d       	adc	r24, r1
    423a:	11 24       	eor	r1, r1
    423c:	91 1d       	adc	r25, r1
    423e:	08 95       	ret

00004240 <__udivmodhi4>:
    4240:	aa 1b       	sub	r26, r26
    4242:	bb 1b       	sub	r27, r27
    4244:	51 e1       	ldi	r21, 0x11	; 17
    4246:	07 c0       	rjmp	.+14     	; 0x4256 <__udivmodhi4_ep>

00004248 <__udivmodhi4_loop>:
    4248:	aa 1f       	adc	r26, r26
    424a:	bb 1f       	adc	r27, r27
    424c:	a6 17       	cp	r26, r22
    424e:	b7 07       	cpc	r27, r23
    4250:	10 f0       	brcs	.+4      	; 0x4256 <__udivmodhi4_ep>
    4252:	a6 1b       	sub	r26, r22
    4254:	b7 0b       	sbc	r27, r23

00004256 <__udivmodhi4_ep>:
    4256:	88 1f       	adc	r24, r24
    4258:	99 1f       	adc	r25, r25
    425a:	5a 95       	dec	r21
    425c:	a9 f7       	brne	.-22     	; 0x4248 <__udivmodhi4_loop>
    425e:	80 95       	com	r24
    4260:	90 95       	com	r25
    4262:	bc 01       	movw	r22, r24
    4264:	cd 01       	movw	r24, r26
    4266:	08 95       	ret

00004268 <do_rand>:
    4268:	8f 92       	push	r8
    426a:	9f 92       	push	r9
    426c:	af 92       	push	r10
    426e:	bf 92       	push	r11
    4270:	cf 92       	push	r12
    4272:	df 92       	push	r13
    4274:	ef 92       	push	r14
    4276:	ff 92       	push	r15
    4278:	cf 93       	push	r28
    427a:	df 93       	push	r29
    427c:	ec 01       	movw	r28, r24
    427e:	68 81       	ld	r22, Y
    4280:	79 81       	ldd	r23, Y+1	; 0x01
    4282:	8a 81       	ldd	r24, Y+2	; 0x02
    4284:	9b 81       	ldd	r25, Y+3	; 0x03
    4286:	61 15       	cp	r22, r1
    4288:	71 05       	cpc	r23, r1
    428a:	81 05       	cpc	r24, r1
    428c:	91 05       	cpc	r25, r1
    428e:	21 f4       	brne	.+8      	; 0x4298 <do_rand+0x30>
    4290:	64 e2       	ldi	r22, 0x24	; 36
    4292:	79 ed       	ldi	r23, 0xD9	; 217
    4294:	8b e5       	ldi	r24, 0x5B	; 91
    4296:	97 e0       	ldi	r25, 0x07	; 7
    4298:	2d e1       	ldi	r18, 0x1D	; 29
    429a:	33 ef       	ldi	r19, 0xF3	; 243
    429c:	41 e0       	ldi	r20, 0x01	; 1
    429e:	50 e0       	ldi	r21, 0x00	; 0
    42a0:	13 d3       	rcall	.+1574   	; 0x48c8 <__divmodsi4>
    42a2:	49 01       	movw	r8, r18
    42a4:	5a 01       	movw	r10, r20
    42a6:	9b 01       	movw	r18, r22
    42a8:	ac 01       	movw	r20, r24
    42aa:	a7 ea       	ldi	r26, 0xA7	; 167
    42ac:	b1 e4       	ldi	r27, 0x41	; 65
    42ae:	28 d3       	rcall	.+1616   	; 0x4900 <__muluhisi3>
    42b0:	6b 01       	movw	r12, r22
    42b2:	7c 01       	movw	r14, r24
    42b4:	ac ee       	ldi	r26, 0xEC	; 236
    42b6:	b4 ef       	ldi	r27, 0xF4	; 244
    42b8:	a5 01       	movw	r20, r10
    42ba:	94 01       	movw	r18, r8
    42bc:	2d d3       	rcall	.+1626   	; 0x4918 <__mulohisi3>
    42be:	dc 01       	movw	r26, r24
    42c0:	cb 01       	movw	r24, r22
    42c2:	8c 0d       	add	r24, r12
    42c4:	9d 1d       	adc	r25, r13
    42c6:	ae 1d       	adc	r26, r14
    42c8:	bf 1d       	adc	r27, r15
    42ca:	b7 ff       	sbrs	r27, 7
    42cc:	03 c0       	rjmp	.+6      	; 0x42d4 <do_rand+0x6c>
    42ce:	01 97       	sbiw	r24, 0x01	; 1
    42d0:	a1 09       	sbc	r26, r1
    42d2:	b0 48       	sbci	r27, 0x80	; 128
    42d4:	88 83       	st	Y, r24
    42d6:	99 83       	std	Y+1, r25	; 0x01
    42d8:	aa 83       	std	Y+2, r26	; 0x02
    42da:	bb 83       	std	Y+3, r27	; 0x03
    42dc:	9f 77       	andi	r25, 0x7F	; 127
    42de:	df 91       	pop	r29
    42e0:	cf 91       	pop	r28
    42e2:	ff 90       	pop	r15
    42e4:	ef 90       	pop	r14
    42e6:	df 90       	pop	r13
    42e8:	cf 90       	pop	r12
    42ea:	bf 90       	pop	r11
    42ec:	af 90       	pop	r10
    42ee:	9f 90       	pop	r9
    42f0:	8f 90       	pop	r8
    42f2:	08 95       	ret

000042f4 <rand_r>:
    42f4:	b9 cf       	rjmp	.-142    	; 0x4268 <do_rand>

000042f6 <rand>:
    42f6:	80 e0       	ldi	r24, 0x00	; 0
    42f8:	92 e0       	ldi	r25, 0x02	; 2
    42fa:	b6 cf       	rjmp	.-148    	; 0x4268 <do_rand>

000042fc <srand>:
    42fc:	a0 e0       	ldi	r26, 0x00	; 0
    42fe:	b0 e0       	ldi	r27, 0x00	; 0
    4300:	80 93 00 02 	sts	0x0200, r24	; 0x800200 <__DATA_REGION_ORIGIN__>
    4304:	90 93 01 02 	sts	0x0201, r25	; 0x800201 <__DATA_REGION_ORIGIN__+0x1>
    4308:	a0 93 02 02 	sts	0x0202, r26	; 0x800202 <__DATA_REGION_ORIGIN__+0x2>
    430c:	b0 93 03 02 	sts	0x0203, r27	; 0x800203 <__DATA_REGION_ORIGIN__+0x3>
    4310:	08 95       	ret

00004312 <sprintf>:
    4312:	0f 93       	push	r16
    4314:	1f 93       	push	r17
    4316:	cf 93       	push	r28
    4318:	df 93       	push	r29
    431a:	cd b7       	in	r28, 0x3d	; 61
    431c:	de b7       	in	r29, 0x3e	; 62
    431e:	2e 97       	sbiw	r28, 0x0e	; 14
    4320:	0f b6       	in	r0, 0x3f	; 63
    4322:	f8 94       	cli
    4324:	de bf       	out	0x3e, r29	; 62
    4326:	0f be       	out	0x3f, r0	; 63
    4328:	cd bf       	out	0x3d, r28	; 61
    432a:	0e 89       	ldd	r16, Y+22	; 0x16
    432c:	1f 89       	ldd	r17, Y+23	; 0x17
    432e:	86 e0       	ldi	r24, 0x06	; 6
    4330:	8c 83       	std	Y+4, r24	; 0x04
    4332:	1a 83       	std	Y+2, r17	; 0x02
    4334:	09 83       	std	Y+1, r16	; 0x01
    4336:	8f ef       	ldi	r24, 0xFF	; 255
    4338:	9f e7       	ldi	r25, 0x7F	; 127
    433a:	9e 83       	std	Y+6, r25	; 0x06
    433c:	8d 83       	std	Y+5, r24	; 0x05
    433e:	ae 01       	movw	r20, r28
    4340:	46 5e       	subi	r20, 0xE6	; 230
    4342:	5f 4f       	sbci	r21, 0xFF	; 255
    4344:	68 8d       	ldd	r22, Y+24	; 0x18
    4346:	79 8d       	ldd	r23, Y+25	; 0x19
    4348:	ce 01       	movw	r24, r28
    434a:	01 96       	adiw	r24, 0x01	; 1
    434c:	10 d0       	rcall	.+32     	; 0x436e <vfprintf>
    434e:	ef 81       	ldd	r30, Y+7	; 0x07
    4350:	f8 85       	ldd	r31, Y+8	; 0x08
    4352:	e0 0f       	add	r30, r16
    4354:	f1 1f       	adc	r31, r17
    4356:	10 82       	st	Z, r1
    4358:	2e 96       	adiw	r28, 0x0e	; 14
    435a:	0f b6       	in	r0, 0x3f	; 63
    435c:	f8 94       	cli
    435e:	de bf       	out	0x3e, r29	; 62
    4360:	0f be       	out	0x3f, r0	; 63
    4362:	cd bf       	out	0x3d, r28	; 61
    4364:	df 91       	pop	r29
    4366:	cf 91       	pop	r28
    4368:	1f 91       	pop	r17
    436a:	0f 91       	pop	r16
    436c:	08 95       	ret

0000436e <vfprintf>:
    436e:	2f 92       	push	r2
    4370:	3f 92       	push	r3
    4372:	4f 92       	push	r4
    4374:	5f 92       	push	r5
    4376:	6f 92       	push	r6
    4378:	7f 92       	push	r7
    437a:	8f 92       	push	r8
    437c:	9f 92       	push	r9
    437e:	af 92       	push	r10
    4380:	bf 92       	push	r11
    4382:	cf 92       	push	r12
    4384:	df 92       	push	r13
    4386:	ef 92       	push	r14
    4388:	ff 92       	push	r15
    438a:	0f 93       	push	r16
    438c:	1f 93       	push	r17
    438e:	cf 93       	push	r28
    4390:	df 93       	push	r29
    4392:	cd b7       	in	r28, 0x3d	; 61
    4394:	de b7       	in	r29, 0x3e	; 62
    4396:	2b 97       	sbiw	r28, 0x0b	; 11
    4398:	0f b6       	in	r0, 0x3f	; 63
    439a:	f8 94       	cli
    439c:	de bf       	out	0x3e, r29	; 62
    439e:	0f be       	out	0x3f, r0	; 63
    43a0:	cd bf       	out	0x3d, r28	; 61
    43a2:	6c 01       	movw	r12, r24
    43a4:	7b 01       	movw	r14, r22
    43a6:	8a 01       	movw	r16, r20
    43a8:	fc 01       	movw	r30, r24
    43aa:	17 82       	std	Z+7, r1	; 0x07
    43ac:	16 82       	std	Z+6, r1	; 0x06
    43ae:	83 81       	ldd	r24, Z+3	; 0x03
    43b0:	81 ff       	sbrs	r24, 1
    43b2:	bf c1       	rjmp	.+894    	; 0x4732 <vfprintf+0x3c4>
    43b4:	ce 01       	movw	r24, r28
    43b6:	01 96       	adiw	r24, 0x01	; 1
    43b8:	3c 01       	movw	r6, r24
    43ba:	f6 01       	movw	r30, r12
    43bc:	93 81       	ldd	r25, Z+3	; 0x03
    43be:	f7 01       	movw	r30, r14
    43c0:	93 fd       	sbrc	r25, 3
    43c2:	85 91       	lpm	r24, Z+
    43c4:	93 ff       	sbrs	r25, 3
    43c6:	81 91       	ld	r24, Z+
    43c8:	7f 01       	movw	r14, r30
    43ca:	88 23       	and	r24, r24
    43cc:	09 f4       	brne	.+2      	; 0x43d0 <vfprintf+0x62>
    43ce:	ad c1       	rjmp	.+858    	; 0x472a <vfprintf+0x3bc>
    43d0:	85 32       	cpi	r24, 0x25	; 37
    43d2:	39 f4       	brne	.+14     	; 0x43e2 <vfprintf+0x74>
    43d4:	93 fd       	sbrc	r25, 3
    43d6:	85 91       	lpm	r24, Z+
    43d8:	93 ff       	sbrs	r25, 3
    43da:	81 91       	ld	r24, Z+
    43dc:	7f 01       	movw	r14, r30
    43de:	85 32       	cpi	r24, 0x25	; 37
    43e0:	21 f4       	brne	.+8      	; 0x43ea <vfprintf+0x7c>
    43e2:	b6 01       	movw	r22, r12
    43e4:	90 e0       	ldi	r25, 0x00	; 0
    43e6:	d6 d1       	rcall	.+940    	; 0x4794 <fputc>
    43e8:	e8 cf       	rjmp	.-48     	; 0x43ba <vfprintf+0x4c>
    43ea:	91 2c       	mov	r9, r1
    43ec:	21 2c       	mov	r2, r1
    43ee:	31 2c       	mov	r3, r1
    43f0:	ff e1       	ldi	r31, 0x1F	; 31
    43f2:	f3 15       	cp	r31, r3
    43f4:	d8 f0       	brcs	.+54     	; 0x442c <vfprintf+0xbe>
    43f6:	8b 32       	cpi	r24, 0x2B	; 43
    43f8:	79 f0       	breq	.+30     	; 0x4418 <vfprintf+0xaa>
    43fa:	38 f4       	brcc	.+14     	; 0x440a <vfprintf+0x9c>
    43fc:	80 32       	cpi	r24, 0x20	; 32
    43fe:	79 f0       	breq	.+30     	; 0x441e <vfprintf+0xb0>
    4400:	83 32       	cpi	r24, 0x23	; 35
    4402:	a1 f4       	brne	.+40     	; 0x442c <vfprintf+0xbe>
    4404:	23 2d       	mov	r18, r3
    4406:	20 61       	ori	r18, 0x10	; 16
    4408:	1d c0       	rjmp	.+58     	; 0x4444 <vfprintf+0xd6>
    440a:	8d 32       	cpi	r24, 0x2D	; 45
    440c:	61 f0       	breq	.+24     	; 0x4426 <vfprintf+0xb8>
    440e:	80 33       	cpi	r24, 0x30	; 48
    4410:	69 f4       	brne	.+26     	; 0x442c <vfprintf+0xbe>
    4412:	23 2d       	mov	r18, r3
    4414:	21 60       	ori	r18, 0x01	; 1
    4416:	16 c0       	rjmp	.+44     	; 0x4444 <vfprintf+0xd6>
    4418:	83 2d       	mov	r24, r3
    441a:	82 60       	ori	r24, 0x02	; 2
    441c:	38 2e       	mov	r3, r24
    441e:	e3 2d       	mov	r30, r3
    4420:	e4 60       	ori	r30, 0x04	; 4
    4422:	3e 2e       	mov	r3, r30
    4424:	2a c0       	rjmp	.+84     	; 0x447a <vfprintf+0x10c>
    4426:	f3 2d       	mov	r31, r3
    4428:	f8 60       	ori	r31, 0x08	; 8
    442a:	1d c0       	rjmp	.+58     	; 0x4466 <vfprintf+0xf8>
    442c:	37 fc       	sbrc	r3, 7
    442e:	2d c0       	rjmp	.+90     	; 0x448a <vfprintf+0x11c>
    4430:	20 ed       	ldi	r18, 0xD0	; 208
    4432:	28 0f       	add	r18, r24
    4434:	2a 30       	cpi	r18, 0x0A	; 10
    4436:	40 f0       	brcs	.+16     	; 0x4448 <vfprintf+0xda>
    4438:	8e 32       	cpi	r24, 0x2E	; 46
    443a:	b9 f4       	brne	.+46     	; 0x446a <vfprintf+0xfc>
    443c:	36 fc       	sbrc	r3, 6
    443e:	75 c1       	rjmp	.+746    	; 0x472a <vfprintf+0x3bc>
    4440:	23 2d       	mov	r18, r3
    4442:	20 64       	ori	r18, 0x40	; 64
    4444:	32 2e       	mov	r3, r18
    4446:	19 c0       	rjmp	.+50     	; 0x447a <vfprintf+0x10c>
    4448:	36 fe       	sbrs	r3, 6
    444a:	06 c0       	rjmp	.+12     	; 0x4458 <vfprintf+0xea>
    444c:	8a e0       	ldi	r24, 0x0A	; 10
    444e:	98 9e       	mul	r9, r24
    4450:	20 0d       	add	r18, r0
    4452:	11 24       	eor	r1, r1
    4454:	92 2e       	mov	r9, r18
    4456:	11 c0       	rjmp	.+34     	; 0x447a <vfprintf+0x10c>
    4458:	ea e0       	ldi	r30, 0x0A	; 10
    445a:	2e 9e       	mul	r2, r30
    445c:	20 0d       	add	r18, r0
    445e:	11 24       	eor	r1, r1
    4460:	22 2e       	mov	r2, r18
    4462:	f3 2d       	mov	r31, r3
    4464:	f0 62       	ori	r31, 0x20	; 32
    4466:	3f 2e       	mov	r3, r31
    4468:	08 c0       	rjmp	.+16     	; 0x447a <vfprintf+0x10c>
    446a:	8c 36       	cpi	r24, 0x6C	; 108
    446c:	21 f4       	brne	.+8      	; 0x4476 <vfprintf+0x108>
    446e:	83 2d       	mov	r24, r3
    4470:	80 68       	ori	r24, 0x80	; 128
    4472:	38 2e       	mov	r3, r24
    4474:	02 c0       	rjmp	.+4      	; 0x447a <vfprintf+0x10c>
    4476:	88 36       	cpi	r24, 0x68	; 104
    4478:	41 f4       	brne	.+16     	; 0x448a <vfprintf+0x11c>
    447a:	f7 01       	movw	r30, r14
    447c:	93 fd       	sbrc	r25, 3
    447e:	85 91       	lpm	r24, Z+
    4480:	93 ff       	sbrs	r25, 3
    4482:	81 91       	ld	r24, Z+
    4484:	7f 01       	movw	r14, r30
    4486:	81 11       	cpse	r24, r1
    4488:	b3 cf       	rjmp	.-154    	; 0x43f0 <vfprintf+0x82>
    448a:	98 2f       	mov	r25, r24
    448c:	9f 7d       	andi	r25, 0xDF	; 223
    448e:	95 54       	subi	r25, 0x45	; 69
    4490:	93 30       	cpi	r25, 0x03	; 3
    4492:	28 f4       	brcc	.+10     	; 0x449e <vfprintf+0x130>
    4494:	0c 5f       	subi	r16, 0xFC	; 252
    4496:	1f 4f       	sbci	r17, 0xFF	; 255
    4498:	9f e3       	ldi	r25, 0x3F	; 63
    449a:	99 83       	std	Y+1, r25	; 0x01
    449c:	0d c0       	rjmp	.+26     	; 0x44b8 <vfprintf+0x14a>
    449e:	83 36       	cpi	r24, 0x63	; 99
    44a0:	31 f0       	breq	.+12     	; 0x44ae <vfprintf+0x140>
    44a2:	83 37       	cpi	r24, 0x73	; 115
    44a4:	71 f0       	breq	.+28     	; 0x44c2 <vfprintf+0x154>
    44a6:	83 35       	cpi	r24, 0x53	; 83
    44a8:	09 f0       	breq	.+2      	; 0x44ac <vfprintf+0x13e>
    44aa:	55 c0       	rjmp	.+170    	; 0x4556 <vfprintf+0x1e8>
    44ac:	20 c0       	rjmp	.+64     	; 0x44ee <vfprintf+0x180>
    44ae:	f8 01       	movw	r30, r16
    44b0:	80 81       	ld	r24, Z
    44b2:	89 83       	std	Y+1, r24	; 0x01
    44b4:	0e 5f       	subi	r16, 0xFE	; 254
    44b6:	1f 4f       	sbci	r17, 0xFF	; 255
    44b8:	88 24       	eor	r8, r8
    44ba:	83 94       	inc	r8
    44bc:	91 2c       	mov	r9, r1
    44be:	53 01       	movw	r10, r6
    44c0:	12 c0       	rjmp	.+36     	; 0x44e6 <vfprintf+0x178>
    44c2:	28 01       	movw	r4, r16
    44c4:	f2 e0       	ldi	r31, 0x02	; 2
    44c6:	4f 0e       	add	r4, r31
    44c8:	51 1c       	adc	r5, r1
    44ca:	f8 01       	movw	r30, r16
    44cc:	a0 80       	ld	r10, Z
    44ce:	b1 80       	ldd	r11, Z+1	; 0x01
    44d0:	36 fe       	sbrs	r3, 6
    44d2:	03 c0       	rjmp	.+6      	; 0x44da <vfprintf+0x16c>
    44d4:	69 2d       	mov	r22, r9
    44d6:	70 e0       	ldi	r23, 0x00	; 0
    44d8:	02 c0       	rjmp	.+4      	; 0x44de <vfprintf+0x170>
    44da:	6f ef       	ldi	r22, 0xFF	; 255
    44dc:	7f ef       	ldi	r23, 0xFF	; 255
    44de:	c5 01       	movw	r24, r10
    44e0:	4e d1       	rcall	.+668    	; 0x477e <strnlen>
    44e2:	4c 01       	movw	r8, r24
    44e4:	82 01       	movw	r16, r4
    44e6:	f3 2d       	mov	r31, r3
    44e8:	ff 77       	andi	r31, 0x7F	; 127
    44ea:	3f 2e       	mov	r3, r31
    44ec:	15 c0       	rjmp	.+42     	; 0x4518 <vfprintf+0x1aa>
    44ee:	28 01       	movw	r4, r16
    44f0:	22 e0       	ldi	r18, 0x02	; 2
    44f2:	42 0e       	add	r4, r18
    44f4:	51 1c       	adc	r5, r1
    44f6:	f8 01       	movw	r30, r16
    44f8:	a0 80       	ld	r10, Z
    44fa:	b1 80       	ldd	r11, Z+1	; 0x01
    44fc:	36 fe       	sbrs	r3, 6
    44fe:	03 c0       	rjmp	.+6      	; 0x4506 <vfprintf+0x198>
    4500:	69 2d       	mov	r22, r9
    4502:	70 e0       	ldi	r23, 0x00	; 0
    4504:	02 c0       	rjmp	.+4      	; 0x450a <vfprintf+0x19c>
    4506:	6f ef       	ldi	r22, 0xFF	; 255
    4508:	7f ef       	ldi	r23, 0xFF	; 255
    450a:	c5 01       	movw	r24, r10
    450c:	2d d1       	rcall	.+602    	; 0x4768 <strnlen_P>
    450e:	4c 01       	movw	r8, r24
    4510:	f3 2d       	mov	r31, r3
    4512:	f0 68       	ori	r31, 0x80	; 128
    4514:	3f 2e       	mov	r3, r31
    4516:	82 01       	movw	r16, r4
    4518:	33 fc       	sbrc	r3, 3
    451a:	19 c0       	rjmp	.+50     	; 0x454e <vfprintf+0x1e0>
    451c:	82 2d       	mov	r24, r2
    451e:	90 e0       	ldi	r25, 0x00	; 0
    4520:	88 16       	cp	r8, r24
    4522:	99 06       	cpc	r9, r25
    4524:	a0 f4       	brcc	.+40     	; 0x454e <vfprintf+0x1e0>
    4526:	b6 01       	movw	r22, r12
    4528:	80 e2       	ldi	r24, 0x20	; 32
    452a:	90 e0       	ldi	r25, 0x00	; 0
    452c:	33 d1       	rcall	.+614    	; 0x4794 <fputc>
    452e:	2a 94       	dec	r2
    4530:	f5 cf       	rjmp	.-22     	; 0x451c <vfprintf+0x1ae>
    4532:	f5 01       	movw	r30, r10
    4534:	37 fc       	sbrc	r3, 7
    4536:	85 91       	lpm	r24, Z+
    4538:	37 fe       	sbrs	r3, 7
    453a:	81 91       	ld	r24, Z+
    453c:	5f 01       	movw	r10, r30
    453e:	b6 01       	movw	r22, r12
    4540:	90 e0       	ldi	r25, 0x00	; 0
    4542:	28 d1       	rcall	.+592    	; 0x4794 <fputc>
    4544:	21 10       	cpse	r2, r1
    4546:	2a 94       	dec	r2
    4548:	21 e0       	ldi	r18, 0x01	; 1
    454a:	82 1a       	sub	r8, r18
    454c:	91 08       	sbc	r9, r1
    454e:	81 14       	cp	r8, r1
    4550:	91 04       	cpc	r9, r1
    4552:	79 f7       	brne	.-34     	; 0x4532 <vfprintf+0x1c4>
    4554:	e1 c0       	rjmp	.+450    	; 0x4718 <vfprintf+0x3aa>
    4556:	84 36       	cpi	r24, 0x64	; 100
    4558:	11 f0       	breq	.+4      	; 0x455e <vfprintf+0x1f0>
    455a:	89 36       	cpi	r24, 0x69	; 105
    455c:	39 f5       	brne	.+78     	; 0x45ac <vfprintf+0x23e>
    455e:	f8 01       	movw	r30, r16
    4560:	37 fe       	sbrs	r3, 7
    4562:	07 c0       	rjmp	.+14     	; 0x4572 <vfprintf+0x204>
    4564:	60 81       	ld	r22, Z
    4566:	71 81       	ldd	r23, Z+1	; 0x01
    4568:	82 81       	ldd	r24, Z+2	; 0x02
    456a:	93 81       	ldd	r25, Z+3	; 0x03
    456c:	0c 5f       	subi	r16, 0xFC	; 252
    456e:	1f 4f       	sbci	r17, 0xFF	; 255
    4570:	08 c0       	rjmp	.+16     	; 0x4582 <vfprintf+0x214>
    4572:	60 81       	ld	r22, Z
    4574:	71 81       	ldd	r23, Z+1	; 0x01
    4576:	07 2e       	mov	r0, r23
    4578:	00 0c       	add	r0, r0
    457a:	88 0b       	sbc	r24, r24
    457c:	99 0b       	sbc	r25, r25
    457e:	0e 5f       	subi	r16, 0xFE	; 254
    4580:	1f 4f       	sbci	r17, 0xFF	; 255
    4582:	f3 2d       	mov	r31, r3
    4584:	ff 76       	andi	r31, 0x6F	; 111
    4586:	3f 2e       	mov	r3, r31
    4588:	97 ff       	sbrs	r25, 7
    458a:	09 c0       	rjmp	.+18     	; 0x459e <vfprintf+0x230>
    458c:	90 95       	com	r25
    458e:	80 95       	com	r24
    4590:	70 95       	com	r23
    4592:	61 95       	neg	r22
    4594:	7f 4f       	sbci	r23, 0xFF	; 255
    4596:	8f 4f       	sbci	r24, 0xFF	; 255
    4598:	9f 4f       	sbci	r25, 0xFF	; 255
    459a:	f0 68       	ori	r31, 0x80	; 128
    459c:	3f 2e       	mov	r3, r31
    459e:	2a e0       	ldi	r18, 0x0A	; 10
    45a0:	30 e0       	ldi	r19, 0x00	; 0
    45a2:	a3 01       	movw	r20, r6
    45a4:	33 d1       	rcall	.+614    	; 0x480c <__ultoa_invert>
    45a6:	88 2e       	mov	r8, r24
    45a8:	86 18       	sub	r8, r6
    45aa:	44 c0       	rjmp	.+136    	; 0x4634 <vfprintf+0x2c6>
    45ac:	85 37       	cpi	r24, 0x75	; 117
    45ae:	31 f4       	brne	.+12     	; 0x45bc <vfprintf+0x24e>
    45b0:	23 2d       	mov	r18, r3
    45b2:	2f 7e       	andi	r18, 0xEF	; 239
    45b4:	b2 2e       	mov	r11, r18
    45b6:	2a e0       	ldi	r18, 0x0A	; 10
    45b8:	30 e0       	ldi	r19, 0x00	; 0
    45ba:	25 c0       	rjmp	.+74     	; 0x4606 <vfprintf+0x298>
    45bc:	93 2d       	mov	r25, r3
    45be:	99 7f       	andi	r25, 0xF9	; 249
    45c0:	b9 2e       	mov	r11, r25
    45c2:	8f 36       	cpi	r24, 0x6F	; 111
    45c4:	c1 f0       	breq	.+48     	; 0x45f6 <vfprintf+0x288>
    45c6:	18 f4       	brcc	.+6      	; 0x45ce <vfprintf+0x260>
    45c8:	88 35       	cpi	r24, 0x58	; 88
    45ca:	79 f0       	breq	.+30     	; 0x45ea <vfprintf+0x27c>
    45cc:	ae c0       	rjmp	.+348    	; 0x472a <vfprintf+0x3bc>
    45ce:	80 37       	cpi	r24, 0x70	; 112
    45d0:	19 f0       	breq	.+6      	; 0x45d8 <vfprintf+0x26a>
    45d2:	88 37       	cpi	r24, 0x78	; 120
    45d4:	21 f0       	breq	.+8      	; 0x45de <vfprintf+0x270>
    45d6:	a9 c0       	rjmp	.+338    	; 0x472a <vfprintf+0x3bc>
    45d8:	e9 2f       	mov	r30, r25
    45da:	e0 61       	ori	r30, 0x10	; 16
    45dc:	be 2e       	mov	r11, r30
    45de:	b4 fe       	sbrs	r11, 4
    45e0:	0d c0       	rjmp	.+26     	; 0x45fc <vfprintf+0x28e>
    45e2:	fb 2d       	mov	r31, r11
    45e4:	f4 60       	ori	r31, 0x04	; 4
    45e6:	bf 2e       	mov	r11, r31
    45e8:	09 c0       	rjmp	.+18     	; 0x45fc <vfprintf+0x28e>
    45ea:	34 fe       	sbrs	r3, 4
    45ec:	0a c0       	rjmp	.+20     	; 0x4602 <vfprintf+0x294>
    45ee:	29 2f       	mov	r18, r25
    45f0:	26 60       	ori	r18, 0x06	; 6
    45f2:	b2 2e       	mov	r11, r18
    45f4:	06 c0       	rjmp	.+12     	; 0x4602 <vfprintf+0x294>
    45f6:	28 e0       	ldi	r18, 0x08	; 8
    45f8:	30 e0       	ldi	r19, 0x00	; 0
    45fa:	05 c0       	rjmp	.+10     	; 0x4606 <vfprintf+0x298>
    45fc:	20 e1       	ldi	r18, 0x10	; 16
    45fe:	30 e0       	ldi	r19, 0x00	; 0
    4600:	02 c0       	rjmp	.+4      	; 0x4606 <vfprintf+0x298>
    4602:	20 e1       	ldi	r18, 0x10	; 16
    4604:	32 e0       	ldi	r19, 0x02	; 2
    4606:	f8 01       	movw	r30, r16
    4608:	b7 fe       	sbrs	r11, 7
    460a:	07 c0       	rjmp	.+14     	; 0x461a <vfprintf+0x2ac>
    460c:	60 81       	ld	r22, Z
    460e:	71 81       	ldd	r23, Z+1	; 0x01
    4610:	82 81       	ldd	r24, Z+2	; 0x02
    4612:	93 81       	ldd	r25, Z+3	; 0x03
    4614:	0c 5f       	subi	r16, 0xFC	; 252
    4616:	1f 4f       	sbci	r17, 0xFF	; 255
    4618:	06 c0       	rjmp	.+12     	; 0x4626 <vfprintf+0x2b8>
    461a:	60 81       	ld	r22, Z
    461c:	71 81       	ldd	r23, Z+1	; 0x01
    461e:	80 e0       	ldi	r24, 0x00	; 0
    4620:	90 e0       	ldi	r25, 0x00	; 0
    4622:	0e 5f       	subi	r16, 0xFE	; 254
    4624:	1f 4f       	sbci	r17, 0xFF	; 255
    4626:	a3 01       	movw	r20, r6
    4628:	f1 d0       	rcall	.+482    	; 0x480c <__ultoa_invert>
    462a:	88 2e       	mov	r8, r24
    462c:	86 18       	sub	r8, r6
    462e:	fb 2d       	mov	r31, r11
    4630:	ff 77       	andi	r31, 0x7F	; 127
    4632:	3f 2e       	mov	r3, r31
    4634:	36 fe       	sbrs	r3, 6
    4636:	0d c0       	rjmp	.+26     	; 0x4652 <vfprintf+0x2e4>
    4638:	23 2d       	mov	r18, r3
    463a:	2e 7f       	andi	r18, 0xFE	; 254
    463c:	a2 2e       	mov	r10, r18
    463e:	89 14       	cp	r8, r9
    4640:	58 f4       	brcc	.+22     	; 0x4658 <vfprintf+0x2ea>
    4642:	34 fe       	sbrs	r3, 4
    4644:	0b c0       	rjmp	.+22     	; 0x465c <vfprintf+0x2ee>
    4646:	32 fc       	sbrc	r3, 2
    4648:	09 c0       	rjmp	.+18     	; 0x465c <vfprintf+0x2ee>
    464a:	83 2d       	mov	r24, r3
    464c:	8e 7e       	andi	r24, 0xEE	; 238
    464e:	a8 2e       	mov	r10, r24
    4650:	05 c0       	rjmp	.+10     	; 0x465c <vfprintf+0x2ee>
    4652:	b8 2c       	mov	r11, r8
    4654:	a3 2c       	mov	r10, r3
    4656:	03 c0       	rjmp	.+6      	; 0x465e <vfprintf+0x2f0>
    4658:	b8 2c       	mov	r11, r8
    465a:	01 c0       	rjmp	.+2      	; 0x465e <vfprintf+0x2f0>
    465c:	b9 2c       	mov	r11, r9
    465e:	a4 fe       	sbrs	r10, 4
    4660:	0f c0       	rjmp	.+30     	; 0x4680 <vfprintf+0x312>
    4662:	fe 01       	movw	r30, r28
    4664:	e8 0d       	add	r30, r8
    4666:	f1 1d       	adc	r31, r1
    4668:	80 81       	ld	r24, Z
    466a:	80 33       	cpi	r24, 0x30	; 48
    466c:	21 f4       	brne	.+8      	; 0x4676 <vfprintf+0x308>
    466e:	9a 2d       	mov	r25, r10
    4670:	99 7e       	andi	r25, 0xE9	; 233
    4672:	a9 2e       	mov	r10, r25
    4674:	09 c0       	rjmp	.+18     	; 0x4688 <vfprintf+0x31a>
    4676:	a2 fe       	sbrs	r10, 2
    4678:	06 c0       	rjmp	.+12     	; 0x4686 <vfprintf+0x318>
    467a:	b3 94       	inc	r11
    467c:	b3 94       	inc	r11
    467e:	04 c0       	rjmp	.+8      	; 0x4688 <vfprintf+0x31a>
    4680:	8a 2d       	mov	r24, r10
    4682:	86 78       	andi	r24, 0x86	; 134
    4684:	09 f0       	breq	.+2      	; 0x4688 <vfprintf+0x31a>
    4686:	b3 94       	inc	r11
    4688:	a3 fc       	sbrc	r10, 3
    468a:	10 c0       	rjmp	.+32     	; 0x46ac <vfprintf+0x33e>
    468c:	a0 fe       	sbrs	r10, 0
    468e:	06 c0       	rjmp	.+12     	; 0x469c <vfprintf+0x32e>
    4690:	b2 14       	cp	r11, r2
    4692:	80 f4       	brcc	.+32     	; 0x46b4 <vfprintf+0x346>
    4694:	28 0c       	add	r2, r8
    4696:	92 2c       	mov	r9, r2
    4698:	9b 18       	sub	r9, r11
    469a:	0d c0       	rjmp	.+26     	; 0x46b6 <vfprintf+0x348>
    469c:	b2 14       	cp	r11, r2
    469e:	58 f4       	brcc	.+22     	; 0x46b6 <vfprintf+0x348>
    46a0:	b6 01       	movw	r22, r12
    46a2:	80 e2       	ldi	r24, 0x20	; 32
    46a4:	90 e0       	ldi	r25, 0x00	; 0
    46a6:	76 d0       	rcall	.+236    	; 0x4794 <fputc>
    46a8:	b3 94       	inc	r11
    46aa:	f8 cf       	rjmp	.-16     	; 0x469c <vfprintf+0x32e>
    46ac:	b2 14       	cp	r11, r2
    46ae:	18 f4       	brcc	.+6      	; 0x46b6 <vfprintf+0x348>
    46b0:	2b 18       	sub	r2, r11
    46b2:	02 c0       	rjmp	.+4      	; 0x46b8 <vfprintf+0x34a>
    46b4:	98 2c       	mov	r9, r8
    46b6:	21 2c       	mov	r2, r1
    46b8:	a4 fe       	sbrs	r10, 4
    46ba:	0f c0       	rjmp	.+30     	; 0x46da <vfprintf+0x36c>
    46bc:	b6 01       	movw	r22, r12
    46be:	80 e3       	ldi	r24, 0x30	; 48
    46c0:	90 e0       	ldi	r25, 0x00	; 0
    46c2:	68 d0       	rcall	.+208    	; 0x4794 <fputc>
    46c4:	a2 fe       	sbrs	r10, 2
    46c6:	16 c0       	rjmp	.+44     	; 0x46f4 <vfprintf+0x386>
    46c8:	a1 fc       	sbrc	r10, 1
    46ca:	03 c0       	rjmp	.+6      	; 0x46d2 <vfprintf+0x364>
    46cc:	88 e7       	ldi	r24, 0x78	; 120
    46ce:	90 e0       	ldi	r25, 0x00	; 0
    46d0:	02 c0       	rjmp	.+4      	; 0x46d6 <vfprintf+0x368>
    46d2:	88 e5       	ldi	r24, 0x58	; 88
    46d4:	90 e0       	ldi	r25, 0x00	; 0
    46d6:	b6 01       	movw	r22, r12
    46d8:	0c c0       	rjmp	.+24     	; 0x46f2 <vfprintf+0x384>
    46da:	8a 2d       	mov	r24, r10
    46dc:	86 78       	andi	r24, 0x86	; 134
    46de:	51 f0       	breq	.+20     	; 0x46f4 <vfprintf+0x386>
    46e0:	a1 fe       	sbrs	r10, 1
    46e2:	02 c0       	rjmp	.+4      	; 0x46e8 <vfprintf+0x37a>
    46e4:	8b e2       	ldi	r24, 0x2B	; 43
    46e6:	01 c0       	rjmp	.+2      	; 0x46ea <vfprintf+0x37c>
    46e8:	80 e2       	ldi	r24, 0x20	; 32
    46ea:	a7 fc       	sbrc	r10, 7
    46ec:	8d e2       	ldi	r24, 0x2D	; 45
    46ee:	b6 01       	movw	r22, r12
    46f0:	90 e0       	ldi	r25, 0x00	; 0
    46f2:	50 d0       	rcall	.+160    	; 0x4794 <fputc>
    46f4:	89 14       	cp	r8, r9
    46f6:	30 f4       	brcc	.+12     	; 0x4704 <vfprintf+0x396>
    46f8:	b6 01       	movw	r22, r12
    46fa:	80 e3       	ldi	r24, 0x30	; 48
    46fc:	90 e0       	ldi	r25, 0x00	; 0
    46fe:	4a d0       	rcall	.+148    	; 0x4794 <fputc>
    4700:	9a 94       	dec	r9
    4702:	f8 cf       	rjmp	.-16     	; 0x46f4 <vfprintf+0x386>
    4704:	8a 94       	dec	r8
    4706:	f3 01       	movw	r30, r6
    4708:	e8 0d       	add	r30, r8
    470a:	f1 1d       	adc	r31, r1
    470c:	80 81       	ld	r24, Z
    470e:	b6 01       	movw	r22, r12
    4710:	90 e0       	ldi	r25, 0x00	; 0
    4712:	40 d0       	rcall	.+128    	; 0x4794 <fputc>
    4714:	81 10       	cpse	r8, r1
    4716:	f6 cf       	rjmp	.-20     	; 0x4704 <vfprintf+0x396>
    4718:	22 20       	and	r2, r2
    471a:	09 f4       	brne	.+2      	; 0x471e <vfprintf+0x3b0>
    471c:	4e ce       	rjmp	.-868    	; 0x43ba <vfprintf+0x4c>
    471e:	b6 01       	movw	r22, r12
    4720:	80 e2       	ldi	r24, 0x20	; 32
    4722:	90 e0       	ldi	r25, 0x00	; 0
    4724:	37 d0       	rcall	.+110    	; 0x4794 <fputc>
    4726:	2a 94       	dec	r2
    4728:	f7 cf       	rjmp	.-18     	; 0x4718 <vfprintf+0x3aa>
    472a:	f6 01       	movw	r30, r12
    472c:	86 81       	ldd	r24, Z+6	; 0x06
    472e:	97 81       	ldd	r25, Z+7	; 0x07
    4730:	02 c0       	rjmp	.+4      	; 0x4736 <vfprintf+0x3c8>
    4732:	8f ef       	ldi	r24, 0xFF	; 255
    4734:	9f ef       	ldi	r25, 0xFF	; 255
    4736:	2b 96       	adiw	r28, 0x0b	; 11
    4738:	0f b6       	in	r0, 0x3f	; 63
    473a:	f8 94       	cli
    473c:	de bf       	out	0x3e, r29	; 62
    473e:	0f be       	out	0x3f, r0	; 63
    4740:	cd bf       	out	0x3d, r28	; 61
    4742:	df 91       	pop	r29
    4744:	cf 91       	pop	r28
    4746:	1f 91       	pop	r17
    4748:	0f 91       	pop	r16
    474a:	ff 90       	pop	r15
    474c:	ef 90       	pop	r14
    474e:	df 90       	pop	r13
    4750:	cf 90       	pop	r12
    4752:	bf 90       	pop	r11
    4754:	af 90       	pop	r10
    4756:	9f 90       	pop	r9
    4758:	8f 90       	pop	r8
    475a:	7f 90       	pop	r7
    475c:	6f 90       	pop	r6
    475e:	5f 90       	pop	r5
    4760:	4f 90       	pop	r4
    4762:	3f 90       	pop	r3
    4764:	2f 90       	pop	r2
    4766:	08 95       	ret

00004768 <strnlen_P>:
    4768:	fc 01       	movw	r30, r24
    476a:	05 90       	lpm	r0, Z+
    476c:	61 50       	subi	r22, 0x01	; 1
    476e:	70 40       	sbci	r23, 0x00	; 0
    4770:	01 10       	cpse	r0, r1
    4772:	d8 f7       	brcc	.-10     	; 0x476a <strnlen_P+0x2>
    4774:	80 95       	com	r24
    4776:	90 95       	com	r25
    4778:	8e 0f       	add	r24, r30
    477a:	9f 1f       	adc	r25, r31
    477c:	08 95       	ret

0000477e <strnlen>:
    477e:	fc 01       	movw	r30, r24
    4780:	61 50       	subi	r22, 0x01	; 1
    4782:	70 40       	sbci	r23, 0x00	; 0
    4784:	01 90       	ld	r0, Z+
    4786:	01 10       	cpse	r0, r1
    4788:	d8 f7       	brcc	.-10     	; 0x4780 <strnlen+0x2>
    478a:	80 95       	com	r24
    478c:	90 95       	com	r25
    478e:	8e 0f       	add	r24, r30
    4790:	9f 1f       	adc	r25, r31
    4792:	08 95       	ret

00004794 <fputc>:
    4794:	0f 93       	push	r16
    4796:	1f 93       	push	r17
    4798:	cf 93       	push	r28
    479a:	df 93       	push	r29
    479c:	fb 01       	movw	r30, r22
    479e:	23 81       	ldd	r18, Z+3	; 0x03
    47a0:	21 fd       	sbrc	r18, 1
    47a2:	03 c0       	rjmp	.+6      	; 0x47aa <fputc+0x16>
    47a4:	8f ef       	ldi	r24, 0xFF	; 255
    47a6:	9f ef       	ldi	r25, 0xFF	; 255
    47a8:	2c c0       	rjmp	.+88     	; 0x4802 <fputc+0x6e>
    47aa:	22 ff       	sbrs	r18, 2
    47ac:	16 c0       	rjmp	.+44     	; 0x47da <fputc+0x46>
    47ae:	46 81       	ldd	r20, Z+6	; 0x06
    47b0:	57 81       	ldd	r21, Z+7	; 0x07
    47b2:	24 81       	ldd	r18, Z+4	; 0x04
    47b4:	35 81       	ldd	r19, Z+5	; 0x05
    47b6:	42 17       	cp	r20, r18
    47b8:	53 07       	cpc	r21, r19
    47ba:	44 f4       	brge	.+16     	; 0x47cc <fputc+0x38>
    47bc:	a0 81       	ld	r26, Z
    47be:	b1 81       	ldd	r27, Z+1	; 0x01
    47c0:	9d 01       	movw	r18, r26
    47c2:	2f 5f       	subi	r18, 0xFF	; 255
    47c4:	3f 4f       	sbci	r19, 0xFF	; 255
    47c6:	31 83       	std	Z+1, r19	; 0x01
    47c8:	20 83       	st	Z, r18
    47ca:	8c 93       	st	X, r24
    47cc:	26 81       	ldd	r18, Z+6	; 0x06
    47ce:	37 81       	ldd	r19, Z+7	; 0x07
    47d0:	2f 5f       	subi	r18, 0xFF	; 255
    47d2:	3f 4f       	sbci	r19, 0xFF	; 255
    47d4:	37 83       	std	Z+7, r19	; 0x07
    47d6:	26 83       	std	Z+6, r18	; 0x06
    47d8:	14 c0       	rjmp	.+40     	; 0x4802 <fputc+0x6e>
    47da:	8b 01       	movw	r16, r22
    47dc:	ec 01       	movw	r28, r24
    47de:	fb 01       	movw	r30, r22
    47e0:	00 84       	ldd	r0, Z+8	; 0x08
    47e2:	f1 85       	ldd	r31, Z+9	; 0x09
    47e4:	e0 2d       	mov	r30, r0
    47e6:	19 95       	eicall
    47e8:	89 2b       	or	r24, r25
    47ea:	e1 f6       	brne	.-72     	; 0x47a4 <fputc+0x10>
    47ec:	d8 01       	movw	r26, r16
    47ee:	16 96       	adiw	r26, 0x06	; 6
    47f0:	8d 91       	ld	r24, X+
    47f2:	9c 91       	ld	r25, X
    47f4:	17 97       	sbiw	r26, 0x07	; 7
    47f6:	01 96       	adiw	r24, 0x01	; 1
    47f8:	17 96       	adiw	r26, 0x07	; 7
    47fa:	9c 93       	st	X, r25
    47fc:	8e 93       	st	-X, r24
    47fe:	16 97       	sbiw	r26, 0x06	; 6
    4800:	ce 01       	movw	r24, r28
    4802:	df 91       	pop	r29
    4804:	cf 91       	pop	r28
    4806:	1f 91       	pop	r17
    4808:	0f 91       	pop	r16
    480a:	08 95       	ret

0000480c <__ultoa_invert>:
    480c:	fa 01       	movw	r30, r20
    480e:	aa 27       	eor	r26, r26
    4810:	28 30       	cpi	r18, 0x08	; 8
    4812:	51 f1       	breq	.+84     	; 0x4868 <__ultoa_invert+0x5c>
    4814:	20 31       	cpi	r18, 0x10	; 16
    4816:	81 f1       	breq	.+96     	; 0x4878 <__ultoa_invert+0x6c>
    4818:	e8 94       	clt
    481a:	6f 93       	push	r22
    481c:	6e 7f       	andi	r22, 0xFE	; 254
    481e:	6e 5f       	subi	r22, 0xFE	; 254
    4820:	7f 4f       	sbci	r23, 0xFF	; 255
    4822:	8f 4f       	sbci	r24, 0xFF	; 255
    4824:	9f 4f       	sbci	r25, 0xFF	; 255
    4826:	af 4f       	sbci	r26, 0xFF	; 255
    4828:	b1 e0       	ldi	r27, 0x01	; 1
    482a:	3e d0       	rcall	.+124    	; 0x48a8 <__ultoa_invert+0x9c>
    482c:	b4 e0       	ldi	r27, 0x04	; 4
    482e:	3c d0       	rcall	.+120    	; 0x48a8 <__ultoa_invert+0x9c>
    4830:	67 0f       	add	r22, r23
    4832:	78 1f       	adc	r23, r24
    4834:	89 1f       	adc	r24, r25
    4836:	9a 1f       	adc	r25, r26
    4838:	a1 1d       	adc	r26, r1
    483a:	68 0f       	add	r22, r24
    483c:	79 1f       	adc	r23, r25
    483e:	8a 1f       	adc	r24, r26
    4840:	91 1d       	adc	r25, r1
    4842:	a1 1d       	adc	r26, r1
    4844:	6a 0f       	add	r22, r26
    4846:	71 1d       	adc	r23, r1
    4848:	81 1d       	adc	r24, r1
    484a:	91 1d       	adc	r25, r1
    484c:	a1 1d       	adc	r26, r1
    484e:	20 d0       	rcall	.+64     	; 0x4890 <__ultoa_invert+0x84>
    4850:	09 f4       	brne	.+2      	; 0x4854 <__ultoa_invert+0x48>
    4852:	68 94       	set
    4854:	3f 91       	pop	r19
    4856:	2a e0       	ldi	r18, 0x0A	; 10
    4858:	26 9f       	mul	r18, r22
    485a:	11 24       	eor	r1, r1
    485c:	30 19       	sub	r19, r0
    485e:	30 5d       	subi	r19, 0xD0	; 208
    4860:	31 93       	st	Z+, r19
    4862:	de f6       	brtc	.-74     	; 0x481a <__ultoa_invert+0xe>
    4864:	cf 01       	movw	r24, r30
    4866:	08 95       	ret
    4868:	46 2f       	mov	r20, r22
    486a:	47 70       	andi	r20, 0x07	; 7
    486c:	40 5d       	subi	r20, 0xD0	; 208
    486e:	41 93       	st	Z+, r20
    4870:	b3 e0       	ldi	r27, 0x03	; 3
    4872:	0f d0       	rcall	.+30     	; 0x4892 <__ultoa_invert+0x86>
    4874:	c9 f7       	brne	.-14     	; 0x4868 <__ultoa_invert+0x5c>
    4876:	f6 cf       	rjmp	.-20     	; 0x4864 <__ultoa_invert+0x58>
    4878:	46 2f       	mov	r20, r22
    487a:	4f 70       	andi	r20, 0x0F	; 15
    487c:	40 5d       	subi	r20, 0xD0	; 208
    487e:	4a 33       	cpi	r20, 0x3A	; 58
    4880:	18 f0       	brcs	.+6      	; 0x4888 <__ultoa_invert+0x7c>
    4882:	49 5d       	subi	r20, 0xD9	; 217
    4884:	31 fd       	sbrc	r19, 1
    4886:	40 52       	subi	r20, 0x20	; 32
    4888:	41 93       	st	Z+, r20
    488a:	02 d0       	rcall	.+4      	; 0x4890 <__ultoa_invert+0x84>
    488c:	a9 f7       	brne	.-22     	; 0x4878 <__ultoa_invert+0x6c>
    488e:	ea cf       	rjmp	.-44     	; 0x4864 <__ultoa_invert+0x58>
    4890:	b4 e0       	ldi	r27, 0x04	; 4
    4892:	a6 95       	lsr	r26
    4894:	97 95       	ror	r25
    4896:	87 95       	ror	r24
    4898:	77 95       	ror	r23
    489a:	67 95       	ror	r22
    489c:	ba 95       	dec	r27
    489e:	c9 f7       	brne	.-14     	; 0x4892 <__ultoa_invert+0x86>
    48a0:	00 97       	sbiw	r24, 0x00	; 0
    48a2:	61 05       	cpc	r22, r1
    48a4:	71 05       	cpc	r23, r1
    48a6:	08 95       	ret
    48a8:	9b 01       	movw	r18, r22
    48aa:	ac 01       	movw	r20, r24
    48ac:	0a 2e       	mov	r0, r26
    48ae:	06 94       	lsr	r0
    48b0:	57 95       	ror	r21
    48b2:	47 95       	ror	r20
    48b4:	37 95       	ror	r19
    48b6:	27 95       	ror	r18
    48b8:	ba 95       	dec	r27
    48ba:	c9 f7       	brne	.-14     	; 0x48ae <__ultoa_invert+0xa2>
    48bc:	62 0f       	add	r22, r18
    48be:	73 1f       	adc	r23, r19
    48c0:	84 1f       	adc	r24, r20
    48c2:	95 1f       	adc	r25, r21
    48c4:	a0 1d       	adc	r26, r0
    48c6:	08 95       	ret

000048c8 <__divmodsi4>:
    48c8:	05 2e       	mov	r0, r21
    48ca:	97 fb       	bst	r25, 7
    48cc:	16 f4       	brtc	.+4      	; 0x48d2 <__divmodsi4+0xa>
    48ce:	00 94       	com	r0
    48d0:	0f d0       	rcall	.+30     	; 0x48f0 <__negsi2>
    48d2:	57 fd       	sbrc	r21, 7
    48d4:	05 d0       	rcall	.+10     	; 0x48e0 <__divmodsi4_neg2>
    48d6:	24 d0       	rcall	.+72     	; 0x4920 <__udivmodsi4>
    48d8:	07 fc       	sbrc	r0, 7
    48da:	02 d0       	rcall	.+4      	; 0x48e0 <__divmodsi4_neg2>
    48dc:	46 f4       	brtc	.+16     	; 0x48ee <__divmodsi4_exit>
    48de:	08 c0       	rjmp	.+16     	; 0x48f0 <__negsi2>

000048e0 <__divmodsi4_neg2>:
    48e0:	50 95       	com	r21
    48e2:	40 95       	com	r20
    48e4:	30 95       	com	r19
    48e6:	21 95       	neg	r18
    48e8:	3f 4f       	sbci	r19, 0xFF	; 255
    48ea:	4f 4f       	sbci	r20, 0xFF	; 255
    48ec:	5f 4f       	sbci	r21, 0xFF	; 255

000048ee <__divmodsi4_exit>:
    48ee:	08 95       	ret

000048f0 <__negsi2>:
    48f0:	90 95       	com	r25
    48f2:	80 95       	com	r24
    48f4:	70 95       	com	r23
    48f6:	61 95       	neg	r22
    48f8:	7f 4f       	sbci	r23, 0xFF	; 255
    48fa:	8f 4f       	sbci	r24, 0xFF	; 255
    48fc:	9f 4f       	sbci	r25, 0xFF	; 255
    48fe:	08 95       	ret

00004900 <__muluhisi3>:
    4900:	90 dc       	rcall	.-1760   	; 0x4222 <__umulhisi3>
    4902:	a5 9f       	mul	r26, r21
    4904:	90 0d       	add	r25, r0
    4906:	b4 9f       	mul	r27, r20
    4908:	90 0d       	add	r25, r0
    490a:	a4 9f       	mul	r26, r20
    490c:	80 0d       	add	r24, r0
    490e:	91 1d       	adc	r25, r1
    4910:	11 24       	eor	r1, r1
    4912:	08 95       	ret

00004914 <__mulshisi3>:
    4914:	b7 ff       	sbrs	r27, 7
    4916:	f4 cf       	rjmp	.-24     	; 0x4900 <__muluhisi3>

00004918 <__mulohisi3>:
    4918:	f3 df       	rcall	.-26     	; 0x4900 <__muluhisi3>
    491a:	82 1b       	sub	r24, r18
    491c:	93 0b       	sbc	r25, r19
    491e:	08 95       	ret

00004920 <__udivmodsi4>:
    4920:	a1 e2       	ldi	r26, 0x21	; 33
    4922:	1a 2e       	mov	r1, r26
    4924:	aa 1b       	sub	r26, r26
    4926:	bb 1b       	sub	r27, r27
    4928:	fd 01       	movw	r30, r26
    492a:	0d c0       	rjmp	.+26     	; 0x4946 <__udivmodsi4_ep>

0000492c <__udivmodsi4_loop>:
    492c:	aa 1f       	adc	r26, r26
    492e:	bb 1f       	adc	r27, r27
    4930:	ee 1f       	adc	r30, r30
    4932:	ff 1f       	adc	r31, r31
    4934:	a2 17       	cp	r26, r18
    4936:	b3 07       	cpc	r27, r19
    4938:	e4 07       	cpc	r30, r20
    493a:	f5 07       	cpc	r31, r21
    493c:	20 f0       	brcs	.+8      	; 0x4946 <__udivmodsi4_ep>
    493e:	a2 1b       	sub	r26, r18
    4940:	b3 0b       	sbc	r27, r19
    4942:	e4 0b       	sbc	r30, r20
    4944:	f5 0b       	sbc	r31, r21

00004946 <__udivmodsi4_ep>:
    4946:	66 1f       	adc	r22, r22
    4948:	77 1f       	adc	r23, r23
    494a:	88 1f       	adc	r24, r24
    494c:	99 1f       	adc	r25, r25
    494e:	1a 94       	dec	r1
    4950:	69 f7       	brne	.-38     	; 0x492c <__udivmodsi4_loop>
    4952:	60 95       	com	r22
    4954:	70 95       	com	r23
    4956:	80 95       	com	r24
    4958:	90 95       	com	r25
    495a:	9b 01       	movw	r18, r22
    495c:	ac 01       	movw	r20, r24
    495e:	bd 01       	movw	r22, r26
    4960:	cf 01       	movw	r24, r30
    4962:	08 95       	ret

00004964 <_exit>:
    4964:	f8 94       	cli

00004966 <__stop_program>:
    4966:	ff cf       	rjmp	.-2      	; 0x4966 <__stop_program>
